ARM GAS  C:\Users\adris\AppData\Local\Temp\cclqLwEJ.s 			page 1


   1              		.syntax unified
   2              		.cpu cortex-m4
   3              		.eabi_attribute 27, 1
   4              		.fpu fpv4-sp-d16
   5              		.eabi_attribute 20, 1
   6              		.eabi_attribute 21, 1
   7              		.eabi_attribute 23, 3
   8              		.eabi_attribute 24, 1
   9              		.eabi_attribute 25, 1
  10              		.eabi_attribute 26, 1
  11              		.eabi_attribute 30, 1
  12              		.eabi_attribute 34, 1
  13              		.eabi_attribute 18, 4
  14              		.thumb
  15              		.syntax unified
  16              		.file	"heap_5.c"
  17              		.text
  18              	.Ltext0:
  19              		.cfi_sections	.debug_frame
  20              		.section	.text.prvInsertBlockIntoFreeList,"ax",%progbits
  21              		.align	2
  22              		.thumb
  23              		.thumb_func
  24              		.type	prvInsertBlockIntoFreeList, %function
  25              	prvInsertBlockIntoFreeList:
  26              	.LFB140:
  27              		.file 1 "Generated_Source\\PSoC6\\pdl\\rtos\\FreeRTOS\\10.0.1\\Source\\portable\\MemMang\\heap_5.c
   1:Generated_Source\PSoC6\pdl\rtos\FreeRTOS\10.0.1\Source\portable\MemMang/heap_5.c **** /*
   2:Generated_Source\PSoC6\pdl\rtos\FreeRTOS\10.0.1\Source\portable\MemMang/heap_5.c ****  * FreeRTOS Kernel V10.0.1
   3:Generated_Source\PSoC6\pdl\rtos\FreeRTOS\10.0.1\Source\portable\MemMang/heap_5.c ****  * Copyright (C) 2017 Amazon.com, Inc. or its affiliates.  All Rights Reserved.
   4:Generated_Source\PSoC6\pdl\rtos\FreeRTOS\10.0.1\Source\portable\MemMang/heap_5.c ****  *
   5:Generated_Source\PSoC6\pdl\rtos\FreeRTOS\10.0.1\Source\portable\MemMang/heap_5.c ****  * Permission is hereby granted, free of charge, to any person obtaining a copy of
   6:Generated_Source\PSoC6\pdl\rtos\FreeRTOS\10.0.1\Source\portable\MemMang/heap_5.c ****  * this software and associated documentation files (the "Software"), to deal in
   7:Generated_Source\PSoC6\pdl\rtos\FreeRTOS\10.0.1\Source\portable\MemMang/heap_5.c ****  * the Software without restriction, including without limitation the rights to
   8:Generated_Source\PSoC6\pdl\rtos\FreeRTOS\10.0.1\Source\portable\MemMang/heap_5.c ****  * use, copy, modify, merge, publish, distribute, sublicense, and/or sell copies of
   9:Generated_Source\PSoC6\pdl\rtos\FreeRTOS\10.0.1\Source\portable\MemMang/heap_5.c ****  * the Software, and to permit persons to whom the Software is furnished to do so,
  10:Generated_Source\PSoC6\pdl\rtos\FreeRTOS\10.0.1\Source\portable\MemMang/heap_5.c ****  * subject to the following conditions:
  11:Generated_Source\PSoC6\pdl\rtos\FreeRTOS\10.0.1\Source\portable\MemMang/heap_5.c ****  *
  12:Generated_Source\PSoC6\pdl\rtos\FreeRTOS\10.0.1\Source\portable\MemMang/heap_5.c ****  * The above copyright notice and this permission notice shall be included in all
  13:Generated_Source\PSoC6\pdl\rtos\FreeRTOS\10.0.1\Source\portable\MemMang/heap_5.c ****  * copies or substantial portions of the Software.
  14:Generated_Source\PSoC6\pdl\rtos\FreeRTOS\10.0.1\Source\portable\MemMang/heap_5.c ****  *
  15:Generated_Source\PSoC6\pdl\rtos\FreeRTOS\10.0.1\Source\portable\MemMang/heap_5.c ****  * THE SOFTWARE IS PROVIDED "AS IS", WITHOUT WARRANTY OF ANY KIND, EXPRESS OR
  16:Generated_Source\PSoC6\pdl\rtos\FreeRTOS\10.0.1\Source\portable\MemMang/heap_5.c ****  * IMPLIED, INCLUDING BUT NOT LIMITED TO THE WARRANTIES OF MERCHANTABILITY, FITNESS
  17:Generated_Source\PSoC6\pdl\rtos\FreeRTOS\10.0.1\Source\portable\MemMang/heap_5.c ****  * FOR A PARTICULAR PURPOSE AND NONINFRINGEMENT. IN NO EVENT SHALL THE AUTHORS OR
  18:Generated_Source\PSoC6\pdl\rtos\FreeRTOS\10.0.1\Source\portable\MemMang/heap_5.c ****  * COPYRIGHT HOLDERS BE LIABLE FOR ANY CLAIM, DAMAGES OR OTHER LIABILITY, WHETHER
  19:Generated_Source\PSoC6\pdl\rtos\FreeRTOS\10.0.1\Source\portable\MemMang/heap_5.c ****  * IN AN ACTION OF CONTRACT, TORT OR OTHERWISE, ARISING FROM, OUT OF OR IN
  20:Generated_Source\PSoC6\pdl\rtos\FreeRTOS\10.0.1\Source\portable\MemMang/heap_5.c ****  * CONNECTION WITH THE SOFTWARE OR THE USE OR OTHER DEALINGS IN THE SOFTWARE.
  21:Generated_Source\PSoC6\pdl\rtos\FreeRTOS\10.0.1\Source\portable\MemMang/heap_5.c ****  *
  22:Generated_Source\PSoC6\pdl\rtos\FreeRTOS\10.0.1\Source\portable\MemMang/heap_5.c ****  * http://www.FreeRTOS.org
  23:Generated_Source\PSoC6\pdl\rtos\FreeRTOS\10.0.1\Source\portable\MemMang/heap_5.c ****  * http://aws.amazon.com/freertos
  24:Generated_Source\PSoC6\pdl\rtos\FreeRTOS\10.0.1\Source\portable\MemMang/heap_5.c ****  *
  25:Generated_Source\PSoC6\pdl\rtos\FreeRTOS\10.0.1\Source\portable\MemMang/heap_5.c ****  * 1 tab == 4 spaces!
  26:Generated_Source\PSoC6\pdl\rtos\FreeRTOS\10.0.1\Source\portable\MemMang/heap_5.c ****  */
  27:Generated_Source\PSoC6\pdl\rtos\FreeRTOS\10.0.1\Source\portable\MemMang/heap_5.c **** 
  28:Generated_Source\PSoC6\pdl\rtos\FreeRTOS\10.0.1\Source\portable\MemMang/heap_5.c **** /*
  29:Generated_Source\PSoC6\pdl\rtos\FreeRTOS\10.0.1\Source\portable\MemMang/heap_5.c ****  * A sample implementation of pvPortMalloc() that allows the heap to be defined
  30:Generated_Source\PSoC6\pdl\rtos\FreeRTOS\10.0.1\Source\portable\MemMang/heap_5.c ****  * across multiple non-contigous blocks and combines (coalescences) adjacent
ARM GAS  C:\Users\adris\AppData\Local\Temp\cclqLwEJ.s 			page 2


  31:Generated_Source\PSoC6\pdl\rtos\FreeRTOS\10.0.1\Source\portable\MemMang/heap_5.c ****  * memory blocks as they are freed.
  32:Generated_Source\PSoC6\pdl\rtos\FreeRTOS\10.0.1\Source\portable\MemMang/heap_5.c ****  *
  33:Generated_Source\PSoC6\pdl\rtos\FreeRTOS\10.0.1\Source\portable\MemMang/heap_5.c ****  * See heap_1.c, heap_2.c, heap_3.c and heap_4.c for alternative
  34:Generated_Source\PSoC6\pdl\rtos\FreeRTOS\10.0.1\Source\portable\MemMang/heap_5.c ****  * implementations, and the memory management pages of http://www.FreeRTOS.org
  35:Generated_Source\PSoC6\pdl\rtos\FreeRTOS\10.0.1\Source\portable\MemMang/heap_5.c ****  * for more information.
  36:Generated_Source\PSoC6\pdl\rtos\FreeRTOS\10.0.1\Source\portable\MemMang/heap_5.c ****  *
  37:Generated_Source\PSoC6\pdl\rtos\FreeRTOS\10.0.1\Source\portable\MemMang/heap_5.c ****  * Usage notes:
  38:Generated_Source\PSoC6\pdl\rtos\FreeRTOS\10.0.1\Source\portable\MemMang/heap_5.c ****  *
  39:Generated_Source\PSoC6\pdl\rtos\FreeRTOS\10.0.1\Source\portable\MemMang/heap_5.c ****  * vPortDefineHeapRegions() ***must*** be called before pvPortMalloc().
  40:Generated_Source\PSoC6\pdl\rtos\FreeRTOS\10.0.1\Source\portable\MemMang/heap_5.c ****  * pvPortMalloc() will be called if any task objects (tasks, queues, event
  41:Generated_Source\PSoC6\pdl\rtos\FreeRTOS\10.0.1\Source\portable\MemMang/heap_5.c ****  * groups, etc.) are created, therefore vPortDefineHeapRegions() ***must*** be
  42:Generated_Source\PSoC6\pdl\rtos\FreeRTOS\10.0.1\Source\portable\MemMang/heap_5.c ****  * called before any other objects are defined.
  43:Generated_Source\PSoC6\pdl\rtos\FreeRTOS\10.0.1\Source\portable\MemMang/heap_5.c ****  *
  44:Generated_Source\PSoC6\pdl\rtos\FreeRTOS\10.0.1\Source\portable\MemMang/heap_5.c ****  * vPortDefineHeapRegions() takes a single parameter.  The parameter is an array
  45:Generated_Source\PSoC6\pdl\rtos\FreeRTOS\10.0.1\Source\portable\MemMang/heap_5.c ****  * of HeapRegion_t structures.  HeapRegion_t is defined in portable.h as
  46:Generated_Source\PSoC6\pdl\rtos\FreeRTOS\10.0.1\Source\portable\MemMang/heap_5.c ****  *
  47:Generated_Source\PSoC6\pdl\rtos\FreeRTOS\10.0.1\Source\portable\MemMang/heap_5.c ****  * typedef struct HeapRegion
  48:Generated_Source\PSoC6\pdl\rtos\FreeRTOS\10.0.1\Source\portable\MemMang/heap_5.c ****  * {
  49:Generated_Source\PSoC6\pdl\rtos\FreeRTOS\10.0.1\Source\portable\MemMang/heap_5.c ****  *	uint8_t *pucStartAddress; << Start address of a block of memory that will be part of the heap.
  50:Generated_Source\PSoC6\pdl\rtos\FreeRTOS\10.0.1\Source\portable\MemMang/heap_5.c ****  *	size_t xSizeInBytes;	  << Size of the block of memory.
  51:Generated_Source\PSoC6\pdl\rtos\FreeRTOS\10.0.1\Source\portable\MemMang/heap_5.c ****  * } HeapRegion_t;
  52:Generated_Source\PSoC6\pdl\rtos\FreeRTOS\10.0.1\Source\portable\MemMang/heap_5.c ****  *
  53:Generated_Source\PSoC6\pdl\rtos\FreeRTOS\10.0.1\Source\portable\MemMang/heap_5.c ****  * The array is terminated using a NULL zero sized region definition, and the
  54:Generated_Source\PSoC6\pdl\rtos\FreeRTOS\10.0.1\Source\portable\MemMang/heap_5.c ****  * memory regions defined in the array ***must*** appear in address order from
  55:Generated_Source\PSoC6\pdl\rtos\FreeRTOS\10.0.1\Source\portable\MemMang/heap_5.c ****  * low address to high address.  So the following is a valid example of how
  56:Generated_Source\PSoC6\pdl\rtos\FreeRTOS\10.0.1\Source\portable\MemMang/heap_5.c ****  * to use the function.
  57:Generated_Source\PSoC6\pdl\rtos\FreeRTOS\10.0.1\Source\portable\MemMang/heap_5.c ****  *
  58:Generated_Source\PSoC6\pdl\rtos\FreeRTOS\10.0.1\Source\portable\MemMang/heap_5.c ****  * HeapRegion_t xHeapRegions[] =
  59:Generated_Source\PSoC6\pdl\rtos\FreeRTOS\10.0.1\Source\portable\MemMang/heap_5.c ****  * {
  60:Generated_Source\PSoC6\pdl\rtos\FreeRTOS\10.0.1\Source\portable\MemMang/heap_5.c ****  * 	{ ( uint8_t * ) 0x80000000UL, 0x10000 }, << Defines a block of 0x10000 bytes starting at addres
  61:Generated_Source\PSoC6\pdl\rtos\FreeRTOS\10.0.1\Source\portable\MemMang/heap_5.c ****  * 	{ ( uint8_t * ) 0x90000000UL, 0xa0000 }, << Defines a block of 0xa0000 bytes starting at addres
  62:Generated_Source\PSoC6\pdl\rtos\FreeRTOS\10.0.1\Source\portable\MemMang/heap_5.c ****  * 	{ NULL, 0 }                << Terminates the array.
  63:Generated_Source\PSoC6\pdl\rtos\FreeRTOS\10.0.1\Source\portable\MemMang/heap_5.c ****  * };
  64:Generated_Source\PSoC6\pdl\rtos\FreeRTOS\10.0.1\Source\portable\MemMang/heap_5.c ****  *
  65:Generated_Source\PSoC6\pdl\rtos\FreeRTOS\10.0.1\Source\portable\MemMang/heap_5.c ****  * vPortDefineHeapRegions( xHeapRegions ); << Pass the array into vPortDefineHeapRegions().
  66:Generated_Source\PSoC6\pdl\rtos\FreeRTOS\10.0.1\Source\portable\MemMang/heap_5.c ****  *
  67:Generated_Source\PSoC6\pdl\rtos\FreeRTOS\10.0.1\Source\portable\MemMang/heap_5.c ****  * Note 0x80000000 is the lower address so appears in the array first.
  68:Generated_Source\PSoC6\pdl\rtos\FreeRTOS\10.0.1\Source\portable\MemMang/heap_5.c ****  *
  69:Generated_Source\PSoC6\pdl\rtos\FreeRTOS\10.0.1\Source\portable\MemMang/heap_5.c ****  */
  70:Generated_Source\PSoC6\pdl\rtos\FreeRTOS\10.0.1\Source\portable\MemMang/heap_5.c **** #include <stdlib.h>
  71:Generated_Source\PSoC6\pdl\rtos\FreeRTOS\10.0.1\Source\portable\MemMang/heap_5.c **** 
  72:Generated_Source\PSoC6\pdl\rtos\FreeRTOS\10.0.1\Source\portable\MemMang/heap_5.c **** /* Defining MPU_WRAPPERS_INCLUDED_FROM_API_FILE prevents task.h from redefining
  73:Generated_Source\PSoC6\pdl\rtos\FreeRTOS\10.0.1\Source\portable\MemMang/heap_5.c **** all the API functions to use the MPU wrappers.  That should only be done when
  74:Generated_Source\PSoC6\pdl\rtos\FreeRTOS\10.0.1\Source\portable\MemMang/heap_5.c **** task.h is included from an application file. */
  75:Generated_Source\PSoC6\pdl\rtos\FreeRTOS\10.0.1\Source\portable\MemMang/heap_5.c **** #define MPU_WRAPPERS_INCLUDED_FROM_API_FILE
  76:Generated_Source\PSoC6\pdl\rtos\FreeRTOS\10.0.1\Source\portable\MemMang/heap_5.c **** 
  77:Generated_Source\PSoC6\pdl\rtos\FreeRTOS\10.0.1\Source\portable\MemMang/heap_5.c **** #include "FreeRTOS.h"
  78:Generated_Source\PSoC6\pdl\rtos\FreeRTOS\10.0.1\Source\portable\MemMang/heap_5.c **** #include "task.h"
  79:Generated_Source\PSoC6\pdl\rtos\FreeRTOS\10.0.1\Source\portable\MemMang/heap_5.c **** 
  80:Generated_Source\PSoC6\pdl\rtos\FreeRTOS\10.0.1\Source\portable\MemMang/heap_5.c **** #undef MPU_WRAPPERS_INCLUDED_FROM_API_FILE
  81:Generated_Source\PSoC6\pdl\rtos\FreeRTOS\10.0.1\Source\portable\MemMang/heap_5.c **** 
  82:Generated_Source\PSoC6\pdl\rtos\FreeRTOS\10.0.1\Source\portable\MemMang/heap_5.c **** #if( configSUPPORT_DYNAMIC_ALLOCATION == 0 )
  83:Generated_Source\PSoC6\pdl\rtos\FreeRTOS\10.0.1\Source\portable\MemMang/heap_5.c **** 	#error This file must not be used if configSUPPORT_DYNAMIC_ALLOCATION is 0
  84:Generated_Source\PSoC6\pdl\rtos\FreeRTOS\10.0.1\Source\portable\MemMang/heap_5.c **** #endif
  85:Generated_Source\PSoC6\pdl\rtos\FreeRTOS\10.0.1\Source\portable\MemMang/heap_5.c **** 
  86:Generated_Source\PSoC6\pdl\rtos\FreeRTOS\10.0.1\Source\portable\MemMang/heap_5.c **** /* Block sizes must not get too small. */
  87:Generated_Source\PSoC6\pdl\rtos\FreeRTOS\10.0.1\Source\portable\MemMang/heap_5.c **** #define heapMINIMUM_BLOCK_SIZE	( ( size_t ) ( xHeapStructSize << 1 ) )
ARM GAS  C:\Users\adris\AppData\Local\Temp\cclqLwEJ.s 			page 3


  88:Generated_Source\PSoC6\pdl\rtos\FreeRTOS\10.0.1\Source\portable\MemMang/heap_5.c **** 
  89:Generated_Source\PSoC6\pdl\rtos\FreeRTOS\10.0.1\Source\portable\MemMang/heap_5.c **** /* Assumes 8bit bytes! */
  90:Generated_Source\PSoC6\pdl\rtos\FreeRTOS\10.0.1\Source\portable\MemMang/heap_5.c **** #define heapBITS_PER_BYTE		( ( size_t ) 8 )
  91:Generated_Source\PSoC6\pdl\rtos\FreeRTOS\10.0.1\Source\portable\MemMang/heap_5.c **** 
  92:Generated_Source\PSoC6\pdl\rtos\FreeRTOS\10.0.1\Source\portable\MemMang/heap_5.c **** /* Define the linked list structure.  This is used to link free blocks in order
  93:Generated_Source\PSoC6\pdl\rtos\FreeRTOS\10.0.1\Source\portable\MemMang/heap_5.c **** of their memory address. */
  94:Generated_Source\PSoC6\pdl\rtos\FreeRTOS\10.0.1\Source\portable\MemMang/heap_5.c **** typedef struct A_BLOCK_LINK
  95:Generated_Source\PSoC6\pdl\rtos\FreeRTOS\10.0.1\Source\portable\MemMang/heap_5.c **** {
  96:Generated_Source\PSoC6\pdl\rtos\FreeRTOS\10.0.1\Source\portable\MemMang/heap_5.c **** 	struct A_BLOCK_LINK *pxNextFreeBlock;	/*<< The next free block in the list. */
  97:Generated_Source\PSoC6\pdl\rtos\FreeRTOS\10.0.1\Source\portable\MemMang/heap_5.c **** 	size_t xBlockSize;						/*<< The size of the free block. */
  98:Generated_Source\PSoC6\pdl\rtos\FreeRTOS\10.0.1\Source\portable\MemMang/heap_5.c **** } BlockLink_t;
  99:Generated_Source\PSoC6\pdl\rtos\FreeRTOS\10.0.1\Source\portable\MemMang/heap_5.c **** 
 100:Generated_Source\PSoC6\pdl\rtos\FreeRTOS\10.0.1\Source\portable\MemMang/heap_5.c **** /*-----------------------------------------------------------*/
 101:Generated_Source\PSoC6\pdl\rtos\FreeRTOS\10.0.1\Source\portable\MemMang/heap_5.c **** 
 102:Generated_Source\PSoC6\pdl\rtos\FreeRTOS\10.0.1\Source\portable\MemMang/heap_5.c **** /*
 103:Generated_Source\PSoC6\pdl\rtos\FreeRTOS\10.0.1\Source\portable\MemMang/heap_5.c ****  * Inserts a block of memory that is being freed into the correct position in
 104:Generated_Source\PSoC6\pdl\rtos\FreeRTOS\10.0.1\Source\portable\MemMang/heap_5.c ****  * the list of free memory blocks.  The block being freed will be merged with
 105:Generated_Source\PSoC6\pdl\rtos\FreeRTOS\10.0.1\Source\portable\MemMang/heap_5.c ****  * the block in front it and/or the block behind it if the memory blocks are
 106:Generated_Source\PSoC6\pdl\rtos\FreeRTOS\10.0.1\Source\portable\MemMang/heap_5.c ****  * adjacent to each other.
 107:Generated_Source\PSoC6\pdl\rtos\FreeRTOS\10.0.1\Source\portable\MemMang/heap_5.c ****  */
 108:Generated_Source\PSoC6\pdl\rtos\FreeRTOS\10.0.1\Source\portable\MemMang/heap_5.c **** static void prvInsertBlockIntoFreeList( BlockLink_t *pxBlockToInsert );
 109:Generated_Source\PSoC6\pdl\rtos\FreeRTOS\10.0.1\Source\portable\MemMang/heap_5.c **** 
 110:Generated_Source\PSoC6\pdl\rtos\FreeRTOS\10.0.1\Source\portable\MemMang/heap_5.c **** /*-----------------------------------------------------------*/
 111:Generated_Source\PSoC6\pdl\rtos\FreeRTOS\10.0.1\Source\portable\MemMang/heap_5.c **** 
 112:Generated_Source\PSoC6\pdl\rtos\FreeRTOS\10.0.1\Source\portable\MemMang/heap_5.c **** /* The size of the structure placed at the beginning of each allocated memory
 113:Generated_Source\PSoC6\pdl\rtos\FreeRTOS\10.0.1\Source\portable\MemMang/heap_5.c **** block must by correctly byte aligned. */
 114:Generated_Source\PSoC6\pdl\rtos\FreeRTOS\10.0.1\Source\portable\MemMang/heap_5.c **** static const size_t xHeapStructSize	= ( sizeof( BlockLink_t ) + ( ( size_t ) ( portBYTE_ALIGNMENT -
 115:Generated_Source\PSoC6\pdl\rtos\FreeRTOS\10.0.1\Source\portable\MemMang/heap_5.c **** 
 116:Generated_Source\PSoC6\pdl\rtos\FreeRTOS\10.0.1\Source\portable\MemMang/heap_5.c **** /* Create a couple of list links to mark the start and end of the list. */
 117:Generated_Source\PSoC6\pdl\rtos\FreeRTOS\10.0.1\Source\portable\MemMang/heap_5.c **** static BlockLink_t xStart, *pxEnd = NULL;
 118:Generated_Source\PSoC6\pdl\rtos\FreeRTOS\10.0.1\Source\portable\MemMang/heap_5.c **** 
 119:Generated_Source\PSoC6\pdl\rtos\FreeRTOS\10.0.1\Source\portable\MemMang/heap_5.c **** /* Keeps track of the number of free bytes remaining, but says nothing about
 120:Generated_Source\PSoC6\pdl\rtos\FreeRTOS\10.0.1\Source\portable\MemMang/heap_5.c **** fragmentation. */
 121:Generated_Source\PSoC6\pdl\rtos\FreeRTOS\10.0.1\Source\portable\MemMang/heap_5.c **** static size_t xFreeBytesRemaining = 0U;
 122:Generated_Source\PSoC6\pdl\rtos\FreeRTOS\10.0.1\Source\portable\MemMang/heap_5.c **** static size_t xMinimumEverFreeBytesRemaining = 0U;
 123:Generated_Source\PSoC6\pdl\rtos\FreeRTOS\10.0.1\Source\portable\MemMang/heap_5.c **** 
 124:Generated_Source\PSoC6\pdl\rtos\FreeRTOS\10.0.1\Source\portable\MemMang/heap_5.c **** /* Gets set to the top bit of an size_t type.  When this bit in the xBlockSize
 125:Generated_Source\PSoC6\pdl\rtos\FreeRTOS\10.0.1\Source\portable\MemMang/heap_5.c **** member of an BlockLink_t structure is set then the block belongs to the
 126:Generated_Source\PSoC6\pdl\rtos\FreeRTOS\10.0.1\Source\portable\MemMang/heap_5.c **** application.  When the bit is free the block is still part of the free heap
 127:Generated_Source\PSoC6\pdl\rtos\FreeRTOS\10.0.1\Source\portable\MemMang/heap_5.c **** space. */
 128:Generated_Source\PSoC6\pdl\rtos\FreeRTOS\10.0.1\Source\portable\MemMang/heap_5.c **** static size_t xBlockAllocatedBit = 0;
 129:Generated_Source\PSoC6\pdl\rtos\FreeRTOS\10.0.1\Source\portable\MemMang/heap_5.c **** 
 130:Generated_Source\PSoC6\pdl\rtos\FreeRTOS\10.0.1\Source\portable\MemMang/heap_5.c **** /*-----------------------------------------------------------*/
 131:Generated_Source\PSoC6\pdl\rtos\FreeRTOS\10.0.1\Source\portable\MemMang/heap_5.c **** 
 132:Generated_Source\PSoC6\pdl\rtos\FreeRTOS\10.0.1\Source\portable\MemMang/heap_5.c **** void *pvPortMalloc( size_t xWantedSize )
 133:Generated_Source\PSoC6\pdl\rtos\FreeRTOS\10.0.1\Source\portable\MemMang/heap_5.c **** {
 134:Generated_Source\PSoC6\pdl\rtos\FreeRTOS\10.0.1\Source\portable\MemMang/heap_5.c **** BlockLink_t *pxBlock, *pxPreviousBlock, *pxNewBlockLink;
 135:Generated_Source\PSoC6\pdl\rtos\FreeRTOS\10.0.1\Source\portable\MemMang/heap_5.c **** void *pvReturn = NULL;
 136:Generated_Source\PSoC6\pdl\rtos\FreeRTOS\10.0.1\Source\portable\MemMang/heap_5.c **** 
 137:Generated_Source\PSoC6\pdl\rtos\FreeRTOS\10.0.1\Source\portable\MemMang/heap_5.c **** 	/* The heap must be initialised before the first call to
 138:Generated_Source\PSoC6\pdl\rtos\FreeRTOS\10.0.1\Source\portable\MemMang/heap_5.c **** 	prvPortMalloc(). */
 139:Generated_Source\PSoC6\pdl\rtos\FreeRTOS\10.0.1\Source\portable\MemMang/heap_5.c **** 	configASSERT( pxEnd );
 140:Generated_Source\PSoC6\pdl\rtos\FreeRTOS\10.0.1\Source\portable\MemMang/heap_5.c **** 
 141:Generated_Source\PSoC6\pdl\rtos\FreeRTOS\10.0.1\Source\portable\MemMang/heap_5.c **** 	vTaskSuspendAll();
 142:Generated_Source\PSoC6\pdl\rtos\FreeRTOS\10.0.1\Source\portable\MemMang/heap_5.c **** 	{
 143:Generated_Source\PSoC6\pdl\rtos\FreeRTOS\10.0.1\Source\portable\MemMang/heap_5.c **** 		/* Check the requested block size is not so large that the top bit is
 144:Generated_Source\PSoC6\pdl\rtos\FreeRTOS\10.0.1\Source\portable\MemMang/heap_5.c **** 		set.  The top bit of the block size member of the BlockLink_t structure
ARM GAS  C:\Users\adris\AppData\Local\Temp\cclqLwEJ.s 			page 4


 145:Generated_Source\PSoC6\pdl\rtos\FreeRTOS\10.0.1\Source\portable\MemMang/heap_5.c **** 		is used to determine who owns the block - the application or the
 146:Generated_Source\PSoC6\pdl\rtos\FreeRTOS\10.0.1\Source\portable\MemMang/heap_5.c **** 		kernel, so it must be free. */
 147:Generated_Source\PSoC6\pdl\rtos\FreeRTOS\10.0.1\Source\portable\MemMang/heap_5.c **** 		if( ( xWantedSize & xBlockAllocatedBit ) == 0 )
 148:Generated_Source\PSoC6\pdl\rtos\FreeRTOS\10.0.1\Source\portable\MemMang/heap_5.c **** 		{
 149:Generated_Source\PSoC6\pdl\rtos\FreeRTOS\10.0.1\Source\portable\MemMang/heap_5.c **** 			/* The wanted size is increased so it can contain a BlockLink_t
 150:Generated_Source\PSoC6\pdl\rtos\FreeRTOS\10.0.1\Source\portable\MemMang/heap_5.c **** 			structure in addition to the requested amount of bytes. */
 151:Generated_Source\PSoC6\pdl\rtos\FreeRTOS\10.0.1\Source\portable\MemMang/heap_5.c **** 			if( xWantedSize > 0 )
 152:Generated_Source\PSoC6\pdl\rtos\FreeRTOS\10.0.1\Source\portable\MemMang/heap_5.c **** 			{
 153:Generated_Source\PSoC6\pdl\rtos\FreeRTOS\10.0.1\Source\portable\MemMang/heap_5.c **** 				xWantedSize += xHeapStructSize;
 154:Generated_Source\PSoC6\pdl\rtos\FreeRTOS\10.0.1\Source\portable\MemMang/heap_5.c **** 
 155:Generated_Source\PSoC6\pdl\rtos\FreeRTOS\10.0.1\Source\portable\MemMang/heap_5.c **** 				/* Ensure that blocks are always aligned to the required number
 156:Generated_Source\PSoC6\pdl\rtos\FreeRTOS\10.0.1\Source\portable\MemMang/heap_5.c **** 				of bytes. */
 157:Generated_Source\PSoC6\pdl\rtos\FreeRTOS\10.0.1\Source\portable\MemMang/heap_5.c **** 				if( ( xWantedSize & portBYTE_ALIGNMENT_MASK ) != 0x00 )
 158:Generated_Source\PSoC6\pdl\rtos\FreeRTOS\10.0.1\Source\portable\MemMang/heap_5.c **** 				{
 159:Generated_Source\PSoC6\pdl\rtos\FreeRTOS\10.0.1\Source\portable\MemMang/heap_5.c **** 					/* Byte alignment required. */
 160:Generated_Source\PSoC6\pdl\rtos\FreeRTOS\10.0.1\Source\portable\MemMang/heap_5.c **** 					xWantedSize += ( portBYTE_ALIGNMENT - ( xWantedSize & portBYTE_ALIGNMENT_MASK ) );
 161:Generated_Source\PSoC6\pdl\rtos\FreeRTOS\10.0.1\Source\portable\MemMang/heap_5.c **** 				}
 162:Generated_Source\PSoC6\pdl\rtos\FreeRTOS\10.0.1\Source\portable\MemMang/heap_5.c **** 				else
 163:Generated_Source\PSoC6\pdl\rtos\FreeRTOS\10.0.1\Source\portable\MemMang/heap_5.c **** 				{
 164:Generated_Source\PSoC6\pdl\rtos\FreeRTOS\10.0.1\Source\portable\MemMang/heap_5.c **** 					mtCOVERAGE_TEST_MARKER();
 165:Generated_Source\PSoC6\pdl\rtos\FreeRTOS\10.0.1\Source\portable\MemMang/heap_5.c **** 				}
 166:Generated_Source\PSoC6\pdl\rtos\FreeRTOS\10.0.1\Source\portable\MemMang/heap_5.c **** 			}
 167:Generated_Source\PSoC6\pdl\rtos\FreeRTOS\10.0.1\Source\portable\MemMang/heap_5.c **** 			else
 168:Generated_Source\PSoC6\pdl\rtos\FreeRTOS\10.0.1\Source\portable\MemMang/heap_5.c **** 			{
 169:Generated_Source\PSoC6\pdl\rtos\FreeRTOS\10.0.1\Source\portable\MemMang/heap_5.c **** 				mtCOVERAGE_TEST_MARKER();
 170:Generated_Source\PSoC6\pdl\rtos\FreeRTOS\10.0.1\Source\portable\MemMang/heap_5.c **** 			}
 171:Generated_Source\PSoC6\pdl\rtos\FreeRTOS\10.0.1\Source\portable\MemMang/heap_5.c **** 
 172:Generated_Source\PSoC6\pdl\rtos\FreeRTOS\10.0.1\Source\portable\MemMang/heap_5.c **** 			if( ( xWantedSize > 0 ) && ( xWantedSize <= xFreeBytesRemaining ) )
 173:Generated_Source\PSoC6\pdl\rtos\FreeRTOS\10.0.1\Source\portable\MemMang/heap_5.c **** 			{
 174:Generated_Source\PSoC6\pdl\rtos\FreeRTOS\10.0.1\Source\portable\MemMang/heap_5.c **** 				/* Traverse the list from the start	(lowest address) block until
 175:Generated_Source\PSoC6\pdl\rtos\FreeRTOS\10.0.1\Source\portable\MemMang/heap_5.c **** 				one	of adequate size is found. */
 176:Generated_Source\PSoC6\pdl\rtos\FreeRTOS\10.0.1\Source\portable\MemMang/heap_5.c **** 				pxPreviousBlock = &xStart;
 177:Generated_Source\PSoC6\pdl\rtos\FreeRTOS\10.0.1\Source\portable\MemMang/heap_5.c **** 				pxBlock = xStart.pxNextFreeBlock;
 178:Generated_Source\PSoC6\pdl\rtos\FreeRTOS\10.0.1\Source\portable\MemMang/heap_5.c **** 				while( ( pxBlock->xBlockSize < xWantedSize ) && ( pxBlock->pxNextFreeBlock != NULL ) )
 179:Generated_Source\PSoC6\pdl\rtos\FreeRTOS\10.0.1\Source\portable\MemMang/heap_5.c **** 				{
 180:Generated_Source\PSoC6\pdl\rtos\FreeRTOS\10.0.1\Source\portable\MemMang/heap_5.c **** 					pxPreviousBlock = pxBlock;
 181:Generated_Source\PSoC6\pdl\rtos\FreeRTOS\10.0.1\Source\portable\MemMang/heap_5.c **** 					pxBlock = pxBlock->pxNextFreeBlock;
 182:Generated_Source\PSoC6\pdl\rtos\FreeRTOS\10.0.1\Source\portable\MemMang/heap_5.c **** 				}
 183:Generated_Source\PSoC6\pdl\rtos\FreeRTOS\10.0.1\Source\portable\MemMang/heap_5.c **** 
 184:Generated_Source\PSoC6\pdl\rtos\FreeRTOS\10.0.1\Source\portable\MemMang/heap_5.c **** 				/* If the end marker was reached then a block of adequate size
 185:Generated_Source\PSoC6\pdl\rtos\FreeRTOS\10.0.1\Source\portable\MemMang/heap_5.c **** 				was	not found. */
 186:Generated_Source\PSoC6\pdl\rtos\FreeRTOS\10.0.1\Source\portable\MemMang/heap_5.c **** 				if( pxBlock != pxEnd )
 187:Generated_Source\PSoC6\pdl\rtos\FreeRTOS\10.0.1\Source\portable\MemMang/heap_5.c **** 				{
 188:Generated_Source\PSoC6\pdl\rtos\FreeRTOS\10.0.1\Source\portable\MemMang/heap_5.c **** 					/* Return the memory space pointed to - jumping over the
 189:Generated_Source\PSoC6\pdl\rtos\FreeRTOS\10.0.1\Source\portable\MemMang/heap_5.c **** 					BlockLink_t structure at its start. */
 190:Generated_Source\PSoC6\pdl\rtos\FreeRTOS\10.0.1\Source\portable\MemMang/heap_5.c **** 					pvReturn = ( void * ) ( ( ( uint8_t * ) pxPreviousBlock->pxNextFreeBlock ) + xHeapStructSize )
 191:Generated_Source\PSoC6\pdl\rtos\FreeRTOS\10.0.1\Source\portable\MemMang/heap_5.c **** 
 192:Generated_Source\PSoC6\pdl\rtos\FreeRTOS\10.0.1\Source\portable\MemMang/heap_5.c **** 					/* This block is being returned for use so must be taken out
 193:Generated_Source\PSoC6\pdl\rtos\FreeRTOS\10.0.1\Source\portable\MemMang/heap_5.c **** 					of the list of free blocks. */
 194:Generated_Source\PSoC6\pdl\rtos\FreeRTOS\10.0.1\Source\portable\MemMang/heap_5.c **** 					pxPreviousBlock->pxNextFreeBlock = pxBlock->pxNextFreeBlock;
 195:Generated_Source\PSoC6\pdl\rtos\FreeRTOS\10.0.1\Source\portable\MemMang/heap_5.c **** 
 196:Generated_Source\PSoC6\pdl\rtos\FreeRTOS\10.0.1\Source\portable\MemMang/heap_5.c **** 					/* If the block is larger than required it can be split into
 197:Generated_Source\PSoC6\pdl\rtos\FreeRTOS\10.0.1\Source\portable\MemMang/heap_5.c **** 					two. */
 198:Generated_Source\PSoC6\pdl\rtos\FreeRTOS\10.0.1\Source\portable\MemMang/heap_5.c **** 					if( ( pxBlock->xBlockSize - xWantedSize ) > heapMINIMUM_BLOCK_SIZE )
 199:Generated_Source\PSoC6\pdl\rtos\FreeRTOS\10.0.1\Source\portable\MemMang/heap_5.c **** 					{
 200:Generated_Source\PSoC6\pdl\rtos\FreeRTOS\10.0.1\Source\portable\MemMang/heap_5.c **** 						/* This block is to be split into two.  Create a new
 201:Generated_Source\PSoC6\pdl\rtos\FreeRTOS\10.0.1\Source\portable\MemMang/heap_5.c **** 						block following the number of bytes requested. The void
ARM GAS  C:\Users\adris\AppData\Local\Temp\cclqLwEJ.s 			page 5


 202:Generated_Source\PSoC6\pdl\rtos\FreeRTOS\10.0.1\Source\portable\MemMang/heap_5.c **** 						cast is used to prevent byte alignment warnings from the
 203:Generated_Source\PSoC6\pdl\rtos\FreeRTOS\10.0.1\Source\portable\MemMang/heap_5.c **** 						compiler. */
 204:Generated_Source\PSoC6\pdl\rtos\FreeRTOS\10.0.1\Source\portable\MemMang/heap_5.c **** 						pxNewBlockLink = ( void * ) ( ( ( uint8_t * ) pxBlock ) + xWantedSize );
 205:Generated_Source\PSoC6\pdl\rtos\FreeRTOS\10.0.1\Source\portable\MemMang/heap_5.c **** 
 206:Generated_Source\PSoC6\pdl\rtos\FreeRTOS\10.0.1\Source\portable\MemMang/heap_5.c **** 						/* Calculate the sizes of two blocks split from the
 207:Generated_Source\PSoC6\pdl\rtos\FreeRTOS\10.0.1\Source\portable\MemMang/heap_5.c **** 						single block. */
 208:Generated_Source\PSoC6\pdl\rtos\FreeRTOS\10.0.1\Source\portable\MemMang/heap_5.c **** 						pxNewBlockLink->xBlockSize = pxBlock->xBlockSize - xWantedSize;
 209:Generated_Source\PSoC6\pdl\rtos\FreeRTOS\10.0.1\Source\portable\MemMang/heap_5.c **** 						pxBlock->xBlockSize = xWantedSize;
 210:Generated_Source\PSoC6\pdl\rtos\FreeRTOS\10.0.1\Source\portable\MemMang/heap_5.c **** 
 211:Generated_Source\PSoC6\pdl\rtos\FreeRTOS\10.0.1\Source\portable\MemMang/heap_5.c **** 						/* Insert the new block into the list of free blocks. */
 212:Generated_Source\PSoC6\pdl\rtos\FreeRTOS\10.0.1\Source\portable\MemMang/heap_5.c **** 						prvInsertBlockIntoFreeList( ( pxNewBlockLink ) );
 213:Generated_Source\PSoC6\pdl\rtos\FreeRTOS\10.0.1\Source\portable\MemMang/heap_5.c **** 					}
 214:Generated_Source\PSoC6\pdl\rtos\FreeRTOS\10.0.1\Source\portable\MemMang/heap_5.c **** 					else
 215:Generated_Source\PSoC6\pdl\rtos\FreeRTOS\10.0.1\Source\portable\MemMang/heap_5.c **** 					{
 216:Generated_Source\PSoC6\pdl\rtos\FreeRTOS\10.0.1\Source\portable\MemMang/heap_5.c **** 						mtCOVERAGE_TEST_MARKER();
 217:Generated_Source\PSoC6\pdl\rtos\FreeRTOS\10.0.1\Source\portable\MemMang/heap_5.c **** 					}
 218:Generated_Source\PSoC6\pdl\rtos\FreeRTOS\10.0.1\Source\portable\MemMang/heap_5.c **** 
 219:Generated_Source\PSoC6\pdl\rtos\FreeRTOS\10.0.1\Source\portable\MemMang/heap_5.c **** 					xFreeBytesRemaining -= pxBlock->xBlockSize;
 220:Generated_Source\PSoC6\pdl\rtos\FreeRTOS\10.0.1\Source\portable\MemMang/heap_5.c **** 
 221:Generated_Source\PSoC6\pdl\rtos\FreeRTOS\10.0.1\Source\portable\MemMang/heap_5.c **** 					if( xFreeBytesRemaining < xMinimumEverFreeBytesRemaining )
 222:Generated_Source\PSoC6\pdl\rtos\FreeRTOS\10.0.1\Source\portable\MemMang/heap_5.c **** 					{
 223:Generated_Source\PSoC6\pdl\rtos\FreeRTOS\10.0.1\Source\portable\MemMang/heap_5.c **** 						xMinimumEverFreeBytesRemaining = xFreeBytesRemaining;
 224:Generated_Source\PSoC6\pdl\rtos\FreeRTOS\10.0.1\Source\portable\MemMang/heap_5.c **** 					}
 225:Generated_Source\PSoC6\pdl\rtos\FreeRTOS\10.0.1\Source\portable\MemMang/heap_5.c **** 					else
 226:Generated_Source\PSoC6\pdl\rtos\FreeRTOS\10.0.1\Source\portable\MemMang/heap_5.c **** 					{
 227:Generated_Source\PSoC6\pdl\rtos\FreeRTOS\10.0.1\Source\portable\MemMang/heap_5.c **** 						mtCOVERAGE_TEST_MARKER();
 228:Generated_Source\PSoC6\pdl\rtos\FreeRTOS\10.0.1\Source\portable\MemMang/heap_5.c **** 					}
 229:Generated_Source\PSoC6\pdl\rtos\FreeRTOS\10.0.1\Source\portable\MemMang/heap_5.c **** 
 230:Generated_Source\PSoC6\pdl\rtos\FreeRTOS\10.0.1\Source\portable\MemMang/heap_5.c **** 					/* The block is being returned - it is allocated and owned
 231:Generated_Source\PSoC6\pdl\rtos\FreeRTOS\10.0.1\Source\portable\MemMang/heap_5.c **** 					by the application and has no "next" block. */
 232:Generated_Source\PSoC6\pdl\rtos\FreeRTOS\10.0.1\Source\portable\MemMang/heap_5.c **** 					pxBlock->xBlockSize |= xBlockAllocatedBit;
 233:Generated_Source\PSoC6\pdl\rtos\FreeRTOS\10.0.1\Source\portable\MemMang/heap_5.c **** 					pxBlock->pxNextFreeBlock = NULL;
 234:Generated_Source\PSoC6\pdl\rtos\FreeRTOS\10.0.1\Source\portable\MemMang/heap_5.c **** 				}
 235:Generated_Source\PSoC6\pdl\rtos\FreeRTOS\10.0.1\Source\portable\MemMang/heap_5.c **** 				else
 236:Generated_Source\PSoC6\pdl\rtos\FreeRTOS\10.0.1\Source\portable\MemMang/heap_5.c **** 				{
 237:Generated_Source\PSoC6\pdl\rtos\FreeRTOS\10.0.1\Source\portable\MemMang/heap_5.c **** 					mtCOVERAGE_TEST_MARKER();
 238:Generated_Source\PSoC6\pdl\rtos\FreeRTOS\10.0.1\Source\portable\MemMang/heap_5.c **** 				}
 239:Generated_Source\PSoC6\pdl\rtos\FreeRTOS\10.0.1\Source\portable\MemMang/heap_5.c **** 			}
 240:Generated_Source\PSoC6\pdl\rtos\FreeRTOS\10.0.1\Source\portable\MemMang/heap_5.c **** 			else
 241:Generated_Source\PSoC6\pdl\rtos\FreeRTOS\10.0.1\Source\portable\MemMang/heap_5.c **** 			{
 242:Generated_Source\PSoC6\pdl\rtos\FreeRTOS\10.0.1\Source\portable\MemMang/heap_5.c **** 				mtCOVERAGE_TEST_MARKER();
 243:Generated_Source\PSoC6\pdl\rtos\FreeRTOS\10.0.1\Source\portable\MemMang/heap_5.c **** 			}
 244:Generated_Source\PSoC6\pdl\rtos\FreeRTOS\10.0.1\Source\portable\MemMang/heap_5.c **** 		}
 245:Generated_Source\PSoC6\pdl\rtos\FreeRTOS\10.0.1\Source\portable\MemMang/heap_5.c **** 		else
 246:Generated_Source\PSoC6\pdl\rtos\FreeRTOS\10.0.1\Source\portable\MemMang/heap_5.c **** 		{
 247:Generated_Source\PSoC6\pdl\rtos\FreeRTOS\10.0.1\Source\portable\MemMang/heap_5.c **** 			mtCOVERAGE_TEST_MARKER();
 248:Generated_Source\PSoC6\pdl\rtos\FreeRTOS\10.0.1\Source\portable\MemMang/heap_5.c **** 		}
 249:Generated_Source\PSoC6\pdl\rtos\FreeRTOS\10.0.1\Source\portable\MemMang/heap_5.c **** 
 250:Generated_Source\PSoC6\pdl\rtos\FreeRTOS\10.0.1\Source\portable\MemMang/heap_5.c **** 		traceMALLOC( pvReturn, xWantedSize );
 251:Generated_Source\PSoC6\pdl\rtos\FreeRTOS\10.0.1\Source\portable\MemMang/heap_5.c **** 	}
 252:Generated_Source\PSoC6\pdl\rtos\FreeRTOS\10.0.1\Source\portable\MemMang/heap_5.c **** 	( void ) xTaskResumeAll();
 253:Generated_Source\PSoC6\pdl\rtos\FreeRTOS\10.0.1\Source\portable\MemMang/heap_5.c **** 
 254:Generated_Source\PSoC6\pdl\rtos\FreeRTOS\10.0.1\Source\portable\MemMang/heap_5.c **** 	#if( configUSE_MALLOC_FAILED_HOOK == 1 )
 255:Generated_Source\PSoC6\pdl\rtos\FreeRTOS\10.0.1\Source\portable\MemMang/heap_5.c **** 	{
 256:Generated_Source\PSoC6\pdl\rtos\FreeRTOS\10.0.1\Source\portable\MemMang/heap_5.c **** 		if( pvReturn == NULL )
 257:Generated_Source\PSoC6\pdl\rtos\FreeRTOS\10.0.1\Source\portable\MemMang/heap_5.c **** 		{
 258:Generated_Source\PSoC6\pdl\rtos\FreeRTOS\10.0.1\Source\portable\MemMang/heap_5.c **** 			extern void vApplicationMallocFailedHook( void );
ARM GAS  C:\Users\adris\AppData\Local\Temp\cclqLwEJ.s 			page 6


 259:Generated_Source\PSoC6\pdl\rtos\FreeRTOS\10.0.1\Source\portable\MemMang/heap_5.c **** 			vApplicationMallocFailedHook();
 260:Generated_Source\PSoC6\pdl\rtos\FreeRTOS\10.0.1\Source\portable\MemMang/heap_5.c **** 		}
 261:Generated_Source\PSoC6\pdl\rtos\FreeRTOS\10.0.1\Source\portable\MemMang/heap_5.c **** 		else
 262:Generated_Source\PSoC6\pdl\rtos\FreeRTOS\10.0.1\Source\portable\MemMang/heap_5.c **** 		{
 263:Generated_Source\PSoC6\pdl\rtos\FreeRTOS\10.0.1\Source\portable\MemMang/heap_5.c **** 			mtCOVERAGE_TEST_MARKER();
 264:Generated_Source\PSoC6\pdl\rtos\FreeRTOS\10.0.1\Source\portable\MemMang/heap_5.c **** 		}
 265:Generated_Source\PSoC6\pdl\rtos\FreeRTOS\10.0.1\Source\portable\MemMang/heap_5.c **** 	}
 266:Generated_Source\PSoC6\pdl\rtos\FreeRTOS\10.0.1\Source\portable\MemMang/heap_5.c **** 	#endif
 267:Generated_Source\PSoC6\pdl\rtos\FreeRTOS\10.0.1\Source\portable\MemMang/heap_5.c **** 
 268:Generated_Source\PSoC6\pdl\rtos\FreeRTOS\10.0.1\Source\portable\MemMang/heap_5.c **** 	return pvReturn;
 269:Generated_Source\PSoC6\pdl\rtos\FreeRTOS\10.0.1\Source\portable\MemMang/heap_5.c **** }
 270:Generated_Source\PSoC6\pdl\rtos\FreeRTOS\10.0.1\Source\portable\MemMang/heap_5.c **** /*-----------------------------------------------------------*/
 271:Generated_Source\PSoC6\pdl\rtos\FreeRTOS\10.0.1\Source\portable\MemMang/heap_5.c **** 
 272:Generated_Source\PSoC6\pdl\rtos\FreeRTOS\10.0.1\Source\portable\MemMang/heap_5.c **** void vPortFree( void *pv )
 273:Generated_Source\PSoC6\pdl\rtos\FreeRTOS\10.0.1\Source\portable\MemMang/heap_5.c **** {
 274:Generated_Source\PSoC6\pdl\rtos\FreeRTOS\10.0.1\Source\portable\MemMang/heap_5.c **** uint8_t *puc = ( uint8_t * ) pv;
 275:Generated_Source\PSoC6\pdl\rtos\FreeRTOS\10.0.1\Source\portable\MemMang/heap_5.c **** BlockLink_t *pxLink;
 276:Generated_Source\PSoC6\pdl\rtos\FreeRTOS\10.0.1\Source\portable\MemMang/heap_5.c **** 
 277:Generated_Source\PSoC6\pdl\rtos\FreeRTOS\10.0.1\Source\portable\MemMang/heap_5.c **** 	if( pv != NULL )
 278:Generated_Source\PSoC6\pdl\rtos\FreeRTOS\10.0.1\Source\portable\MemMang/heap_5.c **** 	{
 279:Generated_Source\PSoC6\pdl\rtos\FreeRTOS\10.0.1\Source\portable\MemMang/heap_5.c **** 		/* The memory being freed will have an BlockLink_t structure immediately
 280:Generated_Source\PSoC6\pdl\rtos\FreeRTOS\10.0.1\Source\portable\MemMang/heap_5.c **** 		before it. */
 281:Generated_Source\PSoC6\pdl\rtos\FreeRTOS\10.0.1\Source\portable\MemMang/heap_5.c **** 		puc -= xHeapStructSize;
 282:Generated_Source\PSoC6\pdl\rtos\FreeRTOS\10.0.1\Source\portable\MemMang/heap_5.c **** 
 283:Generated_Source\PSoC6\pdl\rtos\FreeRTOS\10.0.1\Source\portable\MemMang/heap_5.c **** 		/* This casting is to keep the compiler from issuing warnings. */
 284:Generated_Source\PSoC6\pdl\rtos\FreeRTOS\10.0.1\Source\portable\MemMang/heap_5.c **** 		pxLink = ( void * ) puc;
 285:Generated_Source\PSoC6\pdl\rtos\FreeRTOS\10.0.1\Source\portable\MemMang/heap_5.c **** 
 286:Generated_Source\PSoC6\pdl\rtos\FreeRTOS\10.0.1\Source\portable\MemMang/heap_5.c **** 		/* Check the block is actually allocated. */
 287:Generated_Source\PSoC6\pdl\rtos\FreeRTOS\10.0.1\Source\portable\MemMang/heap_5.c **** 		configASSERT( ( pxLink->xBlockSize & xBlockAllocatedBit ) != 0 );
 288:Generated_Source\PSoC6\pdl\rtos\FreeRTOS\10.0.1\Source\portable\MemMang/heap_5.c **** 		configASSERT( pxLink->pxNextFreeBlock == NULL );
 289:Generated_Source\PSoC6\pdl\rtos\FreeRTOS\10.0.1\Source\portable\MemMang/heap_5.c **** 
 290:Generated_Source\PSoC6\pdl\rtos\FreeRTOS\10.0.1\Source\portable\MemMang/heap_5.c **** 		if( ( pxLink->xBlockSize & xBlockAllocatedBit ) != 0 )
 291:Generated_Source\PSoC6\pdl\rtos\FreeRTOS\10.0.1\Source\portable\MemMang/heap_5.c **** 		{
 292:Generated_Source\PSoC6\pdl\rtos\FreeRTOS\10.0.1\Source\portable\MemMang/heap_5.c **** 			if( pxLink->pxNextFreeBlock == NULL )
 293:Generated_Source\PSoC6\pdl\rtos\FreeRTOS\10.0.1\Source\portable\MemMang/heap_5.c **** 			{
 294:Generated_Source\PSoC6\pdl\rtos\FreeRTOS\10.0.1\Source\portable\MemMang/heap_5.c **** 				/* The block is being returned to the heap - it is no longer
 295:Generated_Source\PSoC6\pdl\rtos\FreeRTOS\10.0.1\Source\portable\MemMang/heap_5.c **** 				allocated. */
 296:Generated_Source\PSoC6\pdl\rtos\FreeRTOS\10.0.1\Source\portable\MemMang/heap_5.c **** 				pxLink->xBlockSize &= ~xBlockAllocatedBit;
 297:Generated_Source\PSoC6\pdl\rtos\FreeRTOS\10.0.1\Source\portable\MemMang/heap_5.c **** 
 298:Generated_Source\PSoC6\pdl\rtos\FreeRTOS\10.0.1\Source\portable\MemMang/heap_5.c **** 				vTaskSuspendAll();
 299:Generated_Source\PSoC6\pdl\rtos\FreeRTOS\10.0.1\Source\portable\MemMang/heap_5.c **** 				{
 300:Generated_Source\PSoC6\pdl\rtos\FreeRTOS\10.0.1\Source\portable\MemMang/heap_5.c **** 					/* Add this block to the list of free blocks. */
 301:Generated_Source\PSoC6\pdl\rtos\FreeRTOS\10.0.1\Source\portable\MemMang/heap_5.c **** 					xFreeBytesRemaining += pxLink->xBlockSize;
 302:Generated_Source\PSoC6\pdl\rtos\FreeRTOS\10.0.1\Source\portable\MemMang/heap_5.c **** 					traceFREE( pv, pxLink->xBlockSize );
 303:Generated_Source\PSoC6\pdl\rtos\FreeRTOS\10.0.1\Source\portable\MemMang/heap_5.c **** 					prvInsertBlockIntoFreeList( ( ( BlockLink_t * ) pxLink ) );
 304:Generated_Source\PSoC6\pdl\rtos\FreeRTOS\10.0.1\Source\portable\MemMang/heap_5.c **** 				}
 305:Generated_Source\PSoC6\pdl\rtos\FreeRTOS\10.0.1\Source\portable\MemMang/heap_5.c **** 				( void ) xTaskResumeAll();
 306:Generated_Source\PSoC6\pdl\rtos\FreeRTOS\10.0.1\Source\portable\MemMang/heap_5.c **** 			}
 307:Generated_Source\PSoC6\pdl\rtos\FreeRTOS\10.0.1\Source\portable\MemMang/heap_5.c **** 			else
 308:Generated_Source\PSoC6\pdl\rtos\FreeRTOS\10.0.1\Source\portable\MemMang/heap_5.c **** 			{
 309:Generated_Source\PSoC6\pdl\rtos\FreeRTOS\10.0.1\Source\portable\MemMang/heap_5.c **** 				mtCOVERAGE_TEST_MARKER();
 310:Generated_Source\PSoC6\pdl\rtos\FreeRTOS\10.0.1\Source\portable\MemMang/heap_5.c **** 			}
 311:Generated_Source\PSoC6\pdl\rtos\FreeRTOS\10.0.1\Source\portable\MemMang/heap_5.c **** 		}
 312:Generated_Source\PSoC6\pdl\rtos\FreeRTOS\10.0.1\Source\portable\MemMang/heap_5.c **** 		else
 313:Generated_Source\PSoC6\pdl\rtos\FreeRTOS\10.0.1\Source\portable\MemMang/heap_5.c **** 		{
 314:Generated_Source\PSoC6\pdl\rtos\FreeRTOS\10.0.1\Source\portable\MemMang/heap_5.c **** 			mtCOVERAGE_TEST_MARKER();
 315:Generated_Source\PSoC6\pdl\rtos\FreeRTOS\10.0.1\Source\portable\MemMang/heap_5.c **** 		}
ARM GAS  C:\Users\adris\AppData\Local\Temp\cclqLwEJ.s 			page 7


 316:Generated_Source\PSoC6\pdl\rtos\FreeRTOS\10.0.1\Source\portable\MemMang/heap_5.c **** 	}
 317:Generated_Source\PSoC6\pdl\rtos\FreeRTOS\10.0.1\Source\portable\MemMang/heap_5.c **** }
 318:Generated_Source\PSoC6\pdl\rtos\FreeRTOS\10.0.1\Source\portable\MemMang/heap_5.c **** /*-----------------------------------------------------------*/
 319:Generated_Source\PSoC6\pdl\rtos\FreeRTOS\10.0.1\Source\portable\MemMang/heap_5.c **** 
 320:Generated_Source\PSoC6\pdl\rtos\FreeRTOS\10.0.1\Source\portable\MemMang/heap_5.c **** size_t xPortGetFreeHeapSize( void )
 321:Generated_Source\PSoC6\pdl\rtos\FreeRTOS\10.0.1\Source\portable\MemMang/heap_5.c **** {
 322:Generated_Source\PSoC6\pdl\rtos\FreeRTOS\10.0.1\Source\portable\MemMang/heap_5.c **** 	return xFreeBytesRemaining;
 323:Generated_Source\PSoC6\pdl\rtos\FreeRTOS\10.0.1\Source\portable\MemMang/heap_5.c **** }
 324:Generated_Source\PSoC6\pdl\rtos\FreeRTOS\10.0.1\Source\portable\MemMang/heap_5.c **** /*-----------------------------------------------------------*/
 325:Generated_Source\PSoC6\pdl\rtos\FreeRTOS\10.0.1\Source\portable\MemMang/heap_5.c **** 
 326:Generated_Source\PSoC6\pdl\rtos\FreeRTOS\10.0.1\Source\portable\MemMang/heap_5.c **** size_t xPortGetMinimumEverFreeHeapSize( void )
 327:Generated_Source\PSoC6\pdl\rtos\FreeRTOS\10.0.1\Source\portable\MemMang/heap_5.c **** {
 328:Generated_Source\PSoC6\pdl\rtos\FreeRTOS\10.0.1\Source\portable\MemMang/heap_5.c **** 	return xMinimumEverFreeBytesRemaining;
 329:Generated_Source\PSoC6\pdl\rtos\FreeRTOS\10.0.1\Source\portable\MemMang/heap_5.c **** }
 330:Generated_Source\PSoC6\pdl\rtos\FreeRTOS\10.0.1\Source\portable\MemMang/heap_5.c **** /*-----------------------------------------------------------*/
 331:Generated_Source\PSoC6\pdl\rtos\FreeRTOS\10.0.1\Source\portable\MemMang/heap_5.c **** 
 332:Generated_Source\PSoC6\pdl\rtos\FreeRTOS\10.0.1\Source\portable\MemMang/heap_5.c **** static void prvInsertBlockIntoFreeList( BlockLink_t *pxBlockToInsert )
 333:Generated_Source\PSoC6\pdl\rtos\FreeRTOS\10.0.1\Source\portable\MemMang/heap_5.c **** {
  28              		.loc 1 333 0
  29              		.cfi_startproc
  30              		@ args = 0, pretend = 0, frame = 0
  31              		@ frame_needed = 0, uses_anonymous_args = 0
  32              		@ link register save eliminated.
  33              	.LVL0:
 334:Generated_Source\PSoC6\pdl\rtos\FreeRTOS\10.0.1\Source\portable\MemMang/heap_5.c **** BlockLink_t *pxIterator;
 335:Generated_Source\PSoC6\pdl\rtos\FreeRTOS\10.0.1\Source\portable\MemMang/heap_5.c **** uint8_t *puc;
 336:Generated_Source\PSoC6\pdl\rtos\FreeRTOS\10.0.1\Source\portable\MemMang/heap_5.c **** 
 337:Generated_Source\PSoC6\pdl\rtos\FreeRTOS\10.0.1\Source\portable\MemMang/heap_5.c **** 	/* Iterate through the list until a block is found that has a higher address
 338:Generated_Source\PSoC6\pdl\rtos\FreeRTOS\10.0.1\Source\portable\MemMang/heap_5.c **** 	than the block being inserted. */
 339:Generated_Source\PSoC6\pdl\rtos\FreeRTOS\10.0.1\Source\portable\MemMang/heap_5.c **** 	for( pxIterator = &xStart; pxIterator->pxNextFreeBlock < pxBlockToInsert; pxIterator = pxIterator-
  34              		.loc 1 339 0
  35 0000 134B     		ldr	r3, .L10
  36 0002 00E0     		b	.L2
  37              	.LVL1:
  38              	.L8:
  39 0004 1346     		mov	r3, r2
  40              	.LVL2:
  41              	.L2:
  42              		.loc 1 339 0 is_stmt 0 discriminator 1
  43 0006 1A68     		ldr	r2, [r3]
  44 0008 8242     		cmp	r2, r0
  45 000a FBD3     		bcc	.L8
 333:Generated_Source\PSoC6\pdl\rtos\FreeRTOS\10.0.1\Source\portable\MemMang/heap_5.c **** BlockLink_t *pxIterator;
  46              		.loc 1 333 0 is_stmt 1
  47 000c 10B4     		push	{r4}
  48              		.cfi_def_cfa_offset 4
  49              		.cfi_offset 4, -4
  50              	.LVL3:
 340:Generated_Source\PSoC6\pdl\rtos\FreeRTOS\10.0.1\Source\portable\MemMang/heap_5.c **** 	{
 341:Generated_Source\PSoC6\pdl\rtos\FreeRTOS\10.0.1\Source\portable\MemMang/heap_5.c **** 		/* Nothing to do here, just iterate to the right position. */
 342:Generated_Source\PSoC6\pdl\rtos\FreeRTOS\10.0.1\Source\portable\MemMang/heap_5.c **** 	}
 343:Generated_Source\PSoC6\pdl\rtos\FreeRTOS\10.0.1\Source\portable\MemMang/heap_5.c **** 
 344:Generated_Source\PSoC6\pdl\rtos\FreeRTOS\10.0.1\Source\portable\MemMang/heap_5.c **** 	/* Do the block being inserted, and the block it is being inserted after
 345:Generated_Source\PSoC6\pdl\rtos\FreeRTOS\10.0.1\Source\portable\MemMang/heap_5.c **** 	make a contiguous block of memory? */
 346:Generated_Source\PSoC6\pdl\rtos\FreeRTOS\10.0.1\Source\portable\MemMang/heap_5.c **** 	puc = ( uint8_t * ) pxIterator;
 347:Generated_Source\PSoC6\pdl\rtos\FreeRTOS\10.0.1\Source\portable\MemMang/heap_5.c **** 	if( ( puc + pxIterator->xBlockSize ) == ( uint8_t * ) pxBlockToInsert )
  51              		.loc 1 347 0
ARM GAS  C:\Users\adris\AppData\Local\Temp\cclqLwEJ.s 			page 8


  52 000e 5C68     		ldr	r4, [r3, #4]
  53 0010 1919     		adds	r1, r3, r4
  54 0012 8842     		cmp	r0, r1
  55 0014 03D1     		bne	.L3
 348:Generated_Source\PSoC6\pdl\rtos\FreeRTOS\10.0.1\Source\portable\MemMang/heap_5.c **** 	{
 349:Generated_Source\PSoC6\pdl\rtos\FreeRTOS\10.0.1\Source\portable\MemMang/heap_5.c **** 		pxIterator->xBlockSize += pxBlockToInsert->xBlockSize;
  56              		.loc 1 349 0
  57 0016 4168     		ldr	r1, [r0, #4]
  58 0018 2144     		add	r1, r1, r4
  59 001a 5960     		str	r1, [r3, #4]
  60              	.LVL4:
 350:Generated_Source\PSoC6\pdl\rtos\FreeRTOS\10.0.1\Source\portable\MemMang/heap_5.c **** 		pxBlockToInsert = pxIterator;
  61              		.loc 1 350 0
  62 001c 1846     		mov	r0, r3
  63              	.LVL5:
  64              	.L3:
 351:Generated_Source\PSoC6\pdl\rtos\FreeRTOS\10.0.1\Source\portable\MemMang/heap_5.c **** 	}
 352:Generated_Source\PSoC6\pdl\rtos\FreeRTOS\10.0.1\Source\portable\MemMang/heap_5.c **** 	else
 353:Generated_Source\PSoC6\pdl\rtos\FreeRTOS\10.0.1\Source\portable\MemMang/heap_5.c **** 	{
 354:Generated_Source\PSoC6\pdl\rtos\FreeRTOS\10.0.1\Source\portable\MemMang/heap_5.c **** 		mtCOVERAGE_TEST_MARKER();
 355:Generated_Source\PSoC6\pdl\rtos\FreeRTOS\10.0.1\Source\portable\MemMang/heap_5.c **** 	}
 356:Generated_Source\PSoC6\pdl\rtos\FreeRTOS\10.0.1\Source\portable\MemMang/heap_5.c **** 
 357:Generated_Source\PSoC6\pdl\rtos\FreeRTOS\10.0.1\Source\portable\MemMang/heap_5.c **** 	/* Do the block being inserted, and the block it is being inserted before
 358:Generated_Source\PSoC6\pdl\rtos\FreeRTOS\10.0.1\Source\portable\MemMang/heap_5.c **** 	make a contiguous block of memory? */
 359:Generated_Source\PSoC6\pdl\rtos\FreeRTOS\10.0.1\Source\portable\MemMang/heap_5.c **** 	puc = ( uint8_t * ) pxBlockToInsert;
 360:Generated_Source\PSoC6\pdl\rtos\FreeRTOS\10.0.1\Source\portable\MemMang/heap_5.c **** 	if( ( puc + pxBlockToInsert->xBlockSize ) == ( uint8_t * ) pxIterator->pxNextFreeBlock )
  65              		.loc 1 360 0
  66 001e 4468     		ldr	r4, [r0, #4]
  67 0020 0119     		adds	r1, r0, r4
  68 0022 8A42     		cmp	r2, r1
  69 0024 0CD1     		bne	.L4
 361:Generated_Source\PSoC6\pdl\rtos\FreeRTOS\10.0.1\Source\portable\MemMang/heap_5.c **** 	{
 362:Generated_Source\PSoC6\pdl\rtos\FreeRTOS\10.0.1\Source\portable\MemMang/heap_5.c **** 		if( pxIterator->pxNextFreeBlock != pxEnd )
  70              		.loc 1 362 0
  71 0026 0A49     		ldr	r1, .L10
  72 0028 8968     		ldr	r1, [r1, #8]
  73 002a 8A42     		cmp	r2, r1
  74 002c 06D0     		beq	.L5
 363:Generated_Source\PSoC6\pdl\rtos\FreeRTOS\10.0.1\Source\portable\MemMang/heap_5.c **** 		{
 364:Generated_Source\PSoC6\pdl\rtos\FreeRTOS\10.0.1\Source\portable\MemMang/heap_5.c **** 			/* Form one big block from the two blocks. */
 365:Generated_Source\PSoC6\pdl\rtos\FreeRTOS\10.0.1\Source\portable\MemMang/heap_5.c **** 			pxBlockToInsert->xBlockSize += pxIterator->pxNextFreeBlock->xBlockSize;
  75              		.loc 1 365 0
  76 002e 5268     		ldr	r2, [r2, #4]
  77 0030 2244     		add	r2, r2, r4
  78 0032 4260     		str	r2, [r0, #4]
 366:Generated_Source\PSoC6\pdl\rtos\FreeRTOS\10.0.1\Source\portable\MemMang/heap_5.c **** 			pxBlockToInsert->pxNextFreeBlock = pxIterator->pxNextFreeBlock->pxNextFreeBlock;
  79              		.loc 1 366 0
  80 0034 1A68     		ldr	r2, [r3]
  81 0036 1268     		ldr	r2, [r2]
  82 0038 0260     		str	r2, [r0]
  83 003a 02E0     		b	.L6
  84              	.L5:
 367:Generated_Source\PSoC6\pdl\rtos\FreeRTOS\10.0.1\Source\portable\MemMang/heap_5.c **** 		}
 368:Generated_Source\PSoC6\pdl\rtos\FreeRTOS\10.0.1\Source\portable\MemMang/heap_5.c **** 		else
 369:Generated_Source\PSoC6\pdl\rtos\FreeRTOS\10.0.1\Source\portable\MemMang/heap_5.c **** 		{
 370:Generated_Source\PSoC6\pdl\rtos\FreeRTOS\10.0.1\Source\portable\MemMang/heap_5.c **** 			pxBlockToInsert->pxNextFreeBlock = pxEnd;
  85              		.loc 1 370 0
ARM GAS  C:\Users\adris\AppData\Local\Temp\cclqLwEJ.s 			page 9


  86 003c 0160     		str	r1, [r0]
  87 003e 00E0     		b	.L6
  88              	.L4:
 371:Generated_Source\PSoC6\pdl\rtos\FreeRTOS\10.0.1\Source\portable\MemMang/heap_5.c **** 		}
 372:Generated_Source\PSoC6\pdl\rtos\FreeRTOS\10.0.1\Source\portable\MemMang/heap_5.c **** 	}
 373:Generated_Source\PSoC6\pdl\rtos\FreeRTOS\10.0.1\Source\portable\MemMang/heap_5.c **** 	else
 374:Generated_Source\PSoC6\pdl\rtos\FreeRTOS\10.0.1\Source\portable\MemMang/heap_5.c **** 	{
 375:Generated_Source\PSoC6\pdl\rtos\FreeRTOS\10.0.1\Source\portable\MemMang/heap_5.c **** 		pxBlockToInsert->pxNextFreeBlock = pxIterator->pxNextFreeBlock;
  89              		.loc 1 375 0
  90 0040 0260     		str	r2, [r0]
  91              	.L6:
 376:Generated_Source\PSoC6\pdl\rtos\FreeRTOS\10.0.1\Source\portable\MemMang/heap_5.c **** 	}
 377:Generated_Source\PSoC6\pdl\rtos\FreeRTOS\10.0.1\Source\portable\MemMang/heap_5.c **** 
 378:Generated_Source\PSoC6\pdl\rtos\FreeRTOS\10.0.1\Source\portable\MemMang/heap_5.c **** 	/* If the block being inserted plugged a gab, so was merged with the block
 379:Generated_Source\PSoC6\pdl\rtos\FreeRTOS\10.0.1\Source\portable\MemMang/heap_5.c **** 	before and the block after, then it's pxNextFreeBlock pointer will have
 380:Generated_Source\PSoC6\pdl\rtos\FreeRTOS\10.0.1\Source\portable\MemMang/heap_5.c **** 	already been set, and should not be set here as that would make it point
 381:Generated_Source\PSoC6\pdl\rtos\FreeRTOS\10.0.1\Source\portable\MemMang/heap_5.c **** 	to itself. */
 382:Generated_Source\PSoC6\pdl\rtos\FreeRTOS\10.0.1\Source\portable\MemMang/heap_5.c **** 	if( pxIterator != pxBlockToInsert )
  92              		.loc 1 382 0
  93 0042 9842     		cmp	r0, r3
  94 0044 00D0     		beq	.L1
 383:Generated_Source\PSoC6\pdl\rtos\FreeRTOS\10.0.1\Source\portable\MemMang/heap_5.c **** 	{
 384:Generated_Source\PSoC6\pdl\rtos\FreeRTOS\10.0.1\Source\portable\MemMang/heap_5.c **** 		pxIterator->pxNextFreeBlock = pxBlockToInsert;
  95              		.loc 1 384 0
  96 0046 1860     		str	r0, [r3]
  97              	.L1:
 385:Generated_Source\PSoC6\pdl\rtos\FreeRTOS\10.0.1\Source\portable\MemMang/heap_5.c **** 	}
 386:Generated_Source\PSoC6\pdl\rtos\FreeRTOS\10.0.1\Source\portable\MemMang/heap_5.c **** 	else
 387:Generated_Source\PSoC6\pdl\rtos\FreeRTOS\10.0.1\Source\portable\MemMang/heap_5.c **** 	{
 388:Generated_Source\PSoC6\pdl\rtos\FreeRTOS\10.0.1\Source\portable\MemMang/heap_5.c **** 		mtCOVERAGE_TEST_MARKER();
 389:Generated_Source\PSoC6\pdl\rtos\FreeRTOS\10.0.1\Source\portable\MemMang/heap_5.c **** 	}
 390:Generated_Source\PSoC6\pdl\rtos\FreeRTOS\10.0.1\Source\portable\MemMang/heap_5.c **** }
  98              		.loc 1 390 0
  99 0048 5DF8044B 		ldr	r4, [sp], #4
 100              		.cfi_restore 4
 101              		.cfi_def_cfa_offset 0
 102 004c 7047     		bx	lr
 103              	.L11:
 104 004e 00BF     		.align	2
 105              	.L10:
 106 0050 00000000 		.word	.LANCHOR0
 107              		.cfi_endproc
 108              	.LFE140:
 109              		.size	prvInsertBlockIntoFreeList, .-prvInsertBlockIntoFreeList
 110              		.section	.text.pvPortMalloc,"ax",%progbits
 111              		.align	2
 112              		.global	pvPortMalloc
 113              		.thumb
 114              		.thumb_func
 115              		.type	pvPortMalloc, %function
 116              	pvPortMalloc:
 117              	.LFB136:
 133:Generated_Source\PSoC6\pdl\rtos\FreeRTOS\10.0.1\Source\portable\MemMang/heap_5.c **** BlockLink_t *pxBlock, *pxPreviousBlock, *pxNewBlockLink;
 118              		.loc 1 133 0
 119              		.cfi_startproc
 120              		@ args = 0, pretend = 0, frame = 0
 121              		@ frame_needed = 0, uses_anonymous_args = 0
ARM GAS  C:\Users\adris\AppData\Local\Temp\cclqLwEJ.s 			page 10


 122              	.LVL6:
 139:Generated_Source\PSoC6\pdl\rtos\FreeRTOS\10.0.1\Source\portable\MemMang/heap_5.c **** 
 123              		.loc 1 139 0
 124 0000 2C4B     		ldr	r3, .L27
 125 0002 9B68     		ldr	r3, [r3, #8]
 126 0004 43B9     		cbnz	r3, .L13
 127              	.LBB16:
 128              	.LBB17:
 129              		.file 2 "Generated_Source\\PSoC6\\pdl\\rtos/FreeRTOS/10.0.1/Source/portable/GCC/CM4F/portmacro.h"
   1:Generated_Source\PSoC6\pdl\rtos/FreeRTOS/10.0.1/Source/portable/GCC/CM4F/portmacro.h **** /*
   2:Generated_Source\PSoC6\pdl\rtos/FreeRTOS/10.0.1/Source/portable/GCC/CM4F/portmacro.h ****  * FreeRTOS Kernel V10.0.1
   3:Generated_Source\PSoC6\pdl\rtos/FreeRTOS/10.0.1/Source/portable/GCC/CM4F/portmacro.h ****  * Copyright (C) 2017 Amazon.com, Inc. or its affiliates.  All Rights Reserved.
   4:Generated_Source\PSoC6\pdl\rtos/FreeRTOS/10.0.1/Source/portable/GCC/CM4F/portmacro.h ****  *
   5:Generated_Source\PSoC6\pdl\rtos/FreeRTOS/10.0.1/Source/portable/GCC/CM4F/portmacro.h ****  * Permission is hereby granted, free of charge, to any person obtaining a copy of
   6:Generated_Source\PSoC6\pdl\rtos/FreeRTOS/10.0.1/Source/portable/GCC/CM4F/portmacro.h ****  * this software and associated documentation files (the "Software"), to deal in
   7:Generated_Source\PSoC6\pdl\rtos/FreeRTOS/10.0.1/Source/portable/GCC/CM4F/portmacro.h ****  * the Software without restriction, including without limitation the rights to
   8:Generated_Source\PSoC6\pdl\rtos/FreeRTOS/10.0.1/Source/portable/GCC/CM4F/portmacro.h ****  * use, copy, modify, merge, publish, distribute, sublicense, and/or sell copies of
   9:Generated_Source\PSoC6\pdl\rtos/FreeRTOS/10.0.1/Source/portable/GCC/CM4F/portmacro.h ****  * the Software, and to permit persons to whom the Software is furnished to do so,
  10:Generated_Source\PSoC6\pdl\rtos/FreeRTOS/10.0.1/Source/portable/GCC/CM4F/portmacro.h ****  * subject to the following conditions:
  11:Generated_Source\PSoC6\pdl\rtos/FreeRTOS/10.0.1/Source/portable/GCC/CM4F/portmacro.h ****  *
  12:Generated_Source\PSoC6\pdl\rtos/FreeRTOS/10.0.1/Source/portable/GCC/CM4F/portmacro.h ****  * The above copyright notice and this permission notice shall be included in all
  13:Generated_Source\PSoC6\pdl\rtos/FreeRTOS/10.0.1/Source/portable/GCC/CM4F/portmacro.h ****  * copies or substantial portions of the Software.
  14:Generated_Source\PSoC6\pdl\rtos/FreeRTOS/10.0.1/Source/portable/GCC/CM4F/portmacro.h ****  *
  15:Generated_Source\PSoC6\pdl\rtos/FreeRTOS/10.0.1/Source/portable/GCC/CM4F/portmacro.h ****  * THE SOFTWARE IS PROVIDED "AS IS", WITHOUT WARRANTY OF ANY KIND, EXPRESS OR
  16:Generated_Source\PSoC6\pdl\rtos/FreeRTOS/10.0.1/Source/portable/GCC/CM4F/portmacro.h ****  * IMPLIED, INCLUDING BUT NOT LIMITED TO THE WARRANTIES OF MERCHANTABILITY, FITNESS
  17:Generated_Source\PSoC6\pdl\rtos/FreeRTOS/10.0.1/Source/portable/GCC/CM4F/portmacro.h ****  * FOR A PARTICULAR PURPOSE AND NONINFRINGEMENT. IN NO EVENT SHALL THE AUTHORS OR
  18:Generated_Source\PSoC6\pdl\rtos/FreeRTOS/10.0.1/Source/portable/GCC/CM4F/portmacro.h ****  * COPYRIGHT HOLDERS BE LIABLE FOR ANY CLAIM, DAMAGES OR OTHER LIABILITY, WHETHER
  19:Generated_Source\PSoC6\pdl\rtos/FreeRTOS/10.0.1/Source/portable/GCC/CM4F/portmacro.h ****  * IN AN ACTION OF CONTRACT, TORT OR OTHERWISE, ARISING FROM, OUT OF OR IN
  20:Generated_Source\PSoC6\pdl\rtos/FreeRTOS/10.0.1/Source/portable/GCC/CM4F/portmacro.h ****  * CONNECTION WITH THE SOFTWARE OR THE USE OR OTHER DEALINGS IN THE SOFTWARE.
  21:Generated_Source\PSoC6\pdl\rtos/FreeRTOS/10.0.1/Source/portable/GCC/CM4F/portmacro.h ****  *
  22:Generated_Source\PSoC6\pdl\rtos/FreeRTOS/10.0.1/Source/portable/GCC/CM4F/portmacro.h ****  * http://www.FreeRTOS.org
  23:Generated_Source\PSoC6\pdl\rtos/FreeRTOS/10.0.1/Source/portable/GCC/CM4F/portmacro.h ****  * http://aws.amazon.com/freertos
  24:Generated_Source\PSoC6\pdl\rtos/FreeRTOS/10.0.1/Source/portable/GCC/CM4F/portmacro.h ****  *
  25:Generated_Source\PSoC6\pdl\rtos/FreeRTOS/10.0.1/Source/portable/GCC/CM4F/portmacro.h ****  * 1 tab == 4 spaces!
  26:Generated_Source\PSoC6\pdl\rtos/FreeRTOS/10.0.1/Source/portable/GCC/CM4F/portmacro.h ****  */
  27:Generated_Source\PSoC6\pdl\rtos/FreeRTOS/10.0.1/Source/portable/GCC/CM4F/portmacro.h **** 
  28:Generated_Source\PSoC6\pdl\rtos/FreeRTOS/10.0.1/Source/portable/GCC/CM4F/portmacro.h **** 
  29:Generated_Source\PSoC6\pdl\rtos/FreeRTOS/10.0.1/Source/portable/GCC/CM4F/portmacro.h **** #ifndef PORTMACRO_H
  30:Generated_Source\PSoC6\pdl\rtos/FreeRTOS/10.0.1/Source/portable/GCC/CM4F/portmacro.h **** #define PORTMACRO_H
  31:Generated_Source\PSoC6\pdl\rtos/FreeRTOS/10.0.1/Source/portable/GCC/CM4F/portmacro.h **** 
  32:Generated_Source\PSoC6\pdl\rtos/FreeRTOS/10.0.1/Source/portable/GCC/CM4F/portmacro.h **** #ifdef __cplusplus
  33:Generated_Source\PSoC6\pdl\rtos/FreeRTOS/10.0.1/Source/portable/GCC/CM4F/portmacro.h **** extern "C" {
  34:Generated_Source\PSoC6\pdl\rtos/FreeRTOS/10.0.1/Source/portable/GCC/CM4F/portmacro.h **** #endif
  35:Generated_Source\PSoC6\pdl\rtos/FreeRTOS/10.0.1/Source/portable/GCC/CM4F/portmacro.h **** 
  36:Generated_Source\PSoC6\pdl\rtos/FreeRTOS/10.0.1/Source/portable/GCC/CM4F/portmacro.h **** /*-----------------------------------------------------------
  37:Generated_Source\PSoC6\pdl\rtos/FreeRTOS/10.0.1/Source/portable/GCC/CM4F/portmacro.h ****  * Port specific definitions.
  38:Generated_Source\PSoC6\pdl\rtos/FreeRTOS/10.0.1/Source/portable/GCC/CM4F/portmacro.h ****  *
  39:Generated_Source\PSoC6\pdl\rtos/FreeRTOS/10.0.1/Source/portable/GCC/CM4F/portmacro.h ****  * The settings in this file configure FreeRTOS correctly for the
  40:Generated_Source\PSoC6\pdl\rtos/FreeRTOS/10.0.1/Source/portable/GCC/CM4F/portmacro.h ****  * given hardware and compiler.
  41:Generated_Source\PSoC6\pdl\rtos/FreeRTOS/10.0.1/Source/portable/GCC/CM4F/portmacro.h ****  *
  42:Generated_Source\PSoC6\pdl\rtos/FreeRTOS/10.0.1/Source/portable/GCC/CM4F/portmacro.h ****  * These settings should not be altered.
  43:Generated_Source\PSoC6\pdl\rtos/FreeRTOS/10.0.1/Source/portable/GCC/CM4F/portmacro.h ****  *-----------------------------------------------------------
  44:Generated_Source\PSoC6\pdl\rtos/FreeRTOS/10.0.1/Source/portable/GCC/CM4F/portmacro.h ****  */
  45:Generated_Source\PSoC6\pdl\rtos/FreeRTOS/10.0.1/Source/portable/GCC/CM4F/portmacro.h **** 
  46:Generated_Source\PSoC6\pdl\rtos/FreeRTOS/10.0.1/Source/portable/GCC/CM4F/portmacro.h **** /* Type definitions. */
  47:Generated_Source\PSoC6\pdl\rtos/FreeRTOS/10.0.1/Source/portable/GCC/CM4F/portmacro.h **** #define portCHAR		char
  48:Generated_Source\PSoC6\pdl\rtos/FreeRTOS/10.0.1/Source/portable/GCC/CM4F/portmacro.h **** #define portFLOAT		float
ARM GAS  C:\Users\adris\AppData\Local\Temp\cclqLwEJ.s 			page 11


  49:Generated_Source\PSoC6\pdl\rtos/FreeRTOS/10.0.1/Source/portable/GCC/CM4F/portmacro.h **** #define portDOUBLE		double
  50:Generated_Source\PSoC6\pdl\rtos/FreeRTOS/10.0.1/Source/portable/GCC/CM4F/portmacro.h **** #define portLONG		long
  51:Generated_Source\PSoC6\pdl\rtos/FreeRTOS/10.0.1/Source/portable/GCC/CM4F/portmacro.h **** #define portSHORT		short
  52:Generated_Source\PSoC6\pdl\rtos/FreeRTOS/10.0.1/Source/portable/GCC/CM4F/portmacro.h **** #define portSTACK_TYPE	uint32_t
  53:Generated_Source\PSoC6\pdl\rtos/FreeRTOS/10.0.1/Source/portable/GCC/CM4F/portmacro.h **** #define portBASE_TYPE	long
  54:Generated_Source\PSoC6\pdl\rtos/FreeRTOS/10.0.1/Source/portable/GCC/CM4F/portmacro.h **** 
  55:Generated_Source\PSoC6\pdl\rtos/FreeRTOS/10.0.1/Source/portable/GCC/CM4F/portmacro.h **** typedef portSTACK_TYPE StackType_t;
  56:Generated_Source\PSoC6\pdl\rtos/FreeRTOS/10.0.1/Source/portable/GCC/CM4F/portmacro.h **** typedef long BaseType_t;
  57:Generated_Source\PSoC6\pdl\rtos/FreeRTOS/10.0.1/Source/portable/GCC/CM4F/portmacro.h **** typedef unsigned long UBaseType_t;
  58:Generated_Source\PSoC6\pdl\rtos/FreeRTOS/10.0.1/Source/portable/GCC/CM4F/portmacro.h **** 
  59:Generated_Source\PSoC6\pdl\rtos/FreeRTOS/10.0.1/Source/portable/GCC/CM4F/portmacro.h **** #if( configUSE_16_BIT_TICKS == 1 )
  60:Generated_Source\PSoC6\pdl\rtos/FreeRTOS/10.0.1/Source/portable/GCC/CM4F/portmacro.h **** 	typedef uint16_t TickType_t;
  61:Generated_Source\PSoC6\pdl\rtos/FreeRTOS/10.0.1/Source/portable/GCC/CM4F/portmacro.h **** 	#define portMAX_DELAY ( TickType_t ) 0xffff
  62:Generated_Source\PSoC6\pdl\rtos/FreeRTOS/10.0.1/Source/portable/GCC/CM4F/portmacro.h **** #else
  63:Generated_Source\PSoC6\pdl\rtos/FreeRTOS/10.0.1/Source/portable/GCC/CM4F/portmacro.h **** 	typedef uint32_t TickType_t;
  64:Generated_Source\PSoC6\pdl\rtos/FreeRTOS/10.0.1/Source/portable/GCC/CM4F/portmacro.h **** 	#define portMAX_DELAY ( TickType_t ) 0xffffffffUL
  65:Generated_Source\PSoC6\pdl\rtos/FreeRTOS/10.0.1/Source/portable/GCC/CM4F/portmacro.h **** 
  66:Generated_Source\PSoC6\pdl\rtos/FreeRTOS/10.0.1/Source/portable/GCC/CM4F/portmacro.h **** 	/* 32-bit tick type on a 32-bit architecture, so reads of the tick count do
  67:Generated_Source\PSoC6\pdl\rtos/FreeRTOS/10.0.1/Source/portable/GCC/CM4F/portmacro.h **** 	not need to be guarded with a critical section. */
  68:Generated_Source\PSoC6\pdl\rtos/FreeRTOS/10.0.1/Source/portable/GCC/CM4F/portmacro.h **** 	#define portTICK_TYPE_IS_ATOMIC 1
  69:Generated_Source\PSoC6\pdl\rtos/FreeRTOS/10.0.1/Source/portable/GCC/CM4F/portmacro.h **** #endif
  70:Generated_Source\PSoC6\pdl\rtos/FreeRTOS/10.0.1/Source/portable/GCC/CM4F/portmacro.h **** /*-----------------------------------------------------------*/
  71:Generated_Source\PSoC6\pdl\rtos/FreeRTOS/10.0.1/Source/portable/GCC/CM4F/portmacro.h **** 
  72:Generated_Source\PSoC6\pdl\rtos/FreeRTOS/10.0.1/Source/portable/GCC/CM4F/portmacro.h **** /* Architecture specifics. */
  73:Generated_Source\PSoC6\pdl\rtos/FreeRTOS/10.0.1/Source/portable/GCC/CM4F/portmacro.h **** #define portSTACK_GROWTH			( -1 )
  74:Generated_Source\PSoC6\pdl\rtos/FreeRTOS/10.0.1/Source/portable/GCC/CM4F/portmacro.h **** #define portTICK_PERIOD_MS			( ( TickType_t ) 1000 / configTICK_RATE_HZ )
  75:Generated_Source\PSoC6\pdl\rtos/FreeRTOS/10.0.1/Source/portable/GCC/CM4F/portmacro.h **** #define portBYTE_ALIGNMENT			8
  76:Generated_Source\PSoC6\pdl\rtos/FreeRTOS/10.0.1/Source/portable/GCC/CM4F/portmacro.h **** /*-----------------------------------------------------------*/
  77:Generated_Source\PSoC6\pdl\rtos/FreeRTOS/10.0.1/Source/portable/GCC/CM4F/portmacro.h **** 
  78:Generated_Source\PSoC6\pdl\rtos/FreeRTOS/10.0.1/Source/portable/GCC/CM4F/portmacro.h **** /* Scheduler utilities. */
  79:Generated_Source\PSoC6\pdl\rtos/FreeRTOS/10.0.1/Source/portable/GCC/CM4F/portmacro.h **** #define portYIELD() 															\
  80:Generated_Source\PSoC6\pdl\rtos/FreeRTOS/10.0.1/Source/portable/GCC/CM4F/portmacro.h **** {																				\
  81:Generated_Source\PSoC6\pdl\rtos/FreeRTOS/10.0.1/Source/portable/GCC/CM4F/portmacro.h **** 	/* Set a PendSV to request a context switch. */								\
  82:Generated_Source\PSoC6\pdl\rtos/FreeRTOS/10.0.1/Source/portable/GCC/CM4F/portmacro.h **** 	portNVIC_INT_CTRL_REG = portNVIC_PENDSVSET_BIT;								\
  83:Generated_Source\PSoC6\pdl\rtos/FreeRTOS/10.0.1/Source/portable/GCC/CM4F/portmacro.h **** 																				\
  84:Generated_Source\PSoC6\pdl\rtos/FreeRTOS/10.0.1/Source/portable/GCC/CM4F/portmacro.h **** 	/* Barriers are normally not required but do ensure the code is completely	\
  85:Generated_Source\PSoC6\pdl\rtos/FreeRTOS/10.0.1/Source/portable/GCC/CM4F/portmacro.h **** 	within the specified behaviour for the architecture. */						\
  86:Generated_Source\PSoC6\pdl\rtos/FreeRTOS/10.0.1/Source/portable/GCC/CM4F/portmacro.h **** 	__asm volatile( "dsb" ::: "memory" );										\
  87:Generated_Source\PSoC6\pdl\rtos/FreeRTOS/10.0.1/Source/portable/GCC/CM4F/portmacro.h **** 	__asm volatile( "isb" );													\
  88:Generated_Source\PSoC6\pdl\rtos/FreeRTOS/10.0.1/Source/portable/GCC/CM4F/portmacro.h **** }
  89:Generated_Source\PSoC6\pdl\rtos/FreeRTOS/10.0.1/Source/portable/GCC/CM4F/portmacro.h **** 
  90:Generated_Source\PSoC6\pdl\rtos/FreeRTOS/10.0.1/Source/portable/GCC/CM4F/portmacro.h **** #define portNVIC_INT_CTRL_REG		( * ( ( volatile uint32_t * ) 0xe000ed04 ) )
  91:Generated_Source\PSoC6\pdl\rtos/FreeRTOS/10.0.1/Source/portable/GCC/CM4F/portmacro.h **** #define portNVIC_PENDSVSET_BIT		( 1UL << 28UL )
  92:Generated_Source\PSoC6\pdl\rtos/FreeRTOS/10.0.1/Source/portable/GCC/CM4F/portmacro.h **** #define portEND_SWITCHING_ISR( xSwitchRequired ) if( xSwitchRequired != pdFALSE ) portYIELD()
  93:Generated_Source\PSoC6\pdl\rtos/FreeRTOS/10.0.1/Source/portable/GCC/CM4F/portmacro.h **** #define portYIELD_FROM_ISR( x ) portEND_SWITCHING_ISR( x )
  94:Generated_Source\PSoC6\pdl\rtos/FreeRTOS/10.0.1/Source/portable/GCC/CM4F/portmacro.h **** /*-----------------------------------------------------------*/
  95:Generated_Source\PSoC6\pdl\rtos/FreeRTOS/10.0.1/Source/portable/GCC/CM4F/portmacro.h **** 
  96:Generated_Source\PSoC6\pdl\rtos/FreeRTOS/10.0.1/Source/portable/GCC/CM4F/portmacro.h **** /* Critical section management. */
  97:Generated_Source\PSoC6\pdl\rtos/FreeRTOS/10.0.1/Source/portable/GCC/CM4F/portmacro.h **** extern void vPortEnterCritical( void );
  98:Generated_Source\PSoC6\pdl\rtos/FreeRTOS/10.0.1/Source/portable/GCC/CM4F/portmacro.h **** extern void vPortExitCritical( void );
  99:Generated_Source\PSoC6\pdl\rtos/FreeRTOS/10.0.1/Source/portable/GCC/CM4F/portmacro.h **** #define portSET_INTERRUPT_MASK_FROM_ISR()		ulPortRaiseBASEPRI()
 100:Generated_Source\PSoC6\pdl\rtos/FreeRTOS/10.0.1/Source/portable/GCC/CM4F/portmacro.h **** #define portCLEAR_INTERRUPT_MASK_FROM_ISR(x)	vPortSetBASEPRI(x)
 101:Generated_Source\PSoC6\pdl\rtos/FreeRTOS/10.0.1/Source/portable/GCC/CM4F/portmacro.h **** #define portDISABLE_INTERRUPTS()				vPortRaiseBASEPRI()
 102:Generated_Source\PSoC6\pdl\rtos/FreeRTOS/10.0.1/Source/portable/GCC/CM4F/portmacro.h **** #define portENABLE_INTERRUPTS()					vPortSetBASEPRI(0)
 103:Generated_Source\PSoC6\pdl\rtos/FreeRTOS/10.0.1/Source/portable/GCC/CM4F/portmacro.h **** #define portENTER_CRITICAL()					vPortEnterCritical()
 104:Generated_Source\PSoC6\pdl\rtos/FreeRTOS/10.0.1/Source/portable/GCC/CM4F/portmacro.h **** #define portEXIT_CRITICAL()						vPortExitCritical()
 105:Generated_Source\PSoC6\pdl\rtos/FreeRTOS/10.0.1/Source/portable/GCC/CM4F/portmacro.h **** 
ARM GAS  C:\Users\adris\AppData\Local\Temp\cclqLwEJ.s 			page 12


 106:Generated_Source\PSoC6\pdl\rtos/FreeRTOS/10.0.1/Source/portable/GCC/CM4F/portmacro.h **** /*-----------------------------------------------------------*/
 107:Generated_Source\PSoC6\pdl\rtos/FreeRTOS/10.0.1/Source/portable/GCC/CM4F/portmacro.h **** 
 108:Generated_Source\PSoC6\pdl\rtos/FreeRTOS/10.0.1/Source/portable/GCC/CM4F/portmacro.h **** /* Task function macros as described on the FreeRTOS.org WEB site.  These are
 109:Generated_Source\PSoC6\pdl\rtos/FreeRTOS/10.0.1/Source/portable/GCC/CM4F/portmacro.h **** not necessary for to use this port.  They are defined so the common demo files
 110:Generated_Source\PSoC6\pdl\rtos/FreeRTOS/10.0.1/Source/portable/GCC/CM4F/portmacro.h **** (which build with all the ports) will build. */
 111:Generated_Source\PSoC6\pdl\rtos/FreeRTOS/10.0.1/Source/portable/GCC/CM4F/portmacro.h **** #define portTASK_FUNCTION_PROTO( vFunction, pvParameters ) void vFunction( void *pvParameters )
 112:Generated_Source\PSoC6\pdl\rtos/FreeRTOS/10.0.1/Source/portable/GCC/CM4F/portmacro.h **** #define portTASK_FUNCTION( vFunction, pvParameters ) void vFunction( void *pvParameters )
 113:Generated_Source\PSoC6\pdl\rtos/FreeRTOS/10.0.1/Source/portable/GCC/CM4F/portmacro.h **** 
 114:Generated_Source\PSoC6\pdl\rtos/FreeRTOS/10.0.1/Source/portable/GCC/CM4F/portmacro.h **** /*-----------------------------------------------------------*/
 115:Generated_Source\PSoC6\pdl\rtos/FreeRTOS/10.0.1/Source/portable/GCC/CM4F/portmacro.h **** 
 116:Generated_Source\PSoC6\pdl\rtos/FreeRTOS/10.0.1/Source/portable/GCC/CM4F/portmacro.h **** #ifdef configASSERT
 117:Generated_Source\PSoC6\pdl\rtos/FreeRTOS/10.0.1/Source/portable/GCC/CM4F/portmacro.h **** 	void vPortValidateInterruptPriority( void );
 118:Generated_Source\PSoC6\pdl\rtos/FreeRTOS/10.0.1/Source/portable/GCC/CM4F/portmacro.h **** 	#define portASSERT_IF_INTERRUPT_PRIORITY_INVALID() 	vPortValidateInterruptPriority()
 119:Generated_Source\PSoC6\pdl\rtos/FreeRTOS/10.0.1/Source/portable/GCC/CM4F/portmacro.h **** #endif
 120:Generated_Source\PSoC6\pdl\rtos/FreeRTOS/10.0.1/Source/portable/GCC/CM4F/portmacro.h **** 
 121:Generated_Source\PSoC6\pdl\rtos/FreeRTOS/10.0.1/Source/portable/GCC/CM4F/portmacro.h **** /* portNOP() is not required by this port. */
 122:Generated_Source\PSoC6\pdl\rtos/FreeRTOS/10.0.1/Source/portable/GCC/CM4F/portmacro.h **** #define portNOP()
 123:Generated_Source\PSoC6\pdl\rtos/FreeRTOS/10.0.1/Source/portable/GCC/CM4F/portmacro.h **** 
 124:Generated_Source\PSoC6\pdl\rtos/FreeRTOS/10.0.1/Source/portable/GCC/CM4F/portmacro.h **** #define portINLINE	__inline
 125:Generated_Source\PSoC6\pdl\rtos/FreeRTOS/10.0.1/Source/portable/GCC/CM4F/portmacro.h **** 
 126:Generated_Source\PSoC6\pdl\rtos/FreeRTOS/10.0.1/Source/portable/GCC/CM4F/portmacro.h **** #ifndef portFORCE_INLINE
 127:Generated_Source\PSoC6\pdl\rtos/FreeRTOS/10.0.1/Source/portable/GCC/CM4F/portmacro.h **** 	#define portFORCE_INLINE inline __attribute__(( always_inline))
 128:Generated_Source\PSoC6\pdl\rtos/FreeRTOS/10.0.1/Source/portable/GCC/CM4F/portmacro.h **** #endif
 129:Generated_Source\PSoC6\pdl\rtos/FreeRTOS/10.0.1/Source/portable/GCC/CM4F/portmacro.h **** 
 130:Generated_Source\PSoC6\pdl\rtos/FreeRTOS/10.0.1/Source/portable/GCC/CM4F/portmacro.h **** portFORCE_INLINE static BaseType_t xPortIsInsideInterrupt( void )
 131:Generated_Source\PSoC6\pdl\rtos/FreeRTOS/10.0.1/Source/portable/GCC/CM4F/portmacro.h **** {
 132:Generated_Source\PSoC6\pdl\rtos/FreeRTOS/10.0.1/Source/portable/GCC/CM4F/portmacro.h **** uint32_t ulCurrentInterrupt;
 133:Generated_Source\PSoC6\pdl\rtos/FreeRTOS/10.0.1/Source/portable/GCC/CM4F/portmacro.h **** BaseType_t xReturn;
 134:Generated_Source\PSoC6\pdl\rtos/FreeRTOS/10.0.1/Source/portable/GCC/CM4F/portmacro.h **** 
 135:Generated_Source\PSoC6\pdl\rtos/FreeRTOS/10.0.1/Source/portable/GCC/CM4F/portmacro.h **** 	/* Obtain the number of the currently executing interrupt. */
 136:Generated_Source\PSoC6\pdl\rtos/FreeRTOS/10.0.1/Source/portable/GCC/CM4F/portmacro.h **** 	__asm volatile( "mrs %0, ipsr" : "=r"( ulCurrentInterrupt ) :: "memory" );
 137:Generated_Source\PSoC6\pdl\rtos/FreeRTOS/10.0.1/Source/portable/GCC/CM4F/portmacro.h **** 
 138:Generated_Source\PSoC6\pdl\rtos/FreeRTOS/10.0.1/Source/portable/GCC/CM4F/portmacro.h **** 	if( ulCurrentInterrupt == 0 )
 139:Generated_Source\PSoC6\pdl\rtos/FreeRTOS/10.0.1/Source/portable/GCC/CM4F/portmacro.h **** 	{
 140:Generated_Source\PSoC6\pdl\rtos/FreeRTOS/10.0.1/Source/portable/GCC/CM4F/portmacro.h **** 		xReturn = pdFALSE;
 141:Generated_Source\PSoC6\pdl\rtos/FreeRTOS/10.0.1/Source/portable/GCC/CM4F/portmacro.h **** 	}
 142:Generated_Source\PSoC6\pdl\rtos/FreeRTOS/10.0.1/Source/portable/GCC/CM4F/portmacro.h **** 	else
 143:Generated_Source\PSoC6\pdl\rtos/FreeRTOS/10.0.1/Source/portable/GCC/CM4F/portmacro.h **** 	{
 144:Generated_Source\PSoC6\pdl\rtos/FreeRTOS/10.0.1/Source/portable/GCC/CM4F/portmacro.h **** 		xReturn = pdTRUE;
 145:Generated_Source\PSoC6\pdl\rtos/FreeRTOS/10.0.1/Source/portable/GCC/CM4F/portmacro.h **** 	}
 146:Generated_Source\PSoC6\pdl\rtos/FreeRTOS/10.0.1/Source/portable/GCC/CM4F/portmacro.h **** 
 147:Generated_Source\PSoC6\pdl\rtos/FreeRTOS/10.0.1/Source/portable/GCC/CM4F/portmacro.h **** 	return xReturn;
 148:Generated_Source\PSoC6\pdl\rtos/FreeRTOS/10.0.1/Source/portable/GCC/CM4F/portmacro.h **** }
 149:Generated_Source\PSoC6\pdl\rtos/FreeRTOS/10.0.1/Source/portable/GCC/CM4F/portmacro.h **** 
 150:Generated_Source\PSoC6\pdl\rtos/FreeRTOS/10.0.1/Source/portable/GCC/CM4F/portmacro.h **** /*-----------------------------------------------------------*/
 151:Generated_Source\PSoC6\pdl\rtos/FreeRTOS/10.0.1/Source/portable/GCC/CM4F/portmacro.h **** 
 152:Generated_Source\PSoC6\pdl\rtos/FreeRTOS/10.0.1/Source/portable/GCC/CM4F/portmacro.h **** portFORCE_INLINE static void vPortRaiseBASEPRI( void )
 153:Generated_Source\PSoC6\pdl\rtos/FreeRTOS/10.0.1/Source/portable/GCC/CM4F/portmacro.h **** {
 154:Generated_Source\PSoC6\pdl\rtos/FreeRTOS/10.0.1/Source/portable/GCC/CM4F/portmacro.h **** uint32_t ulNewBASEPRI;
 155:Generated_Source\PSoC6\pdl\rtos/FreeRTOS/10.0.1/Source/portable/GCC/CM4F/portmacro.h **** 
 156:Generated_Source\PSoC6\pdl\rtos/FreeRTOS/10.0.1/Source/portable/GCC/CM4F/portmacro.h **** 	__asm volatile
 130              		.loc 2 156 0
 131              		.syntax unified
 132              	@ 156 "Generated_Source\PSoC6\pdl\rtos/FreeRTOS/10.0.1/Source/portable/GCC/CM4F/portmacro.h" 1
 133 0006 4FF03F03 			mov r3, #63												
 134 000a 83F31188 		msr basepri, r3											
 135 000e BFF36F8F 		isb														
ARM GAS  C:\Users\adris\AppData\Local\Temp\cclqLwEJ.s 			page 13


 136 0012 BFF34F8F 		dsb														
 137              	
 138              	@ 0 "" 2
 139              	.LVL7:
 140              		.thumb
 141              		.syntax unified
 142              	.L14:
 143 0016 FEE7     		b	.L14
 144              	.L13:
 145              	.LBE17:
 146              	.LBE16:
 133:Generated_Source\PSoC6\pdl\rtos\FreeRTOS\10.0.1\Source\portable\MemMang/heap_5.c **** BlockLink_t *pxBlock, *pxPreviousBlock, *pxNewBlockLink;
 147              		.loc 1 133 0
 148 0018 70B5     		push	{r4, r5, r6, lr}
 149              		.cfi_def_cfa_offset 16
 150              		.cfi_offset 4, -16
 151              		.cfi_offset 5, -12
 152              		.cfi_offset 6, -8
 153              		.cfi_offset 14, -4
 154 001a 0446     		mov	r4, r0
 141:Generated_Source\PSoC6\pdl\rtos\FreeRTOS\10.0.1\Source\portable\MemMang/heap_5.c **** 	{
 155              		.loc 1 141 0
 156 001c FFF7FEFF 		bl	vTaskSuspendAll
 157              	.LVL8:
 147:Generated_Source\PSoC6\pdl\rtos\FreeRTOS\10.0.1\Source\portable\MemMang/heap_5.c **** 		{
 158              		.loc 1 147 0
 159 0020 244B     		ldr	r3, .L27
 160 0022 DB68     		ldr	r3, [r3, #12]
 161 0024 1C42     		tst	r4, r3
 162 0026 3AD1     		bne	.L21
 151:Generated_Source\PSoC6\pdl\rtos\FreeRTOS\10.0.1\Source\portable\MemMang/heap_5.c **** 			{
 163              		.loc 1 151 0
 164 0028 34B1     		cbz	r4, .L16
 153:Generated_Source\PSoC6\pdl\rtos\FreeRTOS\10.0.1\Source\portable\MemMang/heap_5.c **** 
 165              		.loc 1 153 0
 166 002a 0834     		adds	r4, r4, #8
 167              	.LVL9:
 157:Generated_Source\PSoC6\pdl\rtos\FreeRTOS\10.0.1\Source\portable\MemMang/heap_5.c **** 				{
 168              		.loc 1 157 0
 169 002c 14F0070F 		tst	r4, #7
 170 0030 02D0     		beq	.L16
 160:Generated_Source\PSoC6\pdl\rtos\FreeRTOS\10.0.1\Source\portable\MemMang/heap_5.c **** 				}
 171              		.loc 1 160 0
 172 0032 24F00704 		bic	r4, r4, #7
 173              	.LVL10:
 174 0036 0834     		adds	r4, r4, #8
 175              	.LVL11:
 176              	.L16:
 172:Generated_Source\PSoC6\pdl\rtos\FreeRTOS\10.0.1\Source\portable\MemMang/heap_5.c **** 			{
 177              		.loc 1 172 0
 178 0038 002C     		cmp	r4, #0
 179 003a 32D0     		beq	.L22
 172:Generated_Source\PSoC6\pdl\rtos\FreeRTOS\10.0.1\Source\portable\MemMang/heap_5.c **** 			{
 180              		.loc 1 172 0 is_stmt 0 discriminator 1
 181 003c 1D4B     		ldr	r3, .L27
 182 003e 1B69     		ldr	r3, [r3, #16]
 183 0040 9C42     		cmp	r4, r3
ARM GAS  C:\Users\adris\AppData\Local\Temp\cclqLwEJ.s 			page 14


 184 0042 30D8     		bhi	.L23
 185              	.LVL12:
 177:Generated_Source\PSoC6\pdl\rtos\FreeRTOS\10.0.1\Source\portable\MemMang/heap_5.c **** 				while( ( pxBlock->xBlockSize < xWantedSize ) && ( pxBlock->pxNextFreeBlock != NULL ) )
 186              		.loc 1 177 0 is_stmt 1
 187 0044 1B4B     		ldr	r3, .L27
 188 0046 1D68     		ldr	r5, [r3]
 189              	.LVL13:
 178:Generated_Source\PSoC6\pdl\rtos\FreeRTOS\10.0.1\Source\portable\MemMang/heap_5.c **** 				{
 190              		.loc 1 178 0
 191 0048 01E0     		b	.L18
 192              	.LVL14:
 193              	.L24:
 180:Generated_Source\PSoC6\pdl\rtos\FreeRTOS\10.0.1\Source\portable\MemMang/heap_5.c **** 					pxBlock = pxBlock->pxNextFreeBlock;
 194              		.loc 1 180 0
 195 004a 2B46     		mov	r3, r5
 196              	.LVL15:
 181:Generated_Source\PSoC6\pdl\rtos\FreeRTOS\10.0.1\Source\portable\MemMang/heap_5.c **** 				}
 197              		.loc 1 181 0
 198 004c 1546     		mov	r5, r2
 199              	.LVL16:
 200              	.L18:
 178:Generated_Source\PSoC6\pdl\rtos\FreeRTOS\10.0.1\Source\portable\MemMang/heap_5.c **** 				{
 201              		.loc 1 178 0
 202 004e 6A68     		ldr	r2, [r5, #4]
 203 0050 9442     		cmp	r4, r2
 204 0052 02D9     		bls	.L17
 178:Generated_Source\PSoC6\pdl\rtos\FreeRTOS\10.0.1\Source\portable\MemMang/heap_5.c **** 				{
 205              		.loc 1 178 0 is_stmt 0 discriminator 1
 206 0054 2A68     		ldr	r2, [r5]
 207 0056 002A     		cmp	r2, #0
 208 0058 F7D1     		bne	.L24
 209              	.L17:
 186:Generated_Source\PSoC6\pdl\rtos\FreeRTOS\10.0.1\Source\portable\MemMang/heap_5.c **** 				{
 210              		.loc 1 186 0 is_stmt 1
 211 005a 164A     		ldr	r2, .L27
 212 005c 9268     		ldr	r2, [r2, #8]
 213 005e 9542     		cmp	r5, r2
 214 0060 23D0     		beq	.L25
 190:Generated_Source\PSoC6\pdl\rtos\FreeRTOS\10.0.1\Source\portable\MemMang/heap_5.c **** 
 215              		.loc 1 190 0
 216 0062 1E68     		ldr	r6, [r3]
 217 0064 0836     		adds	r6, r6, #8
 218              	.LVL17:
 194:Generated_Source\PSoC6\pdl\rtos\FreeRTOS\10.0.1\Source\portable\MemMang/heap_5.c **** 
 219              		.loc 1 194 0
 220 0066 2A68     		ldr	r2, [r5]
 221 0068 1A60     		str	r2, [r3]
 198:Generated_Source\PSoC6\pdl\rtos\FreeRTOS\10.0.1\Source\portable\MemMang/heap_5.c **** 					{
 222              		.loc 1 198 0
 223 006a 6B68     		ldr	r3, [r5, #4]
 224              	.LVL18:
 225 006c 1B1B     		subs	r3, r3, r4
 226 006e 102B     		cmp	r3, #16
 227 0070 04D9     		bls	.L19
 204:Generated_Source\PSoC6\pdl\rtos\FreeRTOS\10.0.1\Source\portable\MemMang/heap_5.c **** 
 228              		.loc 1 204 0
 229 0072 2819     		adds	r0, r5, r4
ARM GAS  C:\Users\adris\AppData\Local\Temp\cclqLwEJ.s 			page 15


 230              	.LVL19:
 208:Generated_Source\PSoC6\pdl\rtos\FreeRTOS\10.0.1\Source\portable\MemMang/heap_5.c **** 						pxBlock->xBlockSize = xWantedSize;
 231              		.loc 1 208 0
 232 0074 4360     		str	r3, [r0, #4]
 209:Generated_Source\PSoC6\pdl\rtos\FreeRTOS\10.0.1\Source\portable\MemMang/heap_5.c **** 
 233              		.loc 1 209 0
 234 0076 6C60     		str	r4, [r5, #4]
 212:Generated_Source\PSoC6\pdl\rtos\FreeRTOS\10.0.1\Source\portable\MemMang/heap_5.c **** 					}
 235              		.loc 1 212 0
 236 0078 FFF7FEFF 		bl	prvInsertBlockIntoFreeList
 237              	.LVL20:
 238              	.L19:
 219:Generated_Source\PSoC6\pdl\rtos\FreeRTOS\10.0.1\Source\portable\MemMang/heap_5.c **** 
 239              		.loc 1 219 0
 240 007c 6A68     		ldr	r2, [r5, #4]
 241 007e 0D49     		ldr	r1, .L27
 242 0080 0B69     		ldr	r3, [r1, #16]
 243 0082 9B1A     		subs	r3, r3, r2
 244 0084 0B61     		str	r3, [r1, #16]
 221:Generated_Source\PSoC6\pdl\rtos\FreeRTOS\10.0.1\Source\portable\MemMang/heap_5.c **** 					{
 245              		.loc 1 221 0
 246 0086 4969     		ldr	r1, [r1, #20]
 247 0088 8B42     		cmp	r3, r1
 248 008a 01D2     		bcs	.L20
 223:Generated_Source\PSoC6\pdl\rtos\FreeRTOS\10.0.1\Source\portable\MemMang/heap_5.c **** 					}
 249              		.loc 1 223 0
 250 008c 0949     		ldr	r1, .L27
 251 008e 4B61     		str	r3, [r1, #20]
 252              	.L20:
 232:Generated_Source\PSoC6\pdl\rtos\FreeRTOS\10.0.1\Source\portable\MemMang/heap_5.c **** 					pxBlock->pxNextFreeBlock = NULL;
 253              		.loc 1 232 0
 254 0090 084B     		ldr	r3, .L27
 255 0092 DB68     		ldr	r3, [r3, #12]
 256 0094 1A43     		orrs	r2, r2, r3
 257 0096 6A60     		str	r2, [r5, #4]
 233:Generated_Source\PSoC6\pdl\rtos\FreeRTOS\10.0.1\Source\portable\MemMang/heap_5.c **** 				}
 258              		.loc 1 233 0
 259 0098 0023     		movs	r3, #0
 260 009a 2B60     		str	r3, [r5]
 261 009c 06E0     		b	.L15
 262              	.LVL21:
 263              	.L21:
 135:Generated_Source\PSoC6\pdl\rtos\FreeRTOS\10.0.1\Source\portable\MemMang/heap_5.c **** 
 264              		.loc 1 135 0
 265 009e 0026     		movs	r6, #0
 266 00a0 04E0     		b	.L15
 267              	.L22:
 268 00a2 0026     		movs	r6, #0
 269 00a4 02E0     		b	.L15
 270              	.L23:
 271 00a6 0026     		movs	r6, #0
 272 00a8 00E0     		b	.L15
 273              	.LVL22:
 274              	.L25:
 275 00aa 0026     		movs	r6, #0
 276              	.LVL23:
 277              	.L15:
ARM GAS  C:\Users\adris\AppData\Local\Temp\cclqLwEJ.s 			page 16


 252:Generated_Source\PSoC6\pdl\rtos\FreeRTOS\10.0.1\Source\portable\MemMang/heap_5.c **** 
 278              		.loc 1 252 0
 279 00ac FFF7FEFF 		bl	xTaskResumeAll
 280              	.LVL24:
 269:Generated_Source\PSoC6\pdl\rtos\FreeRTOS\10.0.1\Source\portable\MemMang/heap_5.c **** /*-----------------------------------------------------------*/
 281              		.loc 1 269 0
 282 00b0 3046     		mov	r0, r6
 283 00b2 70BD     		pop	{r4, r5, r6, pc}
 284              	.LVL25:
 285              	.L28:
 286              		.align	2
 287              	.L27:
 288 00b4 00000000 		.word	.LANCHOR0
 289              		.cfi_endproc
 290              	.LFE136:
 291              		.size	pvPortMalloc, .-pvPortMalloc
 292              		.section	.text.vPortFree,"ax",%progbits
 293              		.align	2
 294              		.global	vPortFree
 295              		.thumb
 296              		.thumb_func
 297              		.type	vPortFree, %function
 298              	vPortFree:
 299              	.LFB137:
 273:Generated_Source\PSoC6\pdl\rtos\FreeRTOS\10.0.1\Source\portable\MemMang/heap_5.c **** uint8_t *puc = ( uint8_t * ) pv;
 300              		.loc 1 273 0
 301              		.cfi_startproc
 302              		@ args = 0, pretend = 0, frame = 0
 303              		@ frame_needed = 0, uses_anonymous_args = 0
 304              	.LVL26:
 277:Generated_Source\PSoC6\pdl\rtos\FreeRTOS\10.0.1\Source\portable\MemMang/heap_5.c **** 	{
 305              		.loc 1 277 0
 306 0000 A0B3     		cbz	r0, .L36
 273:Generated_Source\PSoC6\pdl\rtos\FreeRTOS\10.0.1\Source\portable\MemMang/heap_5.c **** uint8_t *puc = ( uint8_t * ) pv;
 307              		.loc 1 273 0
 308 0002 38B5     		push	{r3, r4, r5, lr}
 309              		.cfi_def_cfa_offset 16
 310              		.cfi_offset 3, -16
 311              		.cfi_offset 4, -12
 312              		.cfi_offset 5, -8
 313              		.cfi_offset 14, -4
 314 0004 0346     		mov	r3, r0
 281:Generated_Source\PSoC6\pdl\rtos\FreeRTOS\10.0.1\Source\portable\MemMang/heap_5.c **** 
 315              		.loc 1 281 0
 316 0006 A0F10805 		sub	r5, r0, #8
 317              	.LVL27:
 287:Generated_Source\PSoC6\pdl\rtos\FreeRTOS\10.0.1\Source\portable\MemMang/heap_5.c **** 		configASSERT( pxLink->pxNextFreeBlock == NULL );
 318              		.loc 1 287 0
 319 000a 50F8042C 		ldr	r2, [r0, #-4]
 320 000e 1849     		ldr	r1, .L37
 321 0010 C968     		ldr	r1, [r1, #12]
 322 0012 12EA0104 		ands	r4, r2, r1
 323 0016 08D1     		bne	.L31
 324              	.LBB18:
 325              	.LBB19:
 326              		.loc 2 156 0
 327              		.syntax unified
ARM GAS  C:\Users\adris\AppData\Local\Temp\cclqLwEJ.s 			page 17


 328              	@ 156 "Generated_Source\PSoC6\pdl\rtos/FreeRTOS/10.0.1/Source/portable/GCC/CM4F/portmacro.h" 1
 329 0018 4FF03F03 			mov r3, #63												
 330 001c 83F31188 		msr basepri, r3											
 331 0020 BFF36F8F 		isb														
 332 0024 BFF34F8F 		dsb														
 333              	
 334              	@ 0 "" 2
 335              	.LVL28:
 336              		.thumb
 337              		.syntax unified
 338              	.L32:
 339 0028 FEE7     		b	.L32
 340              	.L31:
 341              	.LBE19:
 342              	.LBE18:
 288:Generated_Source\PSoC6\pdl\rtos\FreeRTOS\10.0.1\Source\portable\MemMang/heap_5.c **** 
 343              		.loc 1 288 0
 344 002a 50F8080C 		ldr	r0, [r0, #-8]
 345              	.LVL29:
 346 002e 40B1     		cbz	r0, .L33
 347              	.LBB20:
 348              	.LBB21:
 349              		.loc 2 156 0
 350              		.syntax unified
 351              	@ 156 "Generated_Source\PSoC6\pdl\rtos/FreeRTOS/10.0.1/Source/portable/GCC/CM4F/portmacro.h" 1
 352 0030 4FF03F03 			mov r3, #63												
 353 0034 83F31188 		msr basepri, r3											
 354 0038 BFF36F8F 		isb														
 355 003c BFF34F8F 		dsb														
 356              	
 357              	@ 0 "" 2
 358              	.LVL30:
 359              		.thumb
 360              		.syntax unified
 361              	.L34:
 362 0040 FEE7     		b	.L34
 363              	.LVL31:
 364              	.L33:
 365              	.LBE21:
 366              	.LBE20:
 290:Generated_Source\PSoC6\pdl\rtos\FreeRTOS\10.0.1\Source\portable\MemMang/heap_5.c **** 		{
 367              		.loc 1 290 0
 368 0042 94B1     		cbz	r4, .L29
 292:Generated_Source\PSoC6\pdl\rtos\FreeRTOS\10.0.1\Source\portable\MemMang/heap_5.c **** 			{
 369              		.loc 1 292 0
 370 0044 88B9     		cbnz	r0, .L29
 371 0046 1C46     		mov	r4, r3
 296:Generated_Source\PSoC6\pdl\rtos\FreeRTOS\10.0.1\Source\portable\MemMang/heap_5.c **** 
 372              		.loc 1 296 0
 373 0048 22EA0102 		bic	r2, r2, r1
 374 004c 43F8042C 		str	r2, [r3, #-4]
 298:Generated_Source\PSoC6\pdl\rtos\FreeRTOS\10.0.1\Source\portable\MemMang/heap_5.c **** 				{
 375              		.loc 1 298 0
 376 0050 FFF7FEFF 		bl	vTaskSuspendAll
 377              	.LVL32:
 301:Generated_Source\PSoC6\pdl\rtos\FreeRTOS\10.0.1\Source\portable\MemMang/heap_5.c **** 					traceFREE( pv, pxLink->xBlockSize );
 378              		.loc 1 301 0
ARM GAS  C:\Users\adris\AppData\Local\Temp\cclqLwEJ.s 			page 18


 379 0054 54F8043C 		ldr	r3, [r4, #-4]
 380 0058 054A     		ldr	r2, .L37
 381 005a 1169     		ldr	r1, [r2, #16]
 382 005c 0B44     		add	r3, r3, r1
 383 005e 1361     		str	r3, [r2, #16]
 303:Generated_Source\PSoC6\pdl\rtos\FreeRTOS\10.0.1\Source\portable\MemMang/heap_5.c **** 				}
 384              		.loc 1 303 0
 385 0060 2846     		mov	r0, r5
 386 0062 FFF7FEFF 		bl	prvInsertBlockIntoFreeList
 387              	.LVL33:
 305:Generated_Source\PSoC6\pdl\rtos\FreeRTOS\10.0.1\Source\portable\MemMang/heap_5.c **** 			}
 388              		.loc 1 305 0
 389 0066 FFF7FEFF 		bl	xTaskResumeAll
 390              	.LVL34:
 391              	.L29:
 392 006a 38BD     		pop	{r3, r4, r5, pc}
 393              	.LVL35:
 394              	.L36:
 395              		.cfi_def_cfa_offset 0
 396              		.cfi_restore 3
 397              		.cfi_restore 4
 398              		.cfi_restore 5
 399              		.cfi_restore 14
 400 006c 7047     		bx	lr
 401              	.L38:
 402 006e 00BF     		.align	2
 403              	.L37:
 404 0070 00000000 		.word	.LANCHOR0
 405              		.cfi_endproc
 406              	.LFE137:
 407              		.size	vPortFree, .-vPortFree
 408              		.section	.text.xPortGetFreeHeapSize,"ax",%progbits
 409              		.align	2
 410              		.global	xPortGetFreeHeapSize
 411              		.thumb
 412              		.thumb_func
 413              		.type	xPortGetFreeHeapSize, %function
 414              	xPortGetFreeHeapSize:
 415              	.LFB138:
 321:Generated_Source\PSoC6\pdl\rtos\FreeRTOS\10.0.1\Source\portable\MemMang/heap_5.c **** 	return xFreeBytesRemaining;
 416              		.loc 1 321 0
 417              		.cfi_startproc
 418              		@ args = 0, pretend = 0, frame = 0
 419              		@ frame_needed = 0, uses_anonymous_args = 0
 420              		@ link register save eliminated.
 323:Generated_Source\PSoC6\pdl\rtos\FreeRTOS\10.0.1\Source\portable\MemMang/heap_5.c **** /*-----------------------------------------------------------*/
 421              		.loc 1 323 0
 422 0000 014B     		ldr	r3, .L40
 423 0002 1869     		ldr	r0, [r3, #16]
 424 0004 7047     		bx	lr
 425              	.L41:
 426 0006 00BF     		.align	2
 427              	.L40:
 428 0008 00000000 		.word	.LANCHOR0
 429              		.cfi_endproc
 430              	.LFE138:
 431              		.size	xPortGetFreeHeapSize, .-xPortGetFreeHeapSize
ARM GAS  C:\Users\adris\AppData\Local\Temp\cclqLwEJ.s 			page 19


 432              		.section	.text.xPortGetMinimumEverFreeHeapSize,"ax",%progbits
 433              		.align	2
 434              		.global	xPortGetMinimumEverFreeHeapSize
 435              		.thumb
 436              		.thumb_func
 437              		.type	xPortGetMinimumEverFreeHeapSize, %function
 438              	xPortGetMinimumEverFreeHeapSize:
 439              	.LFB139:
 327:Generated_Source\PSoC6\pdl\rtos\FreeRTOS\10.0.1\Source\portable\MemMang/heap_5.c **** 	return xMinimumEverFreeBytesRemaining;
 440              		.loc 1 327 0
 441              		.cfi_startproc
 442              		@ args = 0, pretend = 0, frame = 0
 443              		@ frame_needed = 0, uses_anonymous_args = 0
 444              		@ link register save eliminated.
 329:Generated_Source\PSoC6\pdl\rtos\FreeRTOS\10.0.1\Source\portable\MemMang/heap_5.c **** /*-----------------------------------------------------------*/
 445              		.loc 1 329 0
 446 0000 014B     		ldr	r3, .L43
 447 0002 5869     		ldr	r0, [r3, #20]
 448 0004 7047     		bx	lr
 449              	.L44:
 450 0006 00BF     		.align	2
 451              	.L43:
 452 0008 00000000 		.word	.LANCHOR0
 453              		.cfi_endproc
 454              	.LFE139:
 455              		.size	xPortGetMinimumEverFreeHeapSize, .-xPortGetMinimumEverFreeHeapSize
 456              		.section	.text.vPortDefineHeapRegions,"ax",%progbits
 457              		.align	2
 458              		.global	vPortDefineHeapRegions
 459              		.thumb
 460              		.thumb_func
 461              		.type	vPortDefineHeapRegions, %function
 462              	vPortDefineHeapRegions:
 463              	.LFB141:
 391:Generated_Source\PSoC6\pdl\rtos\FreeRTOS\10.0.1\Source\portable\MemMang/heap_5.c **** /*-----------------------------------------------------------*/
 392:Generated_Source\PSoC6\pdl\rtos\FreeRTOS\10.0.1\Source\portable\MemMang/heap_5.c **** 
 393:Generated_Source\PSoC6\pdl\rtos\FreeRTOS\10.0.1\Source\portable\MemMang/heap_5.c **** void vPortDefineHeapRegions( const HeapRegion_t * const pxHeapRegions )
 394:Generated_Source\PSoC6\pdl\rtos\FreeRTOS\10.0.1\Source\portable\MemMang/heap_5.c **** {
 464              		.loc 1 394 0
 465              		.cfi_startproc
 466              		@ args = 0, pretend = 0, frame = 0
 467              		@ frame_needed = 0, uses_anonymous_args = 0
 468              		@ link register save eliminated.
 469              	.LVL36:
 395:Generated_Source\PSoC6\pdl\rtos\FreeRTOS\10.0.1\Source\portable\MemMang/heap_5.c **** BlockLink_t *pxFirstFreeBlockInRegion = NULL, *pxPreviousFreeBlock;
 396:Generated_Source\PSoC6\pdl\rtos\FreeRTOS\10.0.1\Source\portable\MemMang/heap_5.c **** size_t xAlignedHeap;
 397:Generated_Source\PSoC6\pdl\rtos\FreeRTOS\10.0.1\Source\portable\MemMang/heap_5.c **** size_t xTotalRegionSize, xTotalHeapSize = 0;
 398:Generated_Source\PSoC6\pdl\rtos\FreeRTOS\10.0.1\Source\portable\MemMang/heap_5.c **** BaseType_t xDefinedRegions = 0;
 399:Generated_Source\PSoC6\pdl\rtos\FreeRTOS\10.0.1\Source\portable\MemMang/heap_5.c **** size_t xAddress;
 400:Generated_Source\PSoC6\pdl\rtos\FreeRTOS\10.0.1\Source\portable\MemMang/heap_5.c **** const HeapRegion_t *pxHeapRegion;
 401:Generated_Source\PSoC6\pdl\rtos\FreeRTOS\10.0.1\Source\portable\MemMang/heap_5.c **** 
 402:Generated_Source\PSoC6\pdl\rtos\FreeRTOS\10.0.1\Source\portable\MemMang/heap_5.c **** 	/* Can only call once! */
 403:Generated_Source\PSoC6\pdl\rtos\FreeRTOS\10.0.1\Source\portable\MemMang/heap_5.c **** 	configASSERT( pxEnd == NULL );
 470              		.loc 1 403 0
 471 0000 314B     		ldr	r3, .L60
 472 0002 9B68     		ldr	r3, [r3, #8]
 473 0004 002B     		cmp	r3, #0
ARM GAS  C:\Users\adris\AppData\Local\Temp\cclqLwEJ.s 			page 20


 474 0006 45D0     		beq	.L58
 475              	.LBB22:
 476              	.LBB23:
 477              		.loc 2 156 0
 478              		.syntax unified
 479              	@ 156 "Generated_Source\PSoC6\pdl\rtos/FreeRTOS/10.0.1/Source/portable/GCC/CM4F/portmacro.h" 1
 480 0008 4FF03F03 			mov r3, #63												
 481 000c 83F31188 		msr basepri, r3											
 482 0010 BFF36F8F 		isb														
 483 0014 BFF34F8F 		dsb														
 484              	
 485              	@ 0 "" 2
 486              	.LVL37:
 487              		.thumb
 488              		.syntax unified
 489              	.L47:
 490 0018 FEE7     		b	.L47
 491              	.LVL38:
 492              	.L55:
 493              		.cfi_def_cfa_offset 16
 494              		.cfi_offset 4, -16
 495              		.cfi_offset 5, -12
 496              		.cfi_offset 6, -8
 497              		.cfi_offset 7, -4
 498              	.LBE23:
 499              	.LBE22:
 404:Generated_Source\PSoC6\pdl\rtos\FreeRTOS\10.0.1\Source\portable\MemMang/heap_5.c **** 
 405:Generated_Source\PSoC6\pdl\rtos\FreeRTOS\10.0.1\Source\portable\MemMang/heap_5.c **** 	pxHeapRegion = &( pxHeapRegions[ xDefinedRegions ] );
 406:Generated_Source\PSoC6\pdl\rtos\FreeRTOS\10.0.1\Source\portable\MemMang/heap_5.c **** 
 407:Generated_Source\PSoC6\pdl\rtos\FreeRTOS\10.0.1\Source\portable\MemMang/heap_5.c **** 	while( pxHeapRegion->xSizeInBytes > 0 )
 408:Generated_Source\PSoC6\pdl\rtos\FreeRTOS\10.0.1\Source\portable\MemMang/heap_5.c **** 	{
 409:Generated_Source\PSoC6\pdl\rtos\FreeRTOS\10.0.1\Source\portable\MemMang/heap_5.c **** 		xTotalRegionSize = pxHeapRegion->xSizeInBytes;
 410:Generated_Source\PSoC6\pdl\rtos\FreeRTOS\10.0.1\Source\portable\MemMang/heap_5.c **** 
 411:Generated_Source\PSoC6\pdl\rtos\FreeRTOS\10.0.1\Source\portable\MemMang/heap_5.c **** 		/* Ensure the heap region starts on a correctly aligned boundary. */
 412:Generated_Source\PSoC6\pdl\rtos\FreeRTOS\10.0.1\Source\portable\MemMang/heap_5.c **** 		xAddress = ( size_t ) pxHeapRegion->pucStartAddress;
 500              		.loc 1 412 0
 501 001a 1268     		ldr	r2, [r2]
 502              	.LVL39:
 413:Generated_Source\PSoC6\pdl\rtos\FreeRTOS\10.0.1\Source\portable\MemMang/heap_5.c **** 		if( ( xAddress & portBYTE_ALIGNMENT_MASK ) != 0 )
 503              		.loc 1 413 0
 504 001c 12F0070F 		tst	r2, #7
 505 0020 05D0     		beq	.L48
 414:Generated_Source\PSoC6\pdl\rtos\FreeRTOS\10.0.1\Source\portable\MemMang/heap_5.c **** 		{
 415:Generated_Source\PSoC6\pdl\rtos\FreeRTOS\10.0.1\Source\portable\MemMang/heap_5.c **** 			xAddress += ( portBYTE_ALIGNMENT - 1 );
 506              		.loc 1 415 0
 507 0022 D51D     		adds	r5, r2, #7
 508              	.LVL40:
 416:Generated_Source\PSoC6\pdl\rtos\FreeRTOS\10.0.1\Source\portable\MemMang/heap_5.c **** 			xAddress &= ~portBYTE_ALIGNMENT_MASK;
 509              		.loc 1 416 0
 510 0024 25F00705 		bic	r5, r5, #7
 511              	.LVL41:
 417:Generated_Source\PSoC6\pdl\rtos\FreeRTOS\10.0.1\Source\portable\MemMang/heap_5.c **** 
 418:Generated_Source\PSoC6\pdl\rtos\FreeRTOS\10.0.1\Source\portable\MemMang/heap_5.c **** 			/* Adjust the size for the bytes lost to alignment. */
 419:Generated_Source\PSoC6\pdl\rtos\FreeRTOS\10.0.1\Source\portable\MemMang/heap_5.c **** 			xTotalRegionSize -= xAddress - ( size_t ) pxHeapRegion->pucStartAddress;
 512              		.loc 1 419 0
 513 0028 521B     		subs	r2, r2, r5
 514 002a 1344     		add	r3, r3, r2
ARM GAS  C:\Users\adris\AppData\Local\Temp\cclqLwEJ.s 			page 21


 515              	.LVL42:
 416:Generated_Source\PSoC6\pdl\rtos\FreeRTOS\10.0.1\Source\portable\MemMang/heap_5.c **** 			xAddress &= ~portBYTE_ALIGNMENT_MASK;
 516              		.loc 1 416 0
 517 002c 2A46     		mov	r2, r5
 518              	.LVL43:
 519              	.L48:
 420:Generated_Source\PSoC6\pdl\rtos\FreeRTOS\10.0.1\Source\portable\MemMang/heap_5.c **** 		}
 421:Generated_Source\PSoC6\pdl\rtos\FreeRTOS\10.0.1\Source\portable\MemMang/heap_5.c **** 
 422:Generated_Source\PSoC6\pdl\rtos\FreeRTOS\10.0.1\Source\portable\MemMang/heap_5.c **** 		xAlignedHeap = xAddress;
 423:Generated_Source\PSoC6\pdl\rtos\FreeRTOS\10.0.1\Source\portable\MemMang/heap_5.c **** 
 424:Generated_Source\PSoC6\pdl\rtos\FreeRTOS\10.0.1\Source\portable\MemMang/heap_5.c **** 		/* Set xStart if it has not already been set. */
 425:Generated_Source\PSoC6\pdl\rtos\FreeRTOS\10.0.1\Source\portable\MemMang/heap_5.c **** 		if( xDefinedRegions == 0 )
 520              		.loc 1 425 0
 521 002e 24B9     		cbnz	r4, .L49
 426:Generated_Source\PSoC6\pdl\rtos\FreeRTOS\10.0.1\Source\portable\MemMang/heap_5.c **** 		{
 427:Generated_Source\PSoC6\pdl\rtos\FreeRTOS\10.0.1\Source\portable\MemMang/heap_5.c **** 			/* xStart is used to hold a pointer to the first item in the list of
 428:Generated_Source\PSoC6\pdl\rtos\FreeRTOS\10.0.1\Source\portable\MemMang/heap_5.c **** 			free blocks.  The void cast is used to prevent compiler warnings. */
 429:Generated_Source\PSoC6\pdl\rtos\FreeRTOS\10.0.1\Source\portable\MemMang/heap_5.c **** 			xStart.pxNextFreeBlock = ( BlockLink_t * ) xAlignedHeap;
 522              		.loc 1 429 0
 523 0030 254D     		ldr	r5, .L60
 524 0032 2A60     		str	r2, [r5]
 430:Generated_Source\PSoC6\pdl\rtos\FreeRTOS\10.0.1\Source\portable\MemMang/heap_5.c **** 			xStart.xBlockSize = ( size_t ) 0;
 525              		.loc 1 430 0
 526 0034 0026     		movs	r6, #0
 527 0036 6E60     		str	r6, [r5, #4]
 528 0038 16E0     		b	.L50
 529              	.L49:
 431:Generated_Source\PSoC6\pdl\rtos\FreeRTOS\10.0.1\Source\portable\MemMang/heap_5.c **** 		}
 432:Generated_Source\PSoC6\pdl\rtos\FreeRTOS\10.0.1\Source\portable\MemMang/heap_5.c **** 		else
 433:Generated_Source\PSoC6\pdl\rtos\FreeRTOS\10.0.1\Source\portable\MemMang/heap_5.c **** 		{
 434:Generated_Source\PSoC6\pdl\rtos\FreeRTOS\10.0.1\Source\portable\MemMang/heap_5.c **** 			/* Should only get here if one region has already been added to the
 435:Generated_Source\PSoC6\pdl\rtos\FreeRTOS\10.0.1\Source\portable\MemMang/heap_5.c **** 			heap. */
 436:Generated_Source\PSoC6\pdl\rtos\FreeRTOS\10.0.1\Source\portable\MemMang/heap_5.c **** 			configASSERT( pxEnd != NULL );
 530              		.loc 1 436 0
 531 003a 234D     		ldr	r5, .L60
 532 003c AD68     		ldr	r5, [r5, #8]
 533 003e 45B9     		cbnz	r5, .L51
 534              	.LBB24:
 535              	.LBB25:
 536              		.loc 2 156 0
 537              		.syntax unified
 538              	@ 156 "Generated_Source\PSoC6\pdl\rtos/FreeRTOS/10.0.1/Source/portable/GCC/CM4F/portmacro.h" 1
 539 0040 4FF03F03 			mov r3, #63												
 540 0044 83F31188 		msr basepri, r3											
 541 0048 BFF36F8F 		isb														
 542 004c BFF34F8F 		dsb														
 543              	
 544              	@ 0 "" 2
 545              	.LVL44:
 546              		.thumb
 547              		.syntax unified
 548              	.L52:
 549 0050 FEE7     		b	.L52
 550              	.LVL45:
 551              	.L51:
 552              	.LBE25:
 553              	.LBE24:
ARM GAS  C:\Users\adris\AppData\Local\Temp\cclqLwEJ.s 			page 22


 437:Generated_Source\PSoC6\pdl\rtos\FreeRTOS\10.0.1\Source\portable\MemMang/heap_5.c **** 
 438:Generated_Source\PSoC6\pdl\rtos\FreeRTOS\10.0.1\Source\portable\MemMang/heap_5.c **** 			/* Check blocks are passed in with increasing start addresses. */
 439:Generated_Source\PSoC6\pdl\rtos\FreeRTOS\10.0.1\Source\portable\MemMang/heap_5.c **** 			configASSERT( xAddress > ( size_t ) pxEnd );
 554              		.loc 1 439 0
 555 0052 AA42     		cmp	r2, r5
 556 0054 08D8     		bhi	.L50
 557              	.LBB26:
 558              	.LBB27:
 559              		.loc 2 156 0
 560              		.syntax unified
 561              	@ 156 "Generated_Source\PSoC6\pdl\rtos/FreeRTOS/10.0.1/Source/portable/GCC/CM4F/portmacro.h" 1
 562 0056 4FF03F03 			mov r3, #63												
 563 005a 83F31188 		msr basepri, r3											
 564 005e BFF36F8F 		isb														
 565 0062 BFF34F8F 		dsb														
 566              	
 567              	@ 0 "" 2
 568              	.LVL46:
 569              		.thumb
 570              		.syntax unified
 571              	.L53:
 572 0066 FEE7     		b	.L53
 573              	.LVL47:
 574              	.L50:
 575              	.LBE27:
 576              	.LBE26:
 440:Generated_Source\PSoC6\pdl\rtos\FreeRTOS\10.0.1\Source\portable\MemMang/heap_5.c **** 		}
 441:Generated_Source\PSoC6\pdl\rtos\FreeRTOS\10.0.1\Source\portable\MemMang/heap_5.c **** 
 442:Generated_Source\PSoC6\pdl\rtos\FreeRTOS\10.0.1\Source\portable\MemMang/heap_5.c **** 		/* Remember the location of the end marker in the previous region, if
 443:Generated_Source\PSoC6\pdl\rtos\FreeRTOS\10.0.1\Source\portable\MemMang/heap_5.c **** 		any. */
 444:Generated_Source\PSoC6\pdl\rtos\FreeRTOS\10.0.1\Source\portable\MemMang/heap_5.c **** 		pxPreviousFreeBlock = pxEnd;
 577              		.loc 1 444 0
 578 0068 174E     		ldr	r6, .L60
 579 006a B568     		ldr	r5, [r6, #8]
 580              	.LVL48:
 445:Generated_Source\PSoC6\pdl\rtos\FreeRTOS\10.0.1\Source\portable\MemMang/heap_5.c **** 
 446:Generated_Source\PSoC6\pdl\rtos\FreeRTOS\10.0.1\Source\portable\MemMang/heap_5.c **** 		/* pxEnd is used to mark the end of the list of free blocks and is
 447:Generated_Source\PSoC6\pdl\rtos\FreeRTOS\10.0.1\Source\portable\MemMang/heap_5.c **** 		inserted at the end of the region space. */
 448:Generated_Source\PSoC6\pdl\rtos\FreeRTOS\10.0.1\Source\portable\MemMang/heap_5.c **** 		xAddress = xAlignedHeap + xTotalRegionSize;
 581              		.loc 1 448 0
 582 006c 1344     		add	r3, r3, r2
 583              	.LVL49:
 449:Generated_Source\PSoC6\pdl\rtos\FreeRTOS\10.0.1\Source\portable\MemMang/heap_5.c **** 		xAddress -= xHeapStructSize;
 584              		.loc 1 449 0
 585 006e 083B     		subs	r3, r3, #8
 586              	.LVL50:
 450:Generated_Source\PSoC6\pdl\rtos\FreeRTOS\10.0.1\Source\portable\MemMang/heap_5.c **** 		xAddress &= ~portBYTE_ALIGNMENT_MASK;
 587              		.loc 1 450 0
 588 0070 23F00703 		bic	r3, r3, #7
 589              	.LVL51:
 451:Generated_Source\PSoC6\pdl\rtos\FreeRTOS\10.0.1\Source\portable\MemMang/heap_5.c **** 		pxEnd = ( BlockLink_t * ) xAddress;
 590              		.loc 1 451 0
 591 0074 B360     		str	r3, [r6, #8]
 452:Generated_Source\PSoC6\pdl\rtos\FreeRTOS\10.0.1\Source\portable\MemMang/heap_5.c **** 		pxEnd->xBlockSize = 0;
 592              		.loc 1 452 0
 593 0076 0026     		movs	r6, #0
 594 0078 5E60     		str	r6, [r3, #4]
ARM GAS  C:\Users\adris\AppData\Local\Temp\cclqLwEJ.s 			page 23


 453:Generated_Source\PSoC6\pdl\rtos\FreeRTOS\10.0.1\Source\portable\MemMang/heap_5.c **** 		pxEnd->pxNextFreeBlock = NULL;
 595              		.loc 1 453 0
 596 007a 1E60     		str	r6, [r3]
 454:Generated_Source\PSoC6\pdl\rtos\FreeRTOS\10.0.1\Source\portable\MemMang/heap_5.c **** 
 455:Generated_Source\PSoC6\pdl\rtos\FreeRTOS\10.0.1\Source\portable\MemMang/heap_5.c **** 		/* To start with there is a single free block in this region that is
 456:Generated_Source\PSoC6\pdl\rtos\FreeRTOS\10.0.1\Source\portable\MemMang/heap_5.c **** 		sized to take up the entire heap region minus the space taken by the
 457:Generated_Source\PSoC6\pdl\rtos\FreeRTOS\10.0.1\Source\portable\MemMang/heap_5.c **** 		free block structure. */
 458:Generated_Source\PSoC6\pdl\rtos\FreeRTOS\10.0.1\Source\portable\MemMang/heap_5.c **** 		pxFirstFreeBlockInRegion = ( BlockLink_t * ) xAlignedHeap;
 597              		.loc 1 458 0
 598 007c 1646     		mov	r6, r2
 599              	.LVL52:
 459:Generated_Source\PSoC6\pdl\rtos\FreeRTOS\10.0.1\Source\portable\MemMang/heap_5.c **** 		pxFirstFreeBlockInRegion->xBlockSize = xAddress - ( size_t ) pxFirstFreeBlockInRegion;
 600              		.loc 1 459 0
 601 007e 9F1A     		subs	r7, r3, r2
 602 0080 5760     		str	r7, [r2, #4]
 460:Generated_Source\PSoC6\pdl\rtos\FreeRTOS\10.0.1\Source\portable\MemMang/heap_5.c **** 		pxFirstFreeBlockInRegion->pxNextFreeBlock = pxEnd;
 603              		.loc 1 460 0
 604 0082 1360     		str	r3, [r2]
 461:Generated_Source\PSoC6\pdl\rtos\FreeRTOS\10.0.1\Source\portable\MemMang/heap_5.c **** 
 462:Generated_Source\PSoC6\pdl\rtos\FreeRTOS\10.0.1\Source\portable\MemMang/heap_5.c **** 		/* If this is not the first region that makes up the entire heap space
 463:Generated_Source\PSoC6\pdl\rtos\FreeRTOS\10.0.1\Source\portable\MemMang/heap_5.c **** 		then link the previous region to this region. */
 464:Generated_Source\PSoC6\pdl\rtos\FreeRTOS\10.0.1\Source\portable\MemMang/heap_5.c **** 		if( pxPreviousFreeBlock != NULL )
 605              		.loc 1 464 0
 606 0084 05B1     		cbz	r5, .L54
 607              	.LVL53:
 465:Generated_Source\PSoC6\pdl\rtos\FreeRTOS\10.0.1\Source\portable\MemMang/heap_5.c **** 		{
 466:Generated_Source\PSoC6\pdl\rtos\FreeRTOS\10.0.1\Source\portable\MemMang/heap_5.c **** 			pxPreviousFreeBlock->pxNextFreeBlock = pxFirstFreeBlockInRegion;
 608              		.loc 1 466 0
 609 0086 2A60     		str	r2, [r5]
 610              	.L54:
 467:Generated_Source\PSoC6\pdl\rtos\FreeRTOS\10.0.1\Source\portable\MemMang/heap_5.c **** 		}
 468:Generated_Source\PSoC6\pdl\rtos\FreeRTOS\10.0.1\Source\portable\MemMang/heap_5.c **** 
 469:Generated_Source\PSoC6\pdl\rtos\FreeRTOS\10.0.1\Source\portable\MemMang/heap_5.c **** 		xTotalHeapSize += pxFirstFreeBlockInRegion->xBlockSize;
 611              		.loc 1 469 0
 612 0088 7368     		ldr	r3, [r6, #4]
 613              	.LVL54:
 614 008a 1944     		add	r1, r1, r3
 615              	.LVL55:
 470:Generated_Source\PSoC6\pdl\rtos\FreeRTOS\10.0.1\Source\portable\MemMang/heap_5.c **** 
 471:Generated_Source\PSoC6\pdl\rtos\FreeRTOS\10.0.1\Source\portable\MemMang/heap_5.c **** 		/* Move onto the next HeapRegion_t structure. */
 472:Generated_Source\PSoC6\pdl\rtos\FreeRTOS\10.0.1\Source\portable\MemMang/heap_5.c **** 		xDefinedRegions++;
 616              		.loc 1 472 0
 617 008c 0134     		adds	r4, r4, #1
 618              	.LVL56:
 473:Generated_Source\PSoC6\pdl\rtos\FreeRTOS\10.0.1\Source\portable\MemMang/heap_5.c **** 		pxHeapRegion = &( pxHeapRegions[ xDefinedRegions ] );
 619              		.loc 1 473 0
 620 008e 00EBC402 		add	r2, r0, r4, lsl #3
 621              	.LVL57:
 622 0092 03E0     		b	.L46
 623              	.LVL58:
 624              	.L58:
 625              		.cfi_def_cfa_offset 0
 626              		.cfi_restore 4
 627              		.cfi_restore 5
 628              		.cfi_restore 6
 629              		.cfi_restore 7
 394:Generated_Source\PSoC6\pdl\rtos\FreeRTOS\10.0.1\Source\portable\MemMang/heap_5.c **** BlockLink_t *pxFirstFreeBlockInRegion = NULL, *pxPreviousFreeBlock;
ARM GAS  C:\Users\adris\AppData\Local\Temp\cclqLwEJ.s 			page 24


 630              		.loc 1 394 0
 631 0094 F0B4     		push	{r4, r5, r6, r7}
 632              		.cfi_def_cfa_offset 16
 633              		.cfi_offset 4, -16
 634              		.cfi_offset 5, -12
 635              		.cfi_offset 6, -8
 636              		.cfi_offset 7, -4
 637 0096 0246     		mov	r2, r0
 638 0098 0024     		movs	r4, #0
 639 009a 2146     		mov	r1, r4
 640              	.LVL59:
 641              	.L46:
 407:Generated_Source\PSoC6\pdl\rtos\FreeRTOS\10.0.1\Source\portable\MemMang/heap_5.c **** 	{
 642              		.loc 1 407 0
 643 009c 5368     		ldr	r3, [r2, #4]
 644 009e 002B     		cmp	r3, #0
 645 00a0 BBD1     		bne	.L55
 474:Generated_Source\PSoC6\pdl\rtos\FreeRTOS\10.0.1\Source\portable\MemMang/heap_5.c **** 	}
 475:Generated_Source\PSoC6\pdl\rtos\FreeRTOS\10.0.1\Source\portable\MemMang/heap_5.c **** 
 476:Generated_Source\PSoC6\pdl\rtos\FreeRTOS\10.0.1\Source\portable\MemMang/heap_5.c **** 	xMinimumEverFreeBytesRemaining = xTotalHeapSize;
 646              		.loc 1 476 0
 647 00a2 094B     		ldr	r3, .L60
 648 00a4 5961     		str	r1, [r3, #20]
 477:Generated_Source\PSoC6\pdl\rtos\FreeRTOS\10.0.1\Source\portable\MemMang/heap_5.c **** 	xFreeBytesRemaining = xTotalHeapSize;
 649              		.loc 1 477 0
 650 00a6 1961     		str	r1, [r3, #16]
 478:Generated_Source\PSoC6\pdl\rtos\FreeRTOS\10.0.1\Source\portable\MemMang/heap_5.c **** 
 479:Generated_Source\PSoC6\pdl\rtos\FreeRTOS\10.0.1\Source\portable\MemMang/heap_5.c **** 	/* Check something was actually defined before it is accessed. */
 480:Generated_Source\PSoC6\pdl\rtos\FreeRTOS\10.0.1\Source\portable\MemMang/heap_5.c **** 	configASSERT( xTotalHeapSize );
 651              		.loc 1 480 0
 652 00a8 41B9     		cbnz	r1, .L56
 653              	.LBB28:
 654              	.LBB29:
 655              		.loc 2 156 0
 656              		.syntax unified
 657              	@ 156 "Generated_Source\PSoC6\pdl\rtos/FreeRTOS/10.0.1/Source/portable/GCC/CM4F/portmacro.h" 1
 658 00aa 4FF03F03 			mov r3, #63												
 659 00ae 83F31188 		msr basepri, r3											
 660 00b2 BFF36F8F 		isb														
 661 00b6 BFF34F8F 		dsb														
 662              	
 663              	@ 0 "" 2
 664              	.LVL60:
 665              		.thumb
 666              		.syntax unified
 667              	.L57:
 668 00ba FEE7     		b	.L57
 669              	.L56:
 670              	.LBE29:
 671              	.LBE28:
 481:Generated_Source\PSoC6\pdl\rtos\FreeRTOS\10.0.1\Source\portable\MemMang/heap_5.c **** 
 482:Generated_Source\PSoC6\pdl\rtos\FreeRTOS\10.0.1\Source\portable\MemMang/heap_5.c **** 	/* Work out the position of the top bit in a size_t variable. */
 483:Generated_Source\PSoC6\pdl\rtos\FreeRTOS\10.0.1\Source\portable\MemMang/heap_5.c **** 	xBlockAllocatedBit = ( ( size_t ) 1 ) << ( ( sizeof( size_t ) * heapBITS_PER_BYTE ) - 1 );
 672              		.loc 1 483 0
 673 00bc 4FF00042 		mov	r2, #-2147483648
 674              	.LVL61:
 675 00c0 014B     		ldr	r3, .L60
ARM GAS  C:\Users\adris\AppData\Local\Temp\cclqLwEJ.s 			page 25


 676 00c2 DA60     		str	r2, [r3, #12]
 484:Generated_Source\PSoC6\pdl\rtos\FreeRTOS\10.0.1\Source\portable\MemMang/heap_5.c **** }
 677              		.loc 1 484 0
 678 00c4 F0BC     		pop	{r4, r5, r6, r7}
 679              		.cfi_restore 7
 680              		.cfi_restore 6
 681              		.cfi_restore 5
 682              		.cfi_restore 4
 683              		.cfi_def_cfa_offset 0
 684              	.LVL62:
 685 00c6 7047     		bx	lr
 686              	.L61:
 687              		.align	2
 688              	.L60:
 689 00c8 00000000 		.word	.LANCHOR0
 690              		.cfi_endproc
 691              	.LFE141:
 692              		.size	vPortDefineHeapRegions, .-vPortDefineHeapRegions
 693              		.bss
 694              		.align	2
 695              		.set	.LANCHOR0,. + 0
 696              		.type	xStart, %object
 697              		.size	xStart, 8
 698              	xStart:
 699 0000 00000000 		.space	8
 699      00000000 
 700              		.type	pxEnd, %object
 701              		.size	pxEnd, 4
 702              	pxEnd:
 703 0008 00000000 		.space	4
 704              		.type	xBlockAllocatedBit, %object
 705              		.size	xBlockAllocatedBit, 4
 706              	xBlockAllocatedBit:
 707 000c 00000000 		.space	4
 708              		.type	xFreeBytesRemaining, %object
 709              		.size	xFreeBytesRemaining, 4
 710              	xFreeBytesRemaining:
 711 0010 00000000 		.space	4
 712              		.type	xMinimumEverFreeBytesRemaining, %object
 713              		.size	xMinimumEverFreeBytesRemaining, 4
 714              	xMinimumEverFreeBytesRemaining:
 715 0014 00000000 		.space	4
 716              		.text
 717              	.Letext0:
 718              		.file 3 "c:\\program files (x86)\\cypress\\psoc creator\\4.4\\psoc creator\\import\\gnu\\arm\\5.4.
 719              		.file 4 "c:\\program files (x86)\\cypress\\psoc creator\\4.4\\psoc creator\\import\\gnu\\arm\\5.4.
 720              		.file 5 "c:\\program files (x86)\\cypress\\psoc creator\\4.4\\psoc creator\\import\\gnu\\arm\\5.4.
 721              		.file 6 "Generated_Source\\PSoC6\\pdl\\rtos/FreeRTOS/10.0.1/Source/include/portable.h"
 722              		.file 7 "Generated_Source\\PSoC6\\pdl\\rtos/FreeRTOS/10.0.1/Source/include/task.h"
 723              		.file 8 "Generated_Source\\PSoC6\\pdl\\cmsis/include/core_cm4.h"