ARM GAS  C:\Users\adris\AppData\Local\Temp\ccnf5SFB.s 			page 1


   1              		.syntax unified
   2              		.cpu cortex-m4
   3              		.eabi_attribute 27, 1
   4              		.fpu fpv4-sp-d16
   5              		.eabi_attribute 20, 1
   6              		.eabi_attribute 21, 1
   7              		.eabi_attribute 23, 3
   8              		.eabi_attribute 24, 1
   9              		.eabi_attribute 25, 1
  10              		.eabi_attribute 26, 1
  11              		.eabi_attribute 30, 1
  12              		.eabi_attribute 34, 1
  13              		.eabi_attribute 18, 4
  14              		.thumb
  15              		.syntax unified
  16              		.file	"stream_buffer.c"
  17              		.text
  18              	.Ltext0:
  19              		.cfi_sections	.debug_frame
  20              		.section	.text.prvBytesInBuffer,"ax",%progbits
  21              		.align	2
  22              		.thumb
  23              		.thumb_func
  24              		.type	prvBytesInBuffer, %function
  25              	prvBytesInBuffer:
  26              	.LFB154:
  27              		.file 1 "Generated_Source\\PSoC6\\pdl\\rtos\\FreeRTOS\\10.0.1\\Source\\stream_buffer.c"
   1:Generated_Source\PSoC6\pdl\rtos\FreeRTOS\10.0.1\Source/stream_buffer.c **** /*
   2:Generated_Source\PSoC6\pdl\rtos\FreeRTOS\10.0.1\Source/stream_buffer.c ****  * FreeRTOS Kernel V10.0.1
   3:Generated_Source\PSoC6\pdl\rtos\FreeRTOS\10.0.1\Source/stream_buffer.c ****  * Copyright (C) 2017 Amazon.com, Inc. or its affiliates.  All Rights Reserved.
   4:Generated_Source\PSoC6\pdl\rtos\FreeRTOS\10.0.1\Source/stream_buffer.c ****  *
   5:Generated_Source\PSoC6\pdl\rtos\FreeRTOS\10.0.1\Source/stream_buffer.c ****  * Permission is hereby granted, free of charge, to any person obtaining a copy of
   6:Generated_Source\PSoC6\pdl\rtos\FreeRTOS\10.0.1\Source/stream_buffer.c ****  * this software and associated documentation files (the "Software"), to deal in
   7:Generated_Source\PSoC6\pdl\rtos\FreeRTOS\10.0.1\Source/stream_buffer.c ****  * the Software without restriction, including without limitation the rights to
   8:Generated_Source\PSoC6\pdl\rtos\FreeRTOS\10.0.1\Source/stream_buffer.c ****  * use, copy, modify, merge, publish, distribute, sublicense, and/or sell copies of
   9:Generated_Source\PSoC6\pdl\rtos\FreeRTOS\10.0.1\Source/stream_buffer.c ****  * the Software, and to permit persons to whom the Software is furnished to do so,
  10:Generated_Source\PSoC6\pdl\rtos\FreeRTOS\10.0.1\Source/stream_buffer.c ****  * subject to the following conditions:
  11:Generated_Source\PSoC6\pdl\rtos\FreeRTOS\10.0.1\Source/stream_buffer.c ****  *
  12:Generated_Source\PSoC6\pdl\rtos\FreeRTOS\10.0.1\Source/stream_buffer.c ****  * The above copyright notice and this permission notice shall be included in all
  13:Generated_Source\PSoC6\pdl\rtos\FreeRTOS\10.0.1\Source/stream_buffer.c ****  * copies or substantial portions of the Software.
  14:Generated_Source\PSoC6\pdl\rtos\FreeRTOS\10.0.1\Source/stream_buffer.c ****  *
  15:Generated_Source\PSoC6\pdl\rtos\FreeRTOS\10.0.1\Source/stream_buffer.c ****  * THE SOFTWARE IS PROVIDED "AS IS", WITHOUT WARRANTY OF ANY KIND, EXPRESS OR
  16:Generated_Source\PSoC6\pdl\rtos\FreeRTOS\10.0.1\Source/stream_buffer.c ****  * IMPLIED, INCLUDING BUT NOT LIMITED TO THE WARRANTIES OF MERCHANTABILITY, FITNESS
  17:Generated_Source\PSoC6\pdl\rtos\FreeRTOS\10.0.1\Source/stream_buffer.c ****  * FOR A PARTICULAR PURPOSE AND NONINFRINGEMENT. IN NO EVENT SHALL THE AUTHORS OR
  18:Generated_Source\PSoC6\pdl\rtos\FreeRTOS\10.0.1\Source/stream_buffer.c ****  * COPYRIGHT HOLDERS BE LIABLE FOR ANY CLAIM, DAMAGES OR OTHER LIABILITY, WHETHER
  19:Generated_Source\PSoC6\pdl\rtos\FreeRTOS\10.0.1\Source/stream_buffer.c ****  * IN AN ACTION OF CONTRACT, TORT OR OTHERWISE, ARISING FROM, OUT OF OR IN
  20:Generated_Source\PSoC6\pdl\rtos\FreeRTOS\10.0.1\Source/stream_buffer.c ****  * CONNECTION WITH THE SOFTWARE OR THE USE OR OTHER DEALINGS IN THE SOFTWARE.
  21:Generated_Source\PSoC6\pdl\rtos\FreeRTOS\10.0.1\Source/stream_buffer.c ****  *
  22:Generated_Source\PSoC6\pdl\rtos\FreeRTOS\10.0.1\Source/stream_buffer.c ****  * http://www.FreeRTOS.org
  23:Generated_Source\PSoC6\pdl\rtos\FreeRTOS\10.0.1\Source/stream_buffer.c ****  * http://aws.amazon.com/freertos
  24:Generated_Source\PSoC6\pdl\rtos\FreeRTOS\10.0.1\Source/stream_buffer.c ****  *
  25:Generated_Source\PSoC6\pdl\rtos\FreeRTOS\10.0.1\Source/stream_buffer.c ****  * 1 tab == 4 spaces!
  26:Generated_Source\PSoC6\pdl\rtos\FreeRTOS\10.0.1\Source/stream_buffer.c ****  */
  27:Generated_Source\PSoC6\pdl\rtos\FreeRTOS\10.0.1\Source/stream_buffer.c **** 
  28:Generated_Source\PSoC6\pdl\rtos\FreeRTOS\10.0.1\Source/stream_buffer.c **** /* Standard includes. */
  29:Generated_Source\PSoC6\pdl\rtos\FreeRTOS\10.0.1\Source/stream_buffer.c **** #include <stdint.h>
  30:Generated_Source\PSoC6\pdl\rtos\FreeRTOS\10.0.1\Source/stream_buffer.c **** #include <string.h>
ARM GAS  C:\Users\adris\AppData\Local\Temp\ccnf5SFB.s 			page 2


  31:Generated_Source\PSoC6\pdl\rtos\FreeRTOS\10.0.1\Source/stream_buffer.c **** 
  32:Generated_Source\PSoC6\pdl\rtos\FreeRTOS\10.0.1\Source/stream_buffer.c **** /* Defining MPU_WRAPPERS_INCLUDED_FROM_API_FILE prevents task.h from redefining
  33:Generated_Source\PSoC6\pdl\rtos\FreeRTOS\10.0.1\Source/stream_buffer.c **** all the API functions to use the MPU wrappers.  That should only be done when
  34:Generated_Source\PSoC6\pdl\rtos\FreeRTOS\10.0.1\Source/stream_buffer.c **** task.h is included from an application file. */
  35:Generated_Source\PSoC6\pdl\rtos\FreeRTOS\10.0.1\Source/stream_buffer.c **** #define MPU_WRAPPERS_INCLUDED_FROM_API_FILE
  36:Generated_Source\PSoC6\pdl\rtos\FreeRTOS\10.0.1\Source/stream_buffer.c **** 
  37:Generated_Source\PSoC6\pdl\rtos\FreeRTOS\10.0.1\Source/stream_buffer.c **** /* FreeRTOS includes. */
  38:Generated_Source\PSoC6\pdl\rtos\FreeRTOS\10.0.1\Source/stream_buffer.c **** #include "FreeRTOS.h"
  39:Generated_Source\PSoC6\pdl\rtos\FreeRTOS\10.0.1\Source/stream_buffer.c **** #include "task.h"
  40:Generated_Source\PSoC6\pdl\rtos\FreeRTOS\10.0.1\Source/stream_buffer.c **** #include "stream_buffer.h"
  41:Generated_Source\PSoC6\pdl\rtos\FreeRTOS\10.0.1\Source/stream_buffer.c **** 
  42:Generated_Source\PSoC6\pdl\rtos\FreeRTOS\10.0.1\Source/stream_buffer.c **** #if( configUSE_TASK_NOTIFICATIONS != 1 )
  43:Generated_Source\PSoC6\pdl\rtos\FreeRTOS\10.0.1\Source/stream_buffer.c **** 	#error configUSE_TASK_NOTIFICATIONS must be set to 1 to build stream_buffer.c
  44:Generated_Source\PSoC6\pdl\rtos\FreeRTOS\10.0.1\Source/stream_buffer.c **** #endif
  45:Generated_Source\PSoC6\pdl\rtos\FreeRTOS\10.0.1\Source/stream_buffer.c **** 
  46:Generated_Source\PSoC6\pdl\rtos\FreeRTOS\10.0.1\Source/stream_buffer.c **** /* Lint e961 and e750 are suppressed as a MISRA exception justified because the
  47:Generated_Source\PSoC6\pdl\rtos\FreeRTOS\10.0.1\Source/stream_buffer.c **** MPU ports require MPU_WRAPPERS_INCLUDED_FROM_API_FILE to be defined for the
  48:Generated_Source\PSoC6\pdl\rtos\FreeRTOS\10.0.1\Source/stream_buffer.c **** header files above, but not in this file, in order to generate the correct
  49:Generated_Source\PSoC6\pdl\rtos\FreeRTOS\10.0.1\Source/stream_buffer.c **** privileged Vs unprivileged linkage and placement. */
  50:Generated_Source\PSoC6\pdl\rtos\FreeRTOS\10.0.1\Source/stream_buffer.c **** #undef MPU_WRAPPERS_INCLUDED_FROM_API_FILE /*lint !e961 !e750. */
  51:Generated_Source\PSoC6\pdl\rtos\FreeRTOS\10.0.1\Source/stream_buffer.c **** 
  52:Generated_Source\PSoC6\pdl\rtos\FreeRTOS\10.0.1\Source/stream_buffer.c **** /* If the user has not provided application specific Rx notification macros,
  53:Generated_Source\PSoC6\pdl\rtos\FreeRTOS\10.0.1\Source/stream_buffer.c **** or #defined the notification macros away, them provide default implementations
  54:Generated_Source\PSoC6\pdl\rtos\FreeRTOS\10.0.1\Source/stream_buffer.c **** that uses task notifications. */
  55:Generated_Source\PSoC6\pdl\rtos\FreeRTOS\10.0.1\Source/stream_buffer.c **** /*lint -save -e9026 Function like macros allowed and needed here so they can be overidden. */
  56:Generated_Source\PSoC6\pdl\rtos\FreeRTOS\10.0.1\Source/stream_buffer.c **** #ifndef sbRECEIVE_COMPLETED
  57:Generated_Source\PSoC6\pdl\rtos\FreeRTOS\10.0.1\Source/stream_buffer.c **** 	#define sbRECEIVE_COMPLETED( pxStreamBuffer )										\
  58:Generated_Source\PSoC6\pdl\rtos\FreeRTOS\10.0.1\Source/stream_buffer.c **** 		vTaskSuspendAll();																\
  59:Generated_Source\PSoC6\pdl\rtos\FreeRTOS\10.0.1\Source/stream_buffer.c **** 		{																				\
  60:Generated_Source\PSoC6\pdl\rtos\FreeRTOS\10.0.1\Source/stream_buffer.c **** 			if( ( pxStreamBuffer )->xTaskWaitingToSend != NULL )						\
  61:Generated_Source\PSoC6\pdl\rtos\FreeRTOS\10.0.1\Source/stream_buffer.c **** 			{																			\
  62:Generated_Source\PSoC6\pdl\rtos\FreeRTOS\10.0.1\Source/stream_buffer.c **** 				( void ) xTaskNotify( ( pxStreamBuffer )->xTaskWaitingToSend,			\
  63:Generated_Source\PSoC6\pdl\rtos\FreeRTOS\10.0.1\Source/stream_buffer.c **** 									  ( uint32_t ) 0,									\
  64:Generated_Source\PSoC6\pdl\rtos\FreeRTOS\10.0.1\Source/stream_buffer.c **** 									  eNoAction );										\
  65:Generated_Source\PSoC6\pdl\rtos\FreeRTOS\10.0.1\Source/stream_buffer.c **** 				( pxStreamBuffer )->xTaskWaitingToSend = NULL;							\
  66:Generated_Source\PSoC6\pdl\rtos\FreeRTOS\10.0.1\Source/stream_buffer.c **** 			}																			\
  67:Generated_Source\PSoC6\pdl\rtos\FreeRTOS\10.0.1\Source/stream_buffer.c **** 		}																				\
  68:Generated_Source\PSoC6\pdl\rtos\FreeRTOS\10.0.1\Source/stream_buffer.c **** 		( void ) xTaskResumeAll();
  69:Generated_Source\PSoC6\pdl\rtos\FreeRTOS\10.0.1\Source/stream_buffer.c **** #endif /* sbRECEIVE_COMPLETED */
  70:Generated_Source\PSoC6\pdl\rtos\FreeRTOS\10.0.1\Source/stream_buffer.c **** 
  71:Generated_Source\PSoC6\pdl\rtos\FreeRTOS\10.0.1\Source/stream_buffer.c **** #ifndef sbRECEIVE_COMPLETED_FROM_ISR
  72:Generated_Source\PSoC6\pdl\rtos\FreeRTOS\10.0.1\Source/stream_buffer.c **** 	#define sbRECEIVE_COMPLETED_FROM_ISR( pxStreamBuffer,								\
  73:Generated_Source\PSoC6\pdl\rtos\FreeRTOS\10.0.1\Source/stream_buffer.c **** 										  pxHigherPriorityTaskWoken )					\
  74:Generated_Source\PSoC6\pdl\rtos\FreeRTOS\10.0.1\Source/stream_buffer.c **** 	{																					\
  75:Generated_Source\PSoC6\pdl\rtos\FreeRTOS\10.0.1\Source/stream_buffer.c **** 	UBaseType_t uxSavedInterruptStatus;													\
  76:Generated_Source\PSoC6\pdl\rtos\FreeRTOS\10.0.1\Source/stream_buffer.c **** 																						\
  77:Generated_Source\PSoC6\pdl\rtos\FreeRTOS\10.0.1\Source/stream_buffer.c **** 		uxSavedInterruptStatus = ( UBaseType_t ) portSET_INTERRUPT_MASK_FROM_ISR();		\
  78:Generated_Source\PSoC6\pdl\rtos\FreeRTOS\10.0.1\Source/stream_buffer.c **** 		{																				\
  79:Generated_Source\PSoC6\pdl\rtos\FreeRTOS\10.0.1\Source/stream_buffer.c **** 			if( ( pxStreamBuffer )->xTaskWaitingToSend != NULL )						\
  80:Generated_Source\PSoC6\pdl\rtos\FreeRTOS\10.0.1\Source/stream_buffer.c **** 			{																			\
  81:Generated_Source\PSoC6\pdl\rtos\FreeRTOS\10.0.1\Source/stream_buffer.c **** 				( void ) xTaskNotifyFromISR( ( pxStreamBuffer )->xTaskWaitingToSend,	\
  82:Generated_Source\PSoC6\pdl\rtos\FreeRTOS\10.0.1\Source/stream_buffer.c **** 											 ( uint32_t ) 0,							\
  83:Generated_Source\PSoC6\pdl\rtos\FreeRTOS\10.0.1\Source/stream_buffer.c **** 											 eNoAction,									\
  84:Generated_Source\PSoC6\pdl\rtos\FreeRTOS\10.0.1\Source/stream_buffer.c **** 											 pxHigherPriorityTaskWoken );				\
  85:Generated_Source\PSoC6\pdl\rtos\FreeRTOS\10.0.1\Source/stream_buffer.c **** 				( pxStreamBuffer )->xTaskWaitingToSend = NULL;							\
  86:Generated_Source\PSoC6\pdl\rtos\FreeRTOS\10.0.1\Source/stream_buffer.c **** 			}																			\
  87:Generated_Source\PSoC6\pdl\rtos\FreeRTOS\10.0.1\Source/stream_buffer.c **** 		}																				\
ARM GAS  C:\Users\adris\AppData\Local\Temp\ccnf5SFB.s 			page 3


  88:Generated_Source\PSoC6\pdl\rtos\FreeRTOS\10.0.1\Source/stream_buffer.c **** 		portCLEAR_INTERRUPT_MASK_FROM_ISR( uxSavedInterruptStatus );					\
  89:Generated_Source\PSoC6\pdl\rtos\FreeRTOS\10.0.1\Source/stream_buffer.c **** 	}
  90:Generated_Source\PSoC6\pdl\rtos\FreeRTOS\10.0.1\Source/stream_buffer.c **** #endif /* sbRECEIVE_COMPLETED_FROM_ISR */
  91:Generated_Source\PSoC6\pdl\rtos\FreeRTOS\10.0.1\Source/stream_buffer.c **** 
  92:Generated_Source\PSoC6\pdl\rtos\FreeRTOS\10.0.1\Source/stream_buffer.c **** /* If the user has not provided an application specific Tx notification macro,
  93:Generated_Source\PSoC6\pdl\rtos\FreeRTOS\10.0.1\Source/stream_buffer.c **** or #defined the notification macro away, them provide a default implementation
  94:Generated_Source\PSoC6\pdl\rtos\FreeRTOS\10.0.1\Source/stream_buffer.c **** that uses task notifications. */
  95:Generated_Source\PSoC6\pdl\rtos\FreeRTOS\10.0.1\Source/stream_buffer.c **** #ifndef sbSEND_COMPLETED
  96:Generated_Source\PSoC6\pdl\rtos\FreeRTOS\10.0.1\Source/stream_buffer.c **** 	#define sbSEND_COMPLETED( pxStreamBuffer )											\
  97:Generated_Source\PSoC6\pdl\rtos\FreeRTOS\10.0.1\Source/stream_buffer.c **** 		vTaskSuspendAll();																\
  98:Generated_Source\PSoC6\pdl\rtos\FreeRTOS\10.0.1\Source/stream_buffer.c **** 		{																				\
  99:Generated_Source\PSoC6\pdl\rtos\FreeRTOS\10.0.1\Source/stream_buffer.c **** 			if( ( pxStreamBuffer )->xTaskWaitingToReceive != NULL )						\
 100:Generated_Source\PSoC6\pdl\rtos\FreeRTOS\10.0.1\Source/stream_buffer.c **** 			{																			\
 101:Generated_Source\PSoC6\pdl\rtos\FreeRTOS\10.0.1\Source/stream_buffer.c **** 				( void ) xTaskNotify( ( pxStreamBuffer )->xTaskWaitingToReceive,		\
 102:Generated_Source\PSoC6\pdl\rtos\FreeRTOS\10.0.1\Source/stream_buffer.c **** 									  ( uint32_t ) 0,									\
 103:Generated_Source\PSoC6\pdl\rtos\FreeRTOS\10.0.1\Source/stream_buffer.c **** 									  eNoAction );										\
 104:Generated_Source\PSoC6\pdl\rtos\FreeRTOS\10.0.1\Source/stream_buffer.c **** 				( pxStreamBuffer )->xTaskWaitingToReceive = NULL;						\
 105:Generated_Source\PSoC6\pdl\rtos\FreeRTOS\10.0.1\Source/stream_buffer.c **** 			}																			\
 106:Generated_Source\PSoC6\pdl\rtos\FreeRTOS\10.0.1\Source/stream_buffer.c **** 		}																				\
 107:Generated_Source\PSoC6\pdl\rtos\FreeRTOS\10.0.1\Source/stream_buffer.c **** 		( void ) xTaskResumeAll();
 108:Generated_Source\PSoC6\pdl\rtos\FreeRTOS\10.0.1\Source/stream_buffer.c **** #endif /* sbSEND_COMPLETED */
 109:Generated_Source\PSoC6\pdl\rtos\FreeRTOS\10.0.1\Source/stream_buffer.c **** 
 110:Generated_Source\PSoC6\pdl\rtos\FreeRTOS\10.0.1\Source/stream_buffer.c **** #ifndef sbSEND_COMPLETE_FROM_ISR
 111:Generated_Source\PSoC6\pdl\rtos\FreeRTOS\10.0.1\Source/stream_buffer.c **** 	#define sbSEND_COMPLETE_FROM_ISR( pxStreamBuffer, pxHigherPriorityTaskWoken )		\
 112:Generated_Source\PSoC6\pdl\rtos\FreeRTOS\10.0.1\Source/stream_buffer.c **** 	{																					\
 113:Generated_Source\PSoC6\pdl\rtos\FreeRTOS\10.0.1\Source/stream_buffer.c **** 	UBaseType_t uxSavedInterruptStatus;													\
 114:Generated_Source\PSoC6\pdl\rtos\FreeRTOS\10.0.1\Source/stream_buffer.c **** 																						\
 115:Generated_Source\PSoC6\pdl\rtos\FreeRTOS\10.0.1\Source/stream_buffer.c **** 		uxSavedInterruptStatus = ( UBaseType_t ) portSET_INTERRUPT_MASK_FROM_ISR();		\
 116:Generated_Source\PSoC6\pdl\rtos\FreeRTOS\10.0.1\Source/stream_buffer.c **** 		{																				\
 117:Generated_Source\PSoC6\pdl\rtos\FreeRTOS\10.0.1\Source/stream_buffer.c **** 			if( ( pxStreamBuffer )->xTaskWaitingToReceive != NULL )						\
 118:Generated_Source\PSoC6\pdl\rtos\FreeRTOS\10.0.1\Source/stream_buffer.c **** 			{																			\
 119:Generated_Source\PSoC6\pdl\rtos\FreeRTOS\10.0.1\Source/stream_buffer.c **** 				( void ) xTaskNotifyFromISR( ( pxStreamBuffer )->xTaskWaitingToReceive,	\
 120:Generated_Source\PSoC6\pdl\rtos\FreeRTOS\10.0.1\Source/stream_buffer.c **** 											 ( uint32_t ) 0,							\
 121:Generated_Source\PSoC6\pdl\rtos\FreeRTOS\10.0.1\Source/stream_buffer.c **** 											 eNoAction,									\
 122:Generated_Source\PSoC6\pdl\rtos\FreeRTOS\10.0.1\Source/stream_buffer.c **** 											 pxHigherPriorityTaskWoken );				\
 123:Generated_Source\PSoC6\pdl\rtos\FreeRTOS\10.0.1\Source/stream_buffer.c **** 				( pxStreamBuffer )->xTaskWaitingToReceive = NULL;						\
 124:Generated_Source\PSoC6\pdl\rtos\FreeRTOS\10.0.1\Source/stream_buffer.c **** 			}																			\
 125:Generated_Source\PSoC6\pdl\rtos\FreeRTOS\10.0.1\Source/stream_buffer.c **** 		}																				\
 126:Generated_Source\PSoC6\pdl\rtos\FreeRTOS\10.0.1\Source/stream_buffer.c **** 		portCLEAR_INTERRUPT_MASK_FROM_ISR( uxSavedInterruptStatus );					\
 127:Generated_Source\PSoC6\pdl\rtos\FreeRTOS\10.0.1\Source/stream_buffer.c **** 	}
 128:Generated_Source\PSoC6\pdl\rtos\FreeRTOS\10.0.1\Source/stream_buffer.c **** #endif /* sbSEND_COMPLETE_FROM_ISR */
 129:Generated_Source\PSoC6\pdl\rtos\FreeRTOS\10.0.1\Source/stream_buffer.c **** /*lint -restore (9026) */
 130:Generated_Source\PSoC6\pdl\rtos\FreeRTOS\10.0.1\Source/stream_buffer.c **** 
 131:Generated_Source\PSoC6\pdl\rtos\FreeRTOS\10.0.1\Source/stream_buffer.c **** /* The number of bytes used to hold the length of a message in the buffer. */
 132:Generated_Source\PSoC6\pdl\rtos\FreeRTOS\10.0.1\Source/stream_buffer.c **** #define sbBYTES_TO_STORE_MESSAGE_LENGTH ( sizeof( size_t ) )
 133:Generated_Source\PSoC6\pdl\rtos\FreeRTOS\10.0.1\Source/stream_buffer.c **** 
 134:Generated_Source\PSoC6\pdl\rtos\FreeRTOS\10.0.1\Source/stream_buffer.c **** /* Bits stored in the ucFlags field of the stream buffer. */
 135:Generated_Source\PSoC6\pdl\rtos\FreeRTOS\10.0.1\Source/stream_buffer.c **** #define sbFLAGS_IS_MESSAGE_BUFFER		( ( uint8_t ) 1 ) /* Set if the stream buffer was created as a m
 136:Generated_Source\PSoC6\pdl\rtos\FreeRTOS\10.0.1\Source/stream_buffer.c **** #define sbFLAGS_IS_STATICALLY_ALLOCATED ( ( uint8_t ) 2 ) /* Set if the stream buffer was created u
 137:Generated_Source\PSoC6\pdl\rtos\FreeRTOS\10.0.1\Source/stream_buffer.c **** 
 138:Generated_Source\PSoC6\pdl\rtos\FreeRTOS\10.0.1\Source/stream_buffer.c **** /*-----------------------------------------------------------*/
 139:Generated_Source\PSoC6\pdl\rtos\FreeRTOS\10.0.1\Source/stream_buffer.c **** 
 140:Generated_Source\PSoC6\pdl\rtos\FreeRTOS\10.0.1\Source/stream_buffer.c **** /* Structure that hold state information on the buffer. */
 141:Generated_Source\PSoC6\pdl\rtos\FreeRTOS\10.0.1\Source/stream_buffer.c **** typedef struct xSTREAM_BUFFER /*lint !e9058 Style convention uses tag. */
 142:Generated_Source\PSoC6\pdl\rtos\FreeRTOS\10.0.1\Source/stream_buffer.c **** {
 143:Generated_Source\PSoC6\pdl\rtos\FreeRTOS\10.0.1\Source/stream_buffer.c **** 	volatile size_t xTail;				/* Index to the next item to read within the buffer. */
 144:Generated_Source\PSoC6\pdl\rtos\FreeRTOS\10.0.1\Source/stream_buffer.c **** 	volatile size_t xHead;				/* Index to the next item to write within the buffer. */
ARM GAS  C:\Users\adris\AppData\Local\Temp\ccnf5SFB.s 			page 4


 145:Generated_Source\PSoC6\pdl\rtos\FreeRTOS\10.0.1\Source/stream_buffer.c **** 	size_t xLength;						/* The length of the buffer pointed to by pucBuffer. */
 146:Generated_Source\PSoC6\pdl\rtos\FreeRTOS\10.0.1\Source/stream_buffer.c **** 	size_t xTriggerLevelBytes;			/* The number of bytes that must be in the stream buffer before a tas
 147:Generated_Source\PSoC6\pdl\rtos\FreeRTOS\10.0.1\Source/stream_buffer.c **** 	volatile TaskHandle_t xTaskWaitingToReceive; /* Holds the handle of a task waiting for data, or NU
 148:Generated_Source\PSoC6\pdl\rtos\FreeRTOS\10.0.1\Source/stream_buffer.c **** 	volatile TaskHandle_t xTaskWaitingToSend;	/* Holds the handle of a task waiting to send data to a 
 149:Generated_Source\PSoC6\pdl\rtos\FreeRTOS\10.0.1\Source/stream_buffer.c **** 	uint8_t *pucBuffer;					/* Points to the buffer itself - that is - the RAM that stores the data pa
 150:Generated_Source\PSoC6\pdl\rtos\FreeRTOS\10.0.1\Source/stream_buffer.c **** 	uint8_t ucFlags;
 151:Generated_Source\PSoC6\pdl\rtos\FreeRTOS\10.0.1\Source/stream_buffer.c **** 
 152:Generated_Source\PSoC6\pdl\rtos\FreeRTOS\10.0.1\Source/stream_buffer.c **** 	#if ( configUSE_TRACE_FACILITY == 1 )
 153:Generated_Source\PSoC6\pdl\rtos\FreeRTOS\10.0.1\Source/stream_buffer.c **** 		UBaseType_t uxStreamBufferNumber;		/* Used for tracing purposes. */
 154:Generated_Source\PSoC6\pdl\rtos\FreeRTOS\10.0.1\Source/stream_buffer.c **** 	#endif
 155:Generated_Source\PSoC6\pdl\rtos\FreeRTOS\10.0.1\Source/stream_buffer.c **** } StreamBuffer_t;
 156:Generated_Source\PSoC6\pdl\rtos\FreeRTOS\10.0.1\Source/stream_buffer.c **** 
 157:Generated_Source\PSoC6\pdl\rtos\FreeRTOS\10.0.1\Source/stream_buffer.c **** /*
 158:Generated_Source\PSoC6\pdl\rtos\FreeRTOS\10.0.1\Source/stream_buffer.c ****  * The number of bytes available to be read from the buffer.
 159:Generated_Source\PSoC6\pdl\rtos\FreeRTOS\10.0.1\Source/stream_buffer.c ****  */
 160:Generated_Source\PSoC6\pdl\rtos\FreeRTOS\10.0.1\Source/stream_buffer.c **** static size_t prvBytesInBuffer( const StreamBuffer_t * const pxStreamBuffer ) PRIVILEGED_FUNCTION;
 161:Generated_Source\PSoC6\pdl\rtos\FreeRTOS\10.0.1\Source/stream_buffer.c **** 
 162:Generated_Source\PSoC6\pdl\rtos\FreeRTOS\10.0.1\Source/stream_buffer.c **** /*
 163:Generated_Source\PSoC6\pdl\rtos\FreeRTOS\10.0.1\Source/stream_buffer.c ****  * Add xCount bytes from pucData into the pxStreamBuffer message buffer.
 164:Generated_Source\PSoC6\pdl\rtos\FreeRTOS\10.0.1\Source/stream_buffer.c ****  * Returns the number of bytes written, which will either equal xCount in the
 165:Generated_Source\PSoC6\pdl\rtos\FreeRTOS\10.0.1\Source/stream_buffer.c ****  * success case, or 0 if there was not enough space in the buffer (in which case
 166:Generated_Source\PSoC6\pdl\rtos\FreeRTOS\10.0.1\Source/stream_buffer.c ****  * no data is written into the buffer).
 167:Generated_Source\PSoC6\pdl\rtos\FreeRTOS\10.0.1\Source/stream_buffer.c ****  */
 168:Generated_Source\PSoC6\pdl\rtos\FreeRTOS\10.0.1\Source/stream_buffer.c **** static size_t prvWriteBytesToBuffer( StreamBuffer_t * const pxStreamBuffer, const uint8_t *pucData,
 169:Generated_Source\PSoC6\pdl\rtos\FreeRTOS\10.0.1\Source/stream_buffer.c **** 
 170:Generated_Source\PSoC6\pdl\rtos\FreeRTOS\10.0.1\Source/stream_buffer.c **** /*
 171:Generated_Source\PSoC6\pdl\rtos\FreeRTOS\10.0.1\Source/stream_buffer.c ****  * If the stream buffer is being used as a message buffer, then reads an entire
 172:Generated_Source\PSoC6\pdl\rtos\FreeRTOS\10.0.1\Source/stream_buffer.c ****  * message out of the buffer.  If the stream buffer is being used as a stream
 173:Generated_Source\PSoC6\pdl\rtos\FreeRTOS\10.0.1\Source/stream_buffer.c ****  * buffer then read as many bytes as possible from the buffer.
 174:Generated_Source\PSoC6\pdl\rtos\FreeRTOS\10.0.1\Source/stream_buffer.c ****  * prvReadBytesFromBuffer() is called to actually extract the bytes from the
 175:Generated_Source\PSoC6\pdl\rtos\FreeRTOS\10.0.1\Source/stream_buffer.c ****  * buffer's data storage area.
 176:Generated_Source\PSoC6\pdl\rtos\FreeRTOS\10.0.1\Source/stream_buffer.c ****  */
 177:Generated_Source\PSoC6\pdl\rtos\FreeRTOS\10.0.1\Source/stream_buffer.c **** static size_t prvReadMessageFromBuffer( StreamBuffer_t *pxStreamBuffer,
 178:Generated_Source\PSoC6\pdl\rtos\FreeRTOS\10.0.1\Source/stream_buffer.c **** 										void *pvRxData,
 179:Generated_Source\PSoC6\pdl\rtos\FreeRTOS\10.0.1\Source/stream_buffer.c **** 										size_t xBufferLengthBytes,
 180:Generated_Source\PSoC6\pdl\rtos\FreeRTOS\10.0.1\Source/stream_buffer.c **** 										size_t xBytesAvailable,
 181:Generated_Source\PSoC6\pdl\rtos\FreeRTOS\10.0.1\Source/stream_buffer.c **** 										size_t xBytesToStoreMessageLength ) PRIVILEGED_FUNCTION;
 182:Generated_Source\PSoC6\pdl\rtos\FreeRTOS\10.0.1\Source/stream_buffer.c **** 
 183:Generated_Source\PSoC6\pdl\rtos\FreeRTOS\10.0.1\Source/stream_buffer.c **** /*
 184:Generated_Source\PSoC6\pdl\rtos\FreeRTOS\10.0.1\Source/stream_buffer.c ****  * If the stream buffer is being used as a message buffer, then writes an entire
 185:Generated_Source\PSoC6\pdl\rtos\FreeRTOS\10.0.1\Source/stream_buffer.c ****  * message to the buffer.  If the stream buffer is being used as a stream
 186:Generated_Source\PSoC6\pdl\rtos\FreeRTOS\10.0.1\Source/stream_buffer.c ****  * buffer then write as many bytes as possible to the buffer.
 187:Generated_Source\PSoC6\pdl\rtos\FreeRTOS\10.0.1\Source/stream_buffer.c ****  * prvWriteBytestoBuffer() is called to actually send the bytes to the buffer's
 188:Generated_Source\PSoC6\pdl\rtos\FreeRTOS\10.0.1\Source/stream_buffer.c ****  * data storage area.
 189:Generated_Source\PSoC6\pdl\rtos\FreeRTOS\10.0.1\Source/stream_buffer.c ****  */
 190:Generated_Source\PSoC6\pdl\rtos\FreeRTOS\10.0.1\Source/stream_buffer.c **** static size_t prvWriteMessageToBuffer(  StreamBuffer_t * const pxStreamBuffer,
 191:Generated_Source\PSoC6\pdl\rtos\FreeRTOS\10.0.1\Source/stream_buffer.c **** 										const void * pvTxData,
 192:Generated_Source\PSoC6\pdl\rtos\FreeRTOS\10.0.1\Source/stream_buffer.c **** 										size_t xDataLengthBytes,
 193:Generated_Source\PSoC6\pdl\rtos\FreeRTOS\10.0.1\Source/stream_buffer.c **** 										size_t xSpace,
 194:Generated_Source\PSoC6\pdl\rtos\FreeRTOS\10.0.1\Source/stream_buffer.c **** 										size_t xRequiredSpace ) PRIVILEGED_FUNCTION;
 195:Generated_Source\PSoC6\pdl\rtos\FreeRTOS\10.0.1\Source/stream_buffer.c **** 
 196:Generated_Source\PSoC6\pdl\rtos\FreeRTOS\10.0.1\Source/stream_buffer.c **** /*
 197:Generated_Source\PSoC6\pdl\rtos\FreeRTOS\10.0.1\Source/stream_buffer.c ****  * Read xMaxCount bytes from the pxStreamBuffer message buffer and write them
 198:Generated_Source\PSoC6\pdl\rtos\FreeRTOS\10.0.1\Source/stream_buffer.c ****  * to pucData.
 199:Generated_Source\PSoC6\pdl\rtos\FreeRTOS\10.0.1\Source/stream_buffer.c ****  */
 200:Generated_Source\PSoC6\pdl\rtos\FreeRTOS\10.0.1\Source/stream_buffer.c **** static size_t prvReadBytesFromBuffer( StreamBuffer_t *pxStreamBuffer,
 201:Generated_Source\PSoC6\pdl\rtos\FreeRTOS\10.0.1\Source/stream_buffer.c **** 									  uint8_t *pucData,
ARM GAS  C:\Users\adris\AppData\Local\Temp\ccnf5SFB.s 			page 5


 202:Generated_Source\PSoC6\pdl\rtos\FreeRTOS\10.0.1\Source/stream_buffer.c **** 									  size_t xMaxCount,
 203:Generated_Source\PSoC6\pdl\rtos\FreeRTOS\10.0.1\Source/stream_buffer.c **** 									  size_t xBytesAvailable ); PRIVILEGED_FUNCTION
 204:Generated_Source\PSoC6\pdl\rtos\FreeRTOS\10.0.1\Source/stream_buffer.c **** 
 205:Generated_Source\PSoC6\pdl\rtos\FreeRTOS\10.0.1\Source/stream_buffer.c **** /*
 206:Generated_Source\PSoC6\pdl\rtos\FreeRTOS\10.0.1\Source/stream_buffer.c ****  * Called by both pxStreamBufferCreate() and pxStreamBufferCreateStatic() to
 207:Generated_Source\PSoC6\pdl\rtos\FreeRTOS\10.0.1\Source/stream_buffer.c ****  * initialise the members of the newly created stream buffer structure.
 208:Generated_Source\PSoC6\pdl\rtos\FreeRTOS\10.0.1\Source/stream_buffer.c ****  */
 209:Generated_Source\PSoC6\pdl\rtos\FreeRTOS\10.0.1\Source/stream_buffer.c **** static void prvInitialiseNewStreamBuffer( StreamBuffer_t * const pxStreamBuffer,
 210:Generated_Source\PSoC6\pdl\rtos\FreeRTOS\10.0.1\Source/stream_buffer.c **** 										  uint8_t * const pucBuffer,
 211:Generated_Source\PSoC6\pdl\rtos\FreeRTOS\10.0.1\Source/stream_buffer.c **** 										  size_t xBufferSizeBytes,
 212:Generated_Source\PSoC6\pdl\rtos\FreeRTOS\10.0.1\Source/stream_buffer.c **** 										  size_t xTriggerLevelBytes,
 213:Generated_Source\PSoC6\pdl\rtos\FreeRTOS\10.0.1\Source/stream_buffer.c **** 										  BaseType_t xIsMessageBuffer ) PRIVILEGED_FUNCTION;
 214:Generated_Source\PSoC6\pdl\rtos\FreeRTOS\10.0.1\Source/stream_buffer.c **** 
 215:Generated_Source\PSoC6\pdl\rtos\FreeRTOS\10.0.1\Source/stream_buffer.c **** /*-----------------------------------------------------------*/
 216:Generated_Source\PSoC6\pdl\rtos\FreeRTOS\10.0.1\Source/stream_buffer.c **** 
 217:Generated_Source\PSoC6\pdl\rtos\FreeRTOS\10.0.1\Source/stream_buffer.c **** #if( configSUPPORT_DYNAMIC_ALLOCATION == 1 )
 218:Generated_Source\PSoC6\pdl\rtos\FreeRTOS\10.0.1\Source/stream_buffer.c **** 
 219:Generated_Source\PSoC6\pdl\rtos\FreeRTOS\10.0.1\Source/stream_buffer.c **** 	StreamBufferHandle_t xStreamBufferGenericCreate( size_t xBufferSizeBytes, size_t xTriggerLevelByte
 220:Generated_Source\PSoC6\pdl\rtos\FreeRTOS\10.0.1\Source/stream_buffer.c **** 	{
 221:Generated_Source\PSoC6\pdl\rtos\FreeRTOS\10.0.1\Source/stream_buffer.c **** 	uint8_t *pucAllocatedMemory;
 222:Generated_Source\PSoC6\pdl\rtos\FreeRTOS\10.0.1\Source/stream_buffer.c **** 
 223:Generated_Source\PSoC6\pdl\rtos\FreeRTOS\10.0.1\Source/stream_buffer.c **** 		/* In case the stream buffer is going to be used as a message buffer
 224:Generated_Source\PSoC6\pdl\rtos\FreeRTOS\10.0.1\Source/stream_buffer.c **** 		(that is, it will hold discrete messages with a little meta data that
 225:Generated_Source\PSoC6\pdl\rtos\FreeRTOS\10.0.1\Source/stream_buffer.c **** 		says how big the next message is) check the buffer will be large enough
 226:Generated_Source\PSoC6\pdl\rtos\FreeRTOS\10.0.1\Source/stream_buffer.c **** 		to hold at least one message. */
 227:Generated_Source\PSoC6\pdl\rtos\FreeRTOS\10.0.1\Source/stream_buffer.c **** 		configASSERT( xBufferSizeBytes > sbBYTES_TO_STORE_MESSAGE_LENGTH );
 228:Generated_Source\PSoC6\pdl\rtos\FreeRTOS\10.0.1\Source/stream_buffer.c **** 		configASSERT( xTriggerLevelBytes <= xBufferSizeBytes );
 229:Generated_Source\PSoC6\pdl\rtos\FreeRTOS\10.0.1\Source/stream_buffer.c **** 
 230:Generated_Source\PSoC6\pdl\rtos\FreeRTOS\10.0.1\Source/stream_buffer.c **** 		/* A trigger level of 0 would cause a waiting task to unblock even when
 231:Generated_Source\PSoC6\pdl\rtos\FreeRTOS\10.0.1\Source/stream_buffer.c **** 		the buffer was empty. */
 232:Generated_Source\PSoC6\pdl\rtos\FreeRTOS\10.0.1\Source/stream_buffer.c **** 		if( xTriggerLevelBytes == ( size_t ) 0 )
 233:Generated_Source\PSoC6\pdl\rtos\FreeRTOS\10.0.1\Source/stream_buffer.c **** 		{
 234:Generated_Source\PSoC6\pdl\rtos\FreeRTOS\10.0.1\Source/stream_buffer.c **** 			xTriggerLevelBytes = ( size_t ) 1; /*lint !e9044 Parameter modified to ensure it doesn't have a 
 235:Generated_Source\PSoC6\pdl\rtos\FreeRTOS\10.0.1\Source/stream_buffer.c **** 		}
 236:Generated_Source\PSoC6\pdl\rtos\FreeRTOS\10.0.1\Source/stream_buffer.c **** 
 237:Generated_Source\PSoC6\pdl\rtos\FreeRTOS\10.0.1\Source/stream_buffer.c **** 		/* A stream buffer requires a StreamBuffer_t structure and a buffer.
 238:Generated_Source\PSoC6\pdl\rtos\FreeRTOS\10.0.1\Source/stream_buffer.c **** 		Both are allocated in a single call to pvPortMalloc().  The
 239:Generated_Source\PSoC6\pdl\rtos\FreeRTOS\10.0.1\Source/stream_buffer.c **** 		StreamBuffer_t structure is placed at the start of the allocated memory
 240:Generated_Source\PSoC6\pdl\rtos\FreeRTOS\10.0.1\Source/stream_buffer.c **** 		and the buffer follows immediately after.  The requested size is
 241:Generated_Source\PSoC6\pdl\rtos\FreeRTOS\10.0.1\Source/stream_buffer.c **** 		incremented so the free space is returned as the user would expect -
 242:Generated_Source\PSoC6\pdl\rtos\FreeRTOS\10.0.1\Source/stream_buffer.c **** 		this is a quirk of the implementation that means otherwise the free
 243:Generated_Source\PSoC6\pdl\rtos\FreeRTOS\10.0.1\Source/stream_buffer.c **** 		space would be reported as one byte smaller than would be logically
 244:Generated_Source\PSoC6\pdl\rtos\FreeRTOS\10.0.1\Source/stream_buffer.c **** 		expected. */
 245:Generated_Source\PSoC6\pdl\rtos\FreeRTOS\10.0.1\Source/stream_buffer.c **** 		xBufferSizeBytes++;
 246:Generated_Source\PSoC6\pdl\rtos\FreeRTOS\10.0.1\Source/stream_buffer.c **** 		pucAllocatedMemory = ( uint8_t * ) pvPortMalloc( xBufferSizeBytes + sizeof( StreamBuffer_t ) ); /
 247:Generated_Source\PSoC6\pdl\rtos\FreeRTOS\10.0.1\Source/stream_buffer.c **** 
 248:Generated_Source\PSoC6\pdl\rtos\FreeRTOS\10.0.1\Source/stream_buffer.c **** 		if( pucAllocatedMemory != NULL )
 249:Generated_Source\PSoC6\pdl\rtos\FreeRTOS\10.0.1\Source/stream_buffer.c **** 		{
 250:Generated_Source\PSoC6\pdl\rtos\FreeRTOS\10.0.1\Source/stream_buffer.c **** 			prvInitialiseNewStreamBuffer( ( StreamBuffer_t * ) pucAllocatedMemory, /* Structure at the start
 251:Generated_Source\PSoC6\pdl\rtos\FreeRTOS\10.0.1\Source/stream_buffer.c **** 										   pucAllocatedMemory + sizeof( StreamBuffer_t ),  /* Storage area follows. */ /*lint !e9
 252:Generated_Source\PSoC6\pdl\rtos\FreeRTOS\10.0.1\Source/stream_buffer.c **** 										   xBufferSizeBytes,
 253:Generated_Source\PSoC6\pdl\rtos\FreeRTOS\10.0.1\Source/stream_buffer.c **** 										   xTriggerLevelBytes,
 254:Generated_Source\PSoC6\pdl\rtos\FreeRTOS\10.0.1\Source/stream_buffer.c **** 										   xIsMessageBuffer );
 255:Generated_Source\PSoC6\pdl\rtos\FreeRTOS\10.0.1\Source/stream_buffer.c **** 
 256:Generated_Source\PSoC6\pdl\rtos\FreeRTOS\10.0.1\Source/stream_buffer.c **** 			traceSTREAM_BUFFER_CREATE( ( ( StreamBuffer_t * ) pucAllocatedMemory ), xIsMessageBuffer );
 257:Generated_Source\PSoC6\pdl\rtos\FreeRTOS\10.0.1\Source/stream_buffer.c **** 		}
 258:Generated_Source\PSoC6\pdl\rtos\FreeRTOS\10.0.1\Source/stream_buffer.c **** 		else
ARM GAS  C:\Users\adris\AppData\Local\Temp\ccnf5SFB.s 			page 6


 259:Generated_Source\PSoC6\pdl\rtos\FreeRTOS\10.0.1\Source/stream_buffer.c **** 		{
 260:Generated_Source\PSoC6\pdl\rtos\FreeRTOS\10.0.1\Source/stream_buffer.c **** 			traceSTREAM_BUFFER_CREATE_FAILED( xIsMessageBuffer );
 261:Generated_Source\PSoC6\pdl\rtos\FreeRTOS\10.0.1\Source/stream_buffer.c **** 		}
 262:Generated_Source\PSoC6\pdl\rtos\FreeRTOS\10.0.1\Source/stream_buffer.c **** 
 263:Generated_Source\PSoC6\pdl\rtos\FreeRTOS\10.0.1\Source/stream_buffer.c **** 		return ( StreamBufferHandle_t * ) pucAllocatedMemory; /*lint !e9087 !e826 Safe cast as allocated 
 264:Generated_Source\PSoC6\pdl\rtos\FreeRTOS\10.0.1\Source/stream_buffer.c **** 	}
 265:Generated_Source\PSoC6\pdl\rtos\FreeRTOS\10.0.1\Source/stream_buffer.c **** 
 266:Generated_Source\PSoC6\pdl\rtos\FreeRTOS\10.0.1\Source/stream_buffer.c **** #endif /* configSUPPORT_DYNAMIC_ALLOCATION */
 267:Generated_Source\PSoC6\pdl\rtos\FreeRTOS\10.0.1\Source/stream_buffer.c **** /*-----------------------------------------------------------*/
 268:Generated_Source\PSoC6\pdl\rtos\FreeRTOS\10.0.1\Source/stream_buffer.c **** 
 269:Generated_Source\PSoC6\pdl\rtos\FreeRTOS\10.0.1\Source/stream_buffer.c **** #if( configSUPPORT_STATIC_ALLOCATION == 1 )
 270:Generated_Source\PSoC6\pdl\rtos\FreeRTOS\10.0.1\Source/stream_buffer.c **** 
 271:Generated_Source\PSoC6\pdl\rtos\FreeRTOS\10.0.1\Source/stream_buffer.c **** 	StreamBufferHandle_t xStreamBufferGenericCreateStatic( size_t xBufferSizeBytes,
 272:Generated_Source\PSoC6\pdl\rtos\FreeRTOS\10.0.1\Source/stream_buffer.c **** 														   size_t xTriggerLevelBytes,
 273:Generated_Source\PSoC6\pdl\rtos\FreeRTOS\10.0.1\Source/stream_buffer.c **** 														   BaseType_t xIsMessageBuffer,
 274:Generated_Source\PSoC6\pdl\rtos\FreeRTOS\10.0.1\Source/stream_buffer.c **** 														   uint8_t * const pucStreamBufferStorageArea,
 275:Generated_Source\PSoC6\pdl\rtos\FreeRTOS\10.0.1\Source/stream_buffer.c **** 														   StaticStreamBuffer_t * const pxStaticStreamBuffer )
 276:Generated_Source\PSoC6\pdl\rtos\FreeRTOS\10.0.1\Source/stream_buffer.c **** 	{
 277:Generated_Source\PSoC6\pdl\rtos\FreeRTOS\10.0.1\Source/stream_buffer.c **** 	StreamBuffer_t * const pxStreamBuffer = ( StreamBuffer_t * ) pxStaticStreamBuffer; /*lint !e740 !e
 278:Generated_Source\PSoC6\pdl\rtos\FreeRTOS\10.0.1\Source/stream_buffer.c **** 	StreamBufferHandle_t xReturn;
 279:Generated_Source\PSoC6\pdl\rtos\FreeRTOS\10.0.1\Source/stream_buffer.c **** 
 280:Generated_Source\PSoC6\pdl\rtos\FreeRTOS\10.0.1\Source/stream_buffer.c **** 		configASSERT( pucStreamBufferStorageArea );
 281:Generated_Source\PSoC6\pdl\rtos\FreeRTOS\10.0.1\Source/stream_buffer.c **** 		configASSERT( pxStaticStreamBuffer );
 282:Generated_Source\PSoC6\pdl\rtos\FreeRTOS\10.0.1\Source/stream_buffer.c **** 		configASSERT( xTriggerLevelBytes <= xBufferSizeBytes );
 283:Generated_Source\PSoC6\pdl\rtos\FreeRTOS\10.0.1\Source/stream_buffer.c **** 
 284:Generated_Source\PSoC6\pdl\rtos\FreeRTOS\10.0.1\Source/stream_buffer.c **** 		/* A trigger level of 0 would cause a waiting task to unblock even when
 285:Generated_Source\PSoC6\pdl\rtos\FreeRTOS\10.0.1\Source/stream_buffer.c **** 		the buffer was empty. */
 286:Generated_Source\PSoC6\pdl\rtos\FreeRTOS\10.0.1\Source/stream_buffer.c **** 		if( xTriggerLevelBytes == ( size_t ) 0 )
 287:Generated_Source\PSoC6\pdl\rtos\FreeRTOS\10.0.1\Source/stream_buffer.c **** 		{
 288:Generated_Source\PSoC6\pdl\rtos\FreeRTOS\10.0.1\Source/stream_buffer.c **** 			xTriggerLevelBytes = ( size_t ) 1; /*lint !e9044 Function parameter deliberately modified to ens
 289:Generated_Source\PSoC6\pdl\rtos\FreeRTOS\10.0.1\Source/stream_buffer.c **** 		}
 290:Generated_Source\PSoC6\pdl\rtos\FreeRTOS\10.0.1\Source/stream_buffer.c **** 
 291:Generated_Source\PSoC6\pdl\rtos\FreeRTOS\10.0.1\Source/stream_buffer.c **** 		/* In case the stream buffer is going to be used as a message buffer
 292:Generated_Source\PSoC6\pdl\rtos\FreeRTOS\10.0.1\Source/stream_buffer.c **** 		(that is, it will hold discrete messages with a little meta data that
 293:Generated_Source\PSoC6\pdl\rtos\FreeRTOS\10.0.1\Source/stream_buffer.c **** 		says how big the next message is) check the buffer will be large enough
 294:Generated_Source\PSoC6\pdl\rtos\FreeRTOS\10.0.1\Source/stream_buffer.c **** 		to hold at least one message. */
 295:Generated_Source\PSoC6\pdl\rtos\FreeRTOS\10.0.1\Source/stream_buffer.c **** 		configASSERT( xBufferSizeBytes > sbBYTES_TO_STORE_MESSAGE_LENGTH );
 296:Generated_Source\PSoC6\pdl\rtos\FreeRTOS\10.0.1\Source/stream_buffer.c **** 
 297:Generated_Source\PSoC6\pdl\rtos\FreeRTOS\10.0.1\Source/stream_buffer.c **** 		#if( configASSERT_DEFINED == 1 )
 298:Generated_Source\PSoC6\pdl\rtos\FreeRTOS\10.0.1\Source/stream_buffer.c **** 		{
 299:Generated_Source\PSoC6\pdl\rtos\FreeRTOS\10.0.1\Source/stream_buffer.c **** 			/* Sanity check that the size of the structure used to declare a
 300:Generated_Source\PSoC6\pdl\rtos\FreeRTOS\10.0.1\Source/stream_buffer.c **** 			variable of type StaticStreamBuffer_t equals the size of the real
 301:Generated_Source\PSoC6\pdl\rtos\FreeRTOS\10.0.1\Source/stream_buffer.c **** 			message buffer structure. */
 302:Generated_Source\PSoC6\pdl\rtos\FreeRTOS\10.0.1\Source/stream_buffer.c **** 			volatile size_t xSize = sizeof( StaticStreamBuffer_t );
 303:Generated_Source\PSoC6\pdl\rtos\FreeRTOS\10.0.1\Source/stream_buffer.c **** 			configASSERT( xSize == sizeof( StreamBuffer_t ) );
 304:Generated_Source\PSoC6\pdl\rtos\FreeRTOS\10.0.1\Source/stream_buffer.c **** 		}
 305:Generated_Source\PSoC6\pdl\rtos\FreeRTOS\10.0.1\Source/stream_buffer.c **** 		#endif /* configASSERT_DEFINED */
 306:Generated_Source\PSoC6\pdl\rtos\FreeRTOS\10.0.1\Source/stream_buffer.c **** 
 307:Generated_Source\PSoC6\pdl\rtos\FreeRTOS\10.0.1\Source/stream_buffer.c **** 		if( ( pucStreamBufferStorageArea != NULL ) && ( pxStaticStreamBuffer != NULL ) )
 308:Generated_Source\PSoC6\pdl\rtos\FreeRTOS\10.0.1\Source/stream_buffer.c **** 		{
 309:Generated_Source\PSoC6\pdl\rtos\FreeRTOS\10.0.1\Source/stream_buffer.c **** 			prvInitialiseNewStreamBuffer( pxStreamBuffer,
 310:Generated_Source\PSoC6\pdl\rtos\FreeRTOS\10.0.1\Source/stream_buffer.c **** 										  pucStreamBufferStorageArea,
 311:Generated_Source\PSoC6\pdl\rtos\FreeRTOS\10.0.1\Source/stream_buffer.c **** 										  xBufferSizeBytes,
 312:Generated_Source\PSoC6\pdl\rtos\FreeRTOS\10.0.1\Source/stream_buffer.c **** 										  xTriggerLevelBytes,
 313:Generated_Source\PSoC6\pdl\rtos\FreeRTOS\10.0.1\Source/stream_buffer.c **** 										  xIsMessageBuffer );
 314:Generated_Source\PSoC6\pdl\rtos\FreeRTOS\10.0.1\Source/stream_buffer.c **** 
 315:Generated_Source\PSoC6\pdl\rtos\FreeRTOS\10.0.1\Source/stream_buffer.c **** 			/* Remember this was statically allocated in case it is ever deleted
ARM GAS  C:\Users\adris\AppData\Local\Temp\ccnf5SFB.s 			page 7


 316:Generated_Source\PSoC6\pdl\rtos\FreeRTOS\10.0.1\Source/stream_buffer.c **** 			again. */
 317:Generated_Source\PSoC6\pdl\rtos\FreeRTOS\10.0.1\Source/stream_buffer.c **** 			pxStreamBuffer->ucFlags |= sbFLAGS_IS_STATICALLY_ALLOCATED;
 318:Generated_Source\PSoC6\pdl\rtos\FreeRTOS\10.0.1\Source/stream_buffer.c **** 
 319:Generated_Source\PSoC6\pdl\rtos\FreeRTOS\10.0.1\Source/stream_buffer.c **** 			traceSTREAM_BUFFER_CREATE( pxStreamBuffer, xIsMessageBuffer );
 320:Generated_Source\PSoC6\pdl\rtos\FreeRTOS\10.0.1\Source/stream_buffer.c **** 
 321:Generated_Source\PSoC6\pdl\rtos\FreeRTOS\10.0.1\Source/stream_buffer.c **** 			xReturn = ( StreamBufferHandle_t ) pxStaticStreamBuffer; /*lint !e9087 Data hiding requires cast
 322:Generated_Source\PSoC6\pdl\rtos\FreeRTOS\10.0.1\Source/stream_buffer.c **** 		}
 323:Generated_Source\PSoC6\pdl\rtos\FreeRTOS\10.0.1\Source/stream_buffer.c **** 		else
 324:Generated_Source\PSoC6\pdl\rtos\FreeRTOS\10.0.1\Source/stream_buffer.c **** 		{
 325:Generated_Source\PSoC6\pdl\rtos\FreeRTOS\10.0.1\Source/stream_buffer.c **** 			xReturn = NULL;
 326:Generated_Source\PSoC6\pdl\rtos\FreeRTOS\10.0.1\Source/stream_buffer.c **** 			traceSTREAM_BUFFER_CREATE_STATIC_FAILED( xReturn, xIsMessageBuffer );
 327:Generated_Source\PSoC6\pdl\rtos\FreeRTOS\10.0.1\Source/stream_buffer.c **** 		}
 328:Generated_Source\PSoC6\pdl\rtos\FreeRTOS\10.0.1\Source/stream_buffer.c **** 
 329:Generated_Source\PSoC6\pdl\rtos\FreeRTOS\10.0.1\Source/stream_buffer.c **** 		return xReturn;
 330:Generated_Source\PSoC6\pdl\rtos\FreeRTOS\10.0.1\Source/stream_buffer.c **** 	}
 331:Generated_Source\PSoC6\pdl\rtos\FreeRTOS\10.0.1\Source/stream_buffer.c **** 
 332:Generated_Source\PSoC6\pdl\rtos\FreeRTOS\10.0.1\Source/stream_buffer.c **** #endif /* ( configSUPPORT_STATIC_ALLOCATION == 1 ) */
 333:Generated_Source\PSoC6\pdl\rtos\FreeRTOS\10.0.1\Source/stream_buffer.c **** /*-----------------------------------------------------------*/
 334:Generated_Source\PSoC6\pdl\rtos\FreeRTOS\10.0.1\Source/stream_buffer.c **** 
 335:Generated_Source\PSoC6\pdl\rtos\FreeRTOS\10.0.1\Source/stream_buffer.c **** void vStreamBufferDelete( StreamBufferHandle_t xStreamBuffer )
 336:Generated_Source\PSoC6\pdl\rtos\FreeRTOS\10.0.1\Source/stream_buffer.c **** {
 337:Generated_Source\PSoC6\pdl\rtos\FreeRTOS\10.0.1\Source/stream_buffer.c **** StreamBuffer_t * pxStreamBuffer = ( StreamBuffer_t * ) xStreamBuffer; /*lint !e9087 !e9079 Safe cas
 338:Generated_Source\PSoC6\pdl\rtos\FreeRTOS\10.0.1\Source/stream_buffer.c **** 
 339:Generated_Source\PSoC6\pdl\rtos\FreeRTOS\10.0.1\Source/stream_buffer.c **** 	configASSERT( pxStreamBuffer );
 340:Generated_Source\PSoC6\pdl\rtos\FreeRTOS\10.0.1\Source/stream_buffer.c **** 
 341:Generated_Source\PSoC6\pdl\rtos\FreeRTOS\10.0.1\Source/stream_buffer.c **** 	traceSTREAM_BUFFER_DELETE( xStreamBuffer );
 342:Generated_Source\PSoC6\pdl\rtos\FreeRTOS\10.0.1\Source/stream_buffer.c **** 
 343:Generated_Source\PSoC6\pdl\rtos\FreeRTOS\10.0.1\Source/stream_buffer.c **** 	if( ( pxStreamBuffer->ucFlags & sbFLAGS_IS_STATICALLY_ALLOCATED ) == ( uint8_t ) pdFALSE )
 344:Generated_Source\PSoC6\pdl\rtos\FreeRTOS\10.0.1\Source/stream_buffer.c **** 	{
 345:Generated_Source\PSoC6\pdl\rtos\FreeRTOS\10.0.1\Source/stream_buffer.c **** 		#if( configSUPPORT_DYNAMIC_ALLOCATION == 1 )
 346:Generated_Source\PSoC6\pdl\rtos\FreeRTOS\10.0.1\Source/stream_buffer.c **** 		{
 347:Generated_Source\PSoC6\pdl\rtos\FreeRTOS\10.0.1\Source/stream_buffer.c **** 			/* Both the structure and the buffer were allocated using a single call
 348:Generated_Source\PSoC6\pdl\rtos\FreeRTOS\10.0.1\Source/stream_buffer.c **** 			to pvPortMalloc(), hence only one call to vPortFree() is required. */
 349:Generated_Source\PSoC6\pdl\rtos\FreeRTOS\10.0.1\Source/stream_buffer.c **** 			vPortFree( ( void * ) pxStreamBuffer ); /*lint !e9087 Standard free() semantics require void *, 
 350:Generated_Source\PSoC6\pdl\rtos\FreeRTOS\10.0.1\Source/stream_buffer.c **** 		}
 351:Generated_Source\PSoC6\pdl\rtos\FreeRTOS\10.0.1\Source/stream_buffer.c **** 		#else
 352:Generated_Source\PSoC6\pdl\rtos\FreeRTOS\10.0.1\Source/stream_buffer.c **** 		{
 353:Generated_Source\PSoC6\pdl\rtos\FreeRTOS\10.0.1\Source/stream_buffer.c **** 			/* Should not be possible to get here, ucFlags must be corrupt.
 354:Generated_Source\PSoC6\pdl\rtos\FreeRTOS\10.0.1\Source/stream_buffer.c **** 			Force an assert. */
 355:Generated_Source\PSoC6\pdl\rtos\FreeRTOS\10.0.1\Source/stream_buffer.c **** 			configASSERT( xStreamBuffer == ( StreamBufferHandle_t ) ~0 );
 356:Generated_Source\PSoC6\pdl\rtos\FreeRTOS\10.0.1\Source/stream_buffer.c **** 		}
 357:Generated_Source\PSoC6\pdl\rtos\FreeRTOS\10.0.1\Source/stream_buffer.c **** 		#endif
 358:Generated_Source\PSoC6\pdl\rtos\FreeRTOS\10.0.1\Source/stream_buffer.c **** 	}
 359:Generated_Source\PSoC6\pdl\rtos\FreeRTOS\10.0.1\Source/stream_buffer.c **** 	else
 360:Generated_Source\PSoC6\pdl\rtos\FreeRTOS\10.0.1\Source/stream_buffer.c **** 	{
 361:Generated_Source\PSoC6\pdl\rtos\FreeRTOS\10.0.1\Source/stream_buffer.c **** 		/* The structure and buffer were not allocated dynamically and cannot be
 362:Generated_Source\PSoC6\pdl\rtos\FreeRTOS\10.0.1\Source/stream_buffer.c **** 		freed - just scrub the structure so future use will assert. */
 363:Generated_Source\PSoC6\pdl\rtos\FreeRTOS\10.0.1\Source/stream_buffer.c **** 		memset( pxStreamBuffer, 0x00, sizeof( StreamBuffer_t ) );
 364:Generated_Source\PSoC6\pdl\rtos\FreeRTOS\10.0.1\Source/stream_buffer.c **** 	}
 365:Generated_Source\PSoC6\pdl\rtos\FreeRTOS\10.0.1\Source/stream_buffer.c **** }
 366:Generated_Source\PSoC6\pdl\rtos\FreeRTOS\10.0.1\Source/stream_buffer.c **** /*-----------------------------------------------------------*/
 367:Generated_Source\PSoC6\pdl\rtos\FreeRTOS\10.0.1\Source/stream_buffer.c **** 
 368:Generated_Source\PSoC6\pdl\rtos\FreeRTOS\10.0.1\Source/stream_buffer.c **** BaseType_t xStreamBufferReset( StreamBufferHandle_t xStreamBuffer )
 369:Generated_Source\PSoC6\pdl\rtos\FreeRTOS\10.0.1\Source/stream_buffer.c **** {
 370:Generated_Source\PSoC6\pdl\rtos\FreeRTOS\10.0.1\Source/stream_buffer.c **** StreamBuffer_t * const pxStreamBuffer = ( StreamBuffer_t * ) xStreamBuffer; /*lint !e9087 !e9079 Sa
 371:Generated_Source\PSoC6\pdl\rtos\FreeRTOS\10.0.1\Source/stream_buffer.c **** BaseType_t xReturn = pdFAIL, xIsMessageBuffer;
 372:Generated_Source\PSoC6\pdl\rtos\FreeRTOS\10.0.1\Source/stream_buffer.c **** 
ARM GAS  C:\Users\adris\AppData\Local\Temp\ccnf5SFB.s 			page 8


 373:Generated_Source\PSoC6\pdl\rtos\FreeRTOS\10.0.1\Source/stream_buffer.c **** #if( configUSE_TRACE_FACILITY == 1 )
 374:Generated_Source\PSoC6\pdl\rtos\FreeRTOS\10.0.1\Source/stream_buffer.c **** 	UBaseType_t uxStreamBufferNumber;
 375:Generated_Source\PSoC6\pdl\rtos\FreeRTOS\10.0.1\Source/stream_buffer.c **** #endif
 376:Generated_Source\PSoC6\pdl\rtos\FreeRTOS\10.0.1\Source/stream_buffer.c **** 
 377:Generated_Source\PSoC6\pdl\rtos\FreeRTOS\10.0.1\Source/stream_buffer.c **** 	configASSERT( pxStreamBuffer );
 378:Generated_Source\PSoC6\pdl\rtos\FreeRTOS\10.0.1\Source/stream_buffer.c **** 
 379:Generated_Source\PSoC6\pdl\rtos\FreeRTOS\10.0.1\Source/stream_buffer.c **** 	#if( configUSE_TRACE_FACILITY == 1 )
 380:Generated_Source\PSoC6\pdl\rtos\FreeRTOS\10.0.1\Source/stream_buffer.c **** 	{
 381:Generated_Source\PSoC6\pdl\rtos\FreeRTOS\10.0.1\Source/stream_buffer.c **** 		/* Store the stream buffer number so it can be restored after the
 382:Generated_Source\PSoC6\pdl\rtos\FreeRTOS\10.0.1\Source/stream_buffer.c **** 		reset. */
 383:Generated_Source\PSoC6\pdl\rtos\FreeRTOS\10.0.1\Source/stream_buffer.c **** 		uxStreamBufferNumber = pxStreamBuffer->uxStreamBufferNumber;
 384:Generated_Source\PSoC6\pdl\rtos\FreeRTOS\10.0.1\Source/stream_buffer.c **** 	}
 385:Generated_Source\PSoC6\pdl\rtos\FreeRTOS\10.0.1\Source/stream_buffer.c **** 	#endif
 386:Generated_Source\PSoC6\pdl\rtos\FreeRTOS\10.0.1\Source/stream_buffer.c **** 
 387:Generated_Source\PSoC6\pdl\rtos\FreeRTOS\10.0.1\Source/stream_buffer.c **** 	/* Can only reset a message buffer if there are no tasks blocked on it. */
 388:Generated_Source\PSoC6\pdl\rtos\FreeRTOS\10.0.1\Source/stream_buffer.c **** 	if( pxStreamBuffer->xTaskWaitingToReceive == NULL )
 389:Generated_Source\PSoC6\pdl\rtos\FreeRTOS\10.0.1\Source/stream_buffer.c **** 	{
 390:Generated_Source\PSoC6\pdl\rtos\FreeRTOS\10.0.1\Source/stream_buffer.c **** 		if( pxStreamBuffer->xTaskWaitingToSend == NULL )
 391:Generated_Source\PSoC6\pdl\rtos\FreeRTOS\10.0.1\Source/stream_buffer.c **** 		{
 392:Generated_Source\PSoC6\pdl\rtos\FreeRTOS\10.0.1\Source/stream_buffer.c **** 			if( ( pxStreamBuffer->ucFlags & sbFLAGS_IS_MESSAGE_BUFFER ) != ( uint8_t ) 0 )
 393:Generated_Source\PSoC6\pdl\rtos\FreeRTOS\10.0.1\Source/stream_buffer.c **** 			{
 394:Generated_Source\PSoC6\pdl\rtos\FreeRTOS\10.0.1\Source/stream_buffer.c **** 				xIsMessageBuffer = pdTRUE;
 395:Generated_Source\PSoC6\pdl\rtos\FreeRTOS\10.0.1\Source/stream_buffer.c **** 			}
 396:Generated_Source\PSoC6\pdl\rtos\FreeRTOS\10.0.1\Source/stream_buffer.c **** 			else
 397:Generated_Source\PSoC6\pdl\rtos\FreeRTOS\10.0.1\Source/stream_buffer.c **** 			{
 398:Generated_Source\PSoC6\pdl\rtos\FreeRTOS\10.0.1\Source/stream_buffer.c **** 				xIsMessageBuffer = pdFALSE;
 399:Generated_Source\PSoC6\pdl\rtos\FreeRTOS\10.0.1\Source/stream_buffer.c **** 			}
 400:Generated_Source\PSoC6\pdl\rtos\FreeRTOS\10.0.1\Source/stream_buffer.c **** 
 401:Generated_Source\PSoC6\pdl\rtos\FreeRTOS\10.0.1\Source/stream_buffer.c **** 			prvInitialiseNewStreamBuffer( pxStreamBuffer,
 402:Generated_Source\PSoC6\pdl\rtos\FreeRTOS\10.0.1\Source/stream_buffer.c **** 										  pxStreamBuffer->pucBuffer,
 403:Generated_Source\PSoC6\pdl\rtos\FreeRTOS\10.0.1\Source/stream_buffer.c **** 										  pxStreamBuffer->xLength,
 404:Generated_Source\PSoC6\pdl\rtos\FreeRTOS\10.0.1\Source/stream_buffer.c **** 										  pxStreamBuffer->xTriggerLevelBytes,
 405:Generated_Source\PSoC6\pdl\rtos\FreeRTOS\10.0.1\Source/stream_buffer.c **** 										  xIsMessageBuffer );
 406:Generated_Source\PSoC6\pdl\rtos\FreeRTOS\10.0.1\Source/stream_buffer.c **** 			xReturn = pdPASS;
 407:Generated_Source\PSoC6\pdl\rtos\FreeRTOS\10.0.1\Source/stream_buffer.c **** 
 408:Generated_Source\PSoC6\pdl\rtos\FreeRTOS\10.0.1\Source/stream_buffer.c **** 			#if( configUSE_TRACE_FACILITY == 1 )
 409:Generated_Source\PSoC6\pdl\rtos\FreeRTOS\10.0.1\Source/stream_buffer.c **** 			{
 410:Generated_Source\PSoC6\pdl\rtos\FreeRTOS\10.0.1\Source/stream_buffer.c **** 				pxStreamBuffer->uxStreamBufferNumber = uxStreamBufferNumber;
 411:Generated_Source\PSoC6\pdl\rtos\FreeRTOS\10.0.1\Source/stream_buffer.c **** 			}
 412:Generated_Source\PSoC6\pdl\rtos\FreeRTOS\10.0.1\Source/stream_buffer.c **** 			#endif
 413:Generated_Source\PSoC6\pdl\rtos\FreeRTOS\10.0.1\Source/stream_buffer.c **** 
 414:Generated_Source\PSoC6\pdl\rtos\FreeRTOS\10.0.1\Source/stream_buffer.c **** 			traceSTREAM_BUFFER_RESET( xStreamBuffer );
 415:Generated_Source\PSoC6\pdl\rtos\FreeRTOS\10.0.1\Source/stream_buffer.c **** 		}
 416:Generated_Source\PSoC6\pdl\rtos\FreeRTOS\10.0.1\Source/stream_buffer.c **** 	}
 417:Generated_Source\PSoC6\pdl\rtos\FreeRTOS\10.0.1\Source/stream_buffer.c **** 
 418:Generated_Source\PSoC6\pdl\rtos\FreeRTOS\10.0.1\Source/stream_buffer.c **** 	return xReturn;
 419:Generated_Source\PSoC6\pdl\rtos\FreeRTOS\10.0.1\Source/stream_buffer.c **** }
 420:Generated_Source\PSoC6\pdl\rtos\FreeRTOS\10.0.1\Source/stream_buffer.c **** /*-----------------------------------------------------------*/
 421:Generated_Source\PSoC6\pdl\rtos\FreeRTOS\10.0.1\Source/stream_buffer.c **** 
 422:Generated_Source\PSoC6\pdl\rtos\FreeRTOS\10.0.1\Source/stream_buffer.c **** BaseType_t xStreamBufferSetTriggerLevel( StreamBufferHandle_t xStreamBuffer, size_t xTriggerLevel )
 423:Generated_Source\PSoC6\pdl\rtos\FreeRTOS\10.0.1\Source/stream_buffer.c **** {
 424:Generated_Source\PSoC6\pdl\rtos\FreeRTOS\10.0.1\Source/stream_buffer.c **** StreamBuffer_t * const pxStreamBuffer = ( StreamBuffer_t * ) xStreamBuffer; /*lint !e9087 !e9079 Sa
 425:Generated_Source\PSoC6\pdl\rtos\FreeRTOS\10.0.1\Source/stream_buffer.c **** BaseType_t xReturn;
 426:Generated_Source\PSoC6\pdl\rtos\FreeRTOS\10.0.1\Source/stream_buffer.c **** 
 427:Generated_Source\PSoC6\pdl\rtos\FreeRTOS\10.0.1\Source/stream_buffer.c **** 	configASSERT( pxStreamBuffer );
 428:Generated_Source\PSoC6\pdl\rtos\FreeRTOS\10.0.1\Source/stream_buffer.c **** 
 429:Generated_Source\PSoC6\pdl\rtos\FreeRTOS\10.0.1\Source/stream_buffer.c **** 	/* It is not valid for the trigger level to be 0. */
ARM GAS  C:\Users\adris\AppData\Local\Temp\ccnf5SFB.s 			page 9


 430:Generated_Source\PSoC6\pdl\rtos\FreeRTOS\10.0.1\Source/stream_buffer.c **** 	if( xTriggerLevel == ( size_t ) 0 )
 431:Generated_Source\PSoC6\pdl\rtos\FreeRTOS\10.0.1\Source/stream_buffer.c **** 	{
 432:Generated_Source\PSoC6\pdl\rtos\FreeRTOS\10.0.1\Source/stream_buffer.c **** 		xTriggerLevel = ( size_t ) 1; /*lint !e9044 Parameter modified to ensure it doesn't have a danger
 433:Generated_Source\PSoC6\pdl\rtos\FreeRTOS\10.0.1\Source/stream_buffer.c **** 	}
 434:Generated_Source\PSoC6\pdl\rtos\FreeRTOS\10.0.1\Source/stream_buffer.c **** 
 435:Generated_Source\PSoC6\pdl\rtos\FreeRTOS\10.0.1\Source/stream_buffer.c **** 	/* The trigger level is the number of bytes that must be in the stream
 436:Generated_Source\PSoC6\pdl\rtos\FreeRTOS\10.0.1\Source/stream_buffer.c **** 	buffer before a task that is waiting for data is unblocked. */
 437:Generated_Source\PSoC6\pdl\rtos\FreeRTOS\10.0.1\Source/stream_buffer.c **** 	if( xTriggerLevel <= pxStreamBuffer->xLength )
 438:Generated_Source\PSoC6\pdl\rtos\FreeRTOS\10.0.1\Source/stream_buffer.c **** 	{
 439:Generated_Source\PSoC6\pdl\rtos\FreeRTOS\10.0.1\Source/stream_buffer.c **** 		pxStreamBuffer->xTriggerLevelBytes = xTriggerLevel;
 440:Generated_Source\PSoC6\pdl\rtos\FreeRTOS\10.0.1\Source/stream_buffer.c **** 		xReturn = pdPASS;
 441:Generated_Source\PSoC6\pdl\rtos\FreeRTOS\10.0.1\Source/stream_buffer.c **** 	}
 442:Generated_Source\PSoC6\pdl\rtos\FreeRTOS\10.0.1\Source/stream_buffer.c **** 	else
 443:Generated_Source\PSoC6\pdl\rtos\FreeRTOS\10.0.1\Source/stream_buffer.c **** 	{
 444:Generated_Source\PSoC6\pdl\rtos\FreeRTOS\10.0.1\Source/stream_buffer.c **** 		xReturn = pdFALSE;
 445:Generated_Source\PSoC6\pdl\rtos\FreeRTOS\10.0.1\Source/stream_buffer.c **** 	}
 446:Generated_Source\PSoC6\pdl\rtos\FreeRTOS\10.0.1\Source/stream_buffer.c **** 
 447:Generated_Source\PSoC6\pdl\rtos\FreeRTOS\10.0.1\Source/stream_buffer.c **** 	return xReturn;
 448:Generated_Source\PSoC6\pdl\rtos\FreeRTOS\10.0.1\Source/stream_buffer.c **** }
 449:Generated_Source\PSoC6\pdl\rtos\FreeRTOS\10.0.1\Source/stream_buffer.c **** /*-----------------------------------------------------------*/
 450:Generated_Source\PSoC6\pdl\rtos\FreeRTOS\10.0.1\Source/stream_buffer.c **** 
 451:Generated_Source\PSoC6\pdl\rtos\FreeRTOS\10.0.1\Source/stream_buffer.c **** size_t xStreamBufferSpacesAvailable( StreamBufferHandle_t xStreamBuffer )
 452:Generated_Source\PSoC6\pdl\rtos\FreeRTOS\10.0.1\Source/stream_buffer.c **** {
 453:Generated_Source\PSoC6\pdl\rtos\FreeRTOS\10.0.1\Source/stream_buffer.c **** const StreamBuffer_t * const pxStreamBuffer = ( StreamBuffer_t * ) xStreamBuffer; /*lint !e9087 !e9
 454:Generated_Source\PSoC6\pdl\rtos\FreeRTOS\10.0.1\Source/stream_buffer.c **** size_t xSpace;
 455:Generated_Source\PSoC6\pdl\rtos\FreeRTOS\10.0.1\Source/stream_buffer.c **** 
 456:Generated_Source\PSoC6\pdl\rtos\FreeRTOS\10.0.1\Source/stream_buffer.c **** 	configASSERT( pxStreamBuffer );
 457:Generated_Source\PSoC6\pdl\rtos\FreeRTOS\10.0.1\Source/stream_buffer.c **** 
 458:Generated_Source\PSoC6\pdl\rtos\FreeRTOS\10.0.1\Source/stream_buffer.c **** 	xSpace = pxStreamBuffer->xLength + pxStreamBuffer->xTail;
 459:Generated_Source\PSoC6\pdl\rtos\FreeRTOS\10.0.1\Source/stream_buffer.c **** 	xSpace -= pxStreamBuffer->xHead;
 460:Generated_Source\PSoC6\pdl\rtos\FreeRTOS\10.0.1\Source/stream_buffer.c **** 	xSpace -= ( size_t ) 1;
 461:Generated_Source\PSoC6\pdl\rtos\FreeRTOS\10.0.1\Source/stream_buffer.c **** 
 462:Generated_Source\PSoC6\pdl\rtos\FreeRTOS\10.0.1\Source/stream_buffer.c **** 	if( xSpace >= pxStreamBuffer->xLength )
 463:Generated_Source\PSoC6\pdl\rtos\FreeRTOS\10.0.1\Source/stream_buffer.c **** 	{
 464:Generated_Source\PSoC6\pdl\rtos\FreeRTOS\10.0.1\Source/stream_buffer.c **** 		xSpace -= pxStreamBuffer->xLength;
 465:Generated_Source\PSoC6\pdl\rtos\FreeRTOS\10.0.1\Source/stream_buffer.c **** 	}
 466:Generated_Source\PSoC6\pdl\rtos\FreeRTOS\10.0.1\Source/stream_buffer.c **** 	else
 467:Generated_Source\PSoC6\pdl\rtos\FreeRTOS\10.0.1\Source/stream_buffer.c **** 	{
 468:Generated_Source\PSoC6\pdl\rtos\FreeRTOS\10.0.1\Source/stream_buffer.c **** 		mtCOVERAGE_TEST_MARKER();
 469:Generated_Source\PSoC6\pdl\rtos\FreeRTOS\10.0.1\Source/stream_buffer.c **** 	}
 470:Generated_Source\PSoC6\pdl\rtos\FreeRTOS\10.0.1\Source/stream_buffer.c **** 
 471:Generated_Source\PSoC6\pdl\rtos\FreeRTOS\10.0.1\Source/stream_buffer.c **** 	return xSpace;
 472:Generated_Source\PSoC6\pdl\rtos\FreeRTOS\10.0.1\Source/stream_buffer.c **** }
 473:Generated_Source\PSoC6\pdl\rtos\FreeRTOS\10.0.1\Source/stream_buffer.c **** /*-----------------------------------------------------------*/
 474:Generated_Source\PSoC6\pdl\rtos\FreeRTOS\10.0.1\Source/stream_buffer.c **** 
 475:Generated_Source\PSoC6\pdl\rtos\FreeRTOS\10.0.1\Source/stream_buffer.c **** size_t xStreamBufferBytesAvailable( StreamBufferHandle_t xStreamBuffer )
 476:Generated_Source\PSoC6\pdl\rtos\FreeRTOS\10.0.1\Source/stream_buffer.c **** {
 477:Generated_Source\PSoC6\pdl\rtos\FreeRTOS\10.0.1\Source/stream_buffer.c **** const StreamBuffer_t * const pxStreamBuffer = ( StreamBuffer_t * ) xStreamBuffer; /*lint !e9087 !e9
 478:Generated_Source\PSoC6\pdl\rtos\FreeRTOS\10.0.1\Source/stream_buffer.c **** size_t xReturn;
 479:Generated_Source\PSoC6\pdl\rtos\FreeRTOS\10.0.1\Source/stream_buffer.c **** 
 480:Generated_Source\PSoC6\pdl\rtos\FreeRTOS\10.0.1\Source/stream_buffer.c **** 	configASSERT( pxStreamBuffer );
 481:Generated_Source\PSoC6\pdl\rtos\FreeRTOS\10.0.1\Source/stream_buffer.c **** 
 482:Generated_Source\PSoC6\pdl\rtos\FreeRTOS\10.0.1\Source/stream_buffer.c **** 	xReturn = prvBytesInBuffer( pxStreamBuffer );
 483:Generated_Source\PSoC6\pdl\rtos\FreeRTOS\10.0.1\Source/stream_buffer.c **** 	return xReturn;
 484:Generated_Source\PSoC6\pdl\rtos\FreeRTOS\10.0.1\Source/stream_buffer.c **** }
 485:Generated_Source\PSoC6\pdl\rtos\FreeRTOS\10.0.1\Source/stream_buffer.c **** /*-----------------------------------------------------------*/
 486:Generated_Source\PSoC6\pdl\rtos\FreeRTOS\10.0.1\Source/stream_buffer.c **** 
ARM GAS  C:\Users\adris\AppData\Local\Temp\ccnf5SFB.s 			page 10


 487:Generated_Source\PSoC6\pdl\rtos\FreeRTOS\10.0.1\Source/stream_buffer.c **** size_t xStreamBufferSend( StreamBufferHandle_t xStreamBuffer,
 488:Generated_Source\PSoC6\pdl\rtos\FreeRTOS\10.0.1\Source/stream_buffer.c **** 						  const void *pvTxData,
 489:Generated_Source\PSoC6\pdl\rtos\FreeRTOS\10.0.1\Source/stream_buffer.c **** 						  size_t xDataLengthBytes,
 490:Generated_Source\PSoC6\pdl\rtos\FreeRTOS\10.0.1\Source/stream_buffer.c **** 						  TickType_t xTicksToWait )
 491:Generated_Source\PSoC6\pdl\rtos\FreeRTOS\10.0.1\Source/stream_buffer.c **** {
 492:Generated_Source\PSoC6\pdl\rtos\FreeRTOS\10.0.1\Source/stream_buffer.c **** StreamBuffer_t * const pxStreamBuffer = ( StreamBuffer_t * ) xStreamBuffer; /*lint !e9087 !e9079 Sa
 493:Generated_Source\PSoC6\pdl\rtos\FreeRTOS\10.0.1\Source/stream_buffer.c **** size_t xReturn, xSpace = 0;
 494:Generated_Source\PSoC6\pdl\rtos\FreeRTOS\10.0.1\Source/stream_buffer.c **** size_t xRequiredSpace = xDataLengthBytes;
 495:Generated_Source\PSoC6\pdl\rtos\FreeRTOS\10.0.1\Source/stream_buffer.c **** TimeOut_t xTimeOut;
 496:Generated_Source\PSoC6\pdl\rtos\FreeRTOS\10.0.1\Source/stream_buffer.c **** 
 497:Generated_Source\PSoC6\pdl\rtos\FreeRTOS\10.0.1\Source/stream_buffer.c **** 	configASSERT( pvTxData );
 498:Generated_Source\PSoC6\pdl\rtos\FreeRTOS\10.0.1\Source/stream_buffer.c **** 	configASSERT( pxStreamBuffer );
 499:Generated_Source\PSoC6\pdl\rtos\FreeRTOS\10.0.1\Source/stream_buffer.c **** 
 500:Generated_Source\PSoC6\pdl\rtos\FreeRTOS\10.0.1\Source/stream_buffer.c **** 	/* This send function is used to write to both message buffers and stream
 501:Generated_Source\PSoC6\pdl\rtos\FreeRTOS\10.0.1\Source/stream_buffer.c **** 	buffers.  If this is a message buffer then the space needed must be
 502:Generated_Source\PSoC6\pdl\rtos\FreeRTOS\10.0.1\Source/stream_buffer.c **** 	increased by the amount of bytes needed to store the length of the
 503:Generated_Source\PSoC6\pdl\rtos\FreeRTOS\10.0.1\Source/stream_buffer.c **** 	message. */
 504:Generated_Source\PSoC6\pdl\rtos\FreeRTOS\10.0.1\Source/stream_buffer.c **** 	if( ( pxStreamBuffer->ucFlags & sbFLAGS_IS_MESSAGE_BUFFER ) != ( uint8_t ) 0 )
 505:Generated_Source\PSoC6\pdl\rtos\FreeRTOS\10.0.1\Source/stream_buffer.c **** 	{
 506:Generated_Source\PSoC6\pdl\rtos\FreeRTOS\10.0.1\Source/stream_buffer.c **** 		xRequiredSpace += sbBYTES_TO_STORE_MESSAGE_LENGTH;
 507:Generated_Source\PSoC6\pdl\rtos\FreeRTOS\10.0.1\Source/stream_buffer.c **** 	}
 508:Generated_Source\PSoC6\pdl\rtos\FreeRTOS\10.0.1\Source/stream_buffer.c **** 	else
 509:Generated_Source\PSoC6\pdl\rtos\FreeRTOS\10.0.1\Source/stream_buffer.c **** 	{
 510:Generated_Source\PSoC6\pdl\rtos\FreeRTOS\10.0.1\Source/stream_buffer.c **** 		mtCOVERAGE_TEST_MARKER();
 511:Generated_Source\PSoC6\pdl\rtos\FreeRTOS\10.0.1\Source/stream_buffer.c **** 	}
 512:Generated_Source\PSoC6\pdl\rtos\FreeRTOS\10.0.1\Source/stream_buffer.c **** 
 513:Generated_Source\PSoC6\pdl\rtos\FreeRTOS\10.0.1\Source/stream_buffer.c **** 	if( xTicksToWait != ( TickType_t ) 0 )
 514:Generated_Source\PSoC6\pdl\rtos\FreeRTOS\10.0.1\Source/stream_buffer.c **** 	{
 515:Generated_Source\PSoC6\pdl\rtos\FreeRTOS\10.0.1\Source/stream_buffer.c **** 		vTaskSetTimeOutState( &xTimeOut );
 516:Generated_Source\PSoC6\pdl\rtos\FreeRTOS\10.0.1\Source/stream_buffer.c **** 
 517:Generated_Source\PSoC6\pdl\rtos\FreeRTOS\10.0.1\Source/stream_buffer.c **** 		do
 518:Generated_Source\PSoC6\pdl\rtos\FreeRTOS\10.0.1\Source/stream_buffer.c **** 		{
 519:Generated_Source\PSoC6\pdl\rtos\FreeRTOS\10.0.1\Source/stream_buffer.c **** 			/* Wait until the required number of bytes are free in the message
 520:Generated_Source\PSoC6\pdl\rtos\FreeRTOS\10.0.1\Source/stream_buffer.c **** 			buffer. */
 521:Generated_Source\PSoC6\pdl\rtos\FreeRTOS\10.0.1\Source/stream_buffer.c **** 			taskENTER_CRITICAL();
 522:Generated_Source\PSoC6\pdl\rtos\FreeRTOS\10.0.1\Source/stream_buffer.c **** 			{
 523:Generated_Source\PSoC6\pdl\rtos\FreeRTOS\10.0.1\Source/stream_buffer.c **** 				xSpace = xStreamBufferSpacesAvailable( pxStreamBuffer );
 524:Generated_Source\PSoC6\pdl\rtos\FreeRTOS\10.0.1\Source/stream_buffer.c **** 
 525:Generated_Source\PSoC6\pdl\rtos\FreeRTOS\10.0.1\Source/stream_buffer.c **** 				if( xSpace < xRequiredSpace )
 526:Generated_Source\PSoC6\pdl\rtos\FreeRTOS\10.0.1\Source/stream_buffer.c **** 				{
 527:Generated_Source\PSoC6\pdl\rtos\FreeRTOS\10.0.1\Source/stream_buffer.c **** 					/* Clear notification state as going to wait for space. */
 528:Generated_Source\PSoC6\pdl\rtos\FreeRTOS\10.0.1\Source/stream_buffer.c **** 					( void ) xTaskNotifyStateClear( NULL );
 529:Generated_Source\PSoC6\pdl\rtos\FreeRTOS\10.0.1\Source/stream_buffer.c **** 
 530:Generated_Source\PSoC6\pdl\rtos\FreeRTOS\10.0.1\Source/stream_buffer.c **** 					/* Should only be one writer. */
 531:Generated_Source\PSoC6\pdl\rtos\FreeRTOS\10.0.1\Source/stream_buffer.c **** 					configASSERT( pxStreamBuffer->xTaskWaitingToSend == NULL );
 532:Generated_Source\PSoC6\pdl\rtos\FreeRTOS\10.0.1\Source/stream_buffer.c **** 					pxStreamBuffer->xTaskWaitingToSend = xTaskGetCurrentTaskHandle();
 533:Generated_Source\PSoC6\pdl\rtos\FreeRTOS\10.0.1\Source/stream_buffer.c **** 				}
 534:Generated_Source\PSoC6\pdl\rtos\FreeRTOS\10.0.1\Source/stream_buffer.c **** 				else
 535:Generated_Source\PSoC6\pdl\rtos\FreeRTOS\10.0.1\Source/stream_buffer.c **** 				{
 536:Generated_Source\PSoC6\pdl\rtos\FreeRTOS\10.0.1\Source/stream_buffer.c **** 					taskEXIT_CRITICAL();
 537:Generated_Source\PSoC6\pdl\rtos\FreeRTOS\10.0.1\Source/stream_buffer.c **** 					break;
 538:Generated_Source\PSoC6\pdl\rtos\FreeRTOS\10.0.1\Source/stream_buffer.c **** 				}
 539:Generated_Source\PSoC6\pdl\rtos\FreeRTOS\10.0.1\Source/stream_buffer.c **** 			}
 540:Generated_Source\PSoC6\pdl\rtos\FreeRTOS\10.0.1\Source/stream_buffer.c **** 			taskEXIT_CRITICAL();
 541:Generated_Source\PSoC6\pdl\rtos\FreeRTOS\10.0.1\Source/stream_buffer.c **** 
 542:Generated_Source\PSoC6\pdl\rtos\FreeRTOS\10.0.1\Source/stream_buffer.c **** 			traceBLOCKING_ON_STREAM_BUFFER_SEND( xStreamBuffer );
 543:Generated_Source\PSoC6\pdl\rtos\FreeRTOS\10.0.1\Source/stream_buffer.c **** 			( void ) xTaskNotifyWait( ( uint32_t ) 0, UINT32_MAX, NULL, xTicksToWait );
ARM GAS  C:\Users\adris\AppData\Local\Temp\ccnf5SFB.s 			page 11


 544:Generated_Source\PSoC6\pdl\rtos\FreeRTOS\10.0.1\Source/stream_buffer.c **** 			pxStreamBuffer->xTaskWaitingToSend = NULL;
 545:Generated_Source\PSoC6\pdl\rtos\FreeRTOS\10.0.1\Source/stream_buffer.c **** 
 546:Generated_Source\PSoC6\pdl\rtos\FreeRTOS\10.0.1\Source/stream_buffer.c **** 		} while( xTaskCheckForTimeOut( &xTimeOut, &xTicksToWait ) == pdFALSE );
 547:Generated_Source\PSoC6\pdl\rtos\FreeRTOS\10.0.1\Source/stream_buffer.c **** 	}
 548:Generated_Source\PSoC6\pdl\rtos\FreeRTOS\10.0.1\Source/stream_buffer.c **** 	else
 549:Generated_Source\PSoC6\pdl\rtos\FreeRTOS\10.0.1\Source/stream_buffer.c **** 	{
 550:Generated_Source\PSoC6\pdl\rtos\FreeRTOS\10.0.1\Source/stream_buffer.c **** 		mtCOVERAGE_TEST_MARKER();
 551:Generated_Source\PSoC6\pdl\rtos\FreeRTOS\10.0.1\Source/stream_buffer.c **** 	}
 552:Generated_Source\PSoC6\pdl\rtos\FreeRTOS\10.0.1\Source/stream_buffer.c **** 
 553:Generated_Source\PSoC6\pdl\rtos\FreeRTOS\10.0.1\Source/stream_buffer.c **** 	if( xSpace == ( size_t ) 0 )
 554:Generated_Source\PSoC6\pdl\rtos\FreeRTOS\10.0.1\Source/stream_buffer.c **** 	{
 555:Generated_Source\PSoC6\pdl\rtos\FreeRTOS\10.0.1\Source/stream_buffer.c **** 		xSpace = xStreamBufferSpacesAvailable( pxStreamBuffer );
 556:Generated_Source\PSoC6\pdl\rtos\FreeRTOS\10.0.1\Source/stream_buffer.c **** 	}
 557:Generated_Source\PSoC6\pdl\rtos\FreeRTOS\10.0.1\Source/stream_buffer.c **** 	else
 558:Generated_Source\PSoC6\pdl\rtos\FreeRTOS\10.0.1\Source/stream_buffer.c **** 	{
 559:Generated_Source\PSoC6\pdl\rtos\FreeRTOS\10.0.1\Source/stream_buffer.c **** 		mtCOVERAGE_TEST_MARKER();
 560:Generated_Source\PSoC6\pdl\rtos\FreeRTOS\10.0.1\Source/stream_buffer.c **** 	}
 561:Generated_Source\PSoC6\pdl\rtos\FreeRTOS\10.0.1\Source/stream_buffer.c **** 
 562:Generated_Source\PSoC6\pdl\rtos\FreeRTOS\10.0.1\Source/stream_buffer.c **** 	xReturn = prvWriteMessageToBuffer( pxStreamBuffer, pvTxData, xDataLengthBytes, xSpace, xRequiredSp
 563:Generated_Source\PSoC6\pdl\rtos\FreeRTOS\10.0.1\Source/stream_buffer.c **** 
 564:Generated_Source\PSoC6\pdl\rtos\FreeRTOS\10.0.1\Source/stream_buffer.c **** 	if( xReturn > ( size_t ) 0 )
 565:Generated_Source\PSoC6\pdl\rtos\FreeRTOS\10.0.1\Source/stream_buffer.c **** 	{
 566:Generated_Source\PSoC6\pdl\rtos\FreeRTOS\10.0.1\Source/stream_buffer.c **** 		traceSTREAM_BUFFER_SEND( xStreamBuffer, xReturn );
 567:Generated_Source\PSoC6\pdl\rtos\FreeRTOS\10.0.1\Source/stream_buffer.c **** 
 568:Generated_Source\PSoC6\pdl\rtos\FreeRTOS\10.0.1\Source/stream_buffer.c **** 		/* Was a task waiting for the data? */
 569:Generated_Source\PSoC6\pdl\rtos\FreeRTOS\10.0.1\Source/stream_buffer.c **** 		if( prvBytesInBuffer( pxStreamBuffer ) >= pxStreamBuffer->xTriggerLevelBytes )
 570:Generated_Source\PSoC6\pdl\rtos\FreeRTOS\10.0.1\Source/stream_buffer.c **** 		{
 571:Generated_Source\PSoC6\pdl\rtos\FreeRTOS\10.0.1\Source/stream_buffer.c **** 			sbSEND_COMPLETED( pxStreamBuffer );
 572:Generated_Source\PSoC6\pdl\rtos\FreeRTOS\10.0.1\Source/stream_buffer.c **** 		}
 573:Generated_Source\PSoC6\pdl\rtos\FreeRTOS\10.0.1\Source/stream_buffer.c **** 		else
 574:Generated_Source\PSoC6\pdl\rtos\FreeRTOS\10.0.1\Source/stream_buffer.c **** 		{
 575:Generated_Source\PSoC6\pdl\rtos\FreeRTOS\10.0.1\Source/stream_buffer.c **** 			mtCOVERAGE_TEST_MARKER();
 576:Generated_Source\PSoC6\pdl\rtos\FreeRTOS\10.0.1\Source/stream_buffer.c **** 		}
 577:Generated_Source\PSoC6\pdl\rtos\FreeRTOS\10.0.1\Source/stream_buffer.c **** 	}
 578:Generated_Source\PSoC6\pdl\rtos\FreeRTOS\10.0.1\Source/stream_buffer.c **** 	else
 579:Generated_Source\PSoC6\pdl\rtos\FreeRTOS\10.0.1\Source/stream_buffer.c **** 	{
 580:Generated_Source\PSoC6\pdl\rtos\FreeRTOS\10.0.1\Source/stream_buffer.c **** 		mtCOVERAGE_TEST_MARKER();
 581:Generated_Source\PSoC6\pdl\rtos\FreeRTOS\10.0.1\Source/stream_buffer.c **** 		traceSTREAM_BUFFER_SEND_FAILED( xStreamBuffer );
 582:Generated_Source\PSoC6\pdl\rtos\FreeRTOS\10.0.1\Source/stream_buffer.c **** 	}
 583:Generated_Source\PSoC6\pdl\rtos\FreeRTOS\10.0.1\Source/stream_buffer.c **** 
 584:Generated_Source\PSoC6\pdl\rtos\FreeRTOS\10.0.1\Source/stream_buffer.c **** 	return xReturn;
 585:Generated_Source\PSoC6\pdl\rtos\FreeRTOS\10.0.1\Source/stream_buffer.c **** }
 586:Generated_Source\PSoC6\pdl\rtos\FreeRTOS\10.0.1\Source/stream_buffer.c **** /*-----------------------------------------------------------*/
 587:Generated_Source\PSoC6\pdl\rtos\FreeRTOS\10.0.1\Source/stream_buffer.c **** 
 588:Generated_Source\PSoC6\pdl\rtos\FreeRTOS\10.0.1\Source/stream_buffer.c **** size_t xStreamBufferSendFromISR( StreamBufferHandle_t xStreamBuffer,
 589:Generated_Source\PSoC6\pdl\rtos\FreeRTOS\10.0.1\Source/stream_buffer.c **** 								 const void *pvTxData,
 590:Generated_Source\PSoC6\pdl\rtos\FreeRTOS\10.0.1\Source/stream_buffer.c **** 								 size_t xDataLengthBytes,
 591:Generated_Source\PSoC6\pdl\rtos\FreeRTOS\10.0.1\Source/stream_buffer.c **** 								 BaseType_t * const pxHigherPriorityTaskWoken )
 592:Generated_Source\PSoC6\pdl\rtos\FreeRTOS\10.0.1\Source/stream_buffer.c **** {
 593:Generated_Source\PSoC6\pdl\rtos\FreeRTOS\10.0.1\Source/stream_buffer.c **** StreamBuffer_t * const pxStreamBuffer = ( StreamBuffer_t * ) xStreamBuffer; /*lint !e9087 !e9079 Sa
 594:Generated_Source\PSoC6\pdl\rtos\FreeRTOS\10.0.1\Source/stream_buffer.c **** size_t xReturn, xSpace;
 595:Generated_Source\PSoC6\pdl\rtos\FreeRTOS\10.0.1\Source/stream_buffer.c **** size_t xRequiredSpace = xDataLengthBytes;
 596:Generated_Source\PSoC6\pdl\rtos\FreeRTOS\10.0.1\Source/stream_buffer.c **** 
 597:Generated_Source\PSoC6\pdl\rtos\FreeRTOS\10.0.1\Source/stream_buffer.c **** 	configASSERT( pvTxData );
 598:Generated_Source\PSoC6\pdl\rtos\FreeRTOS\10.0.1\Source/stream_buffer.c **** 	configASSERT( pxStreamBuffer );
 599:Generated_Source\PSoC6\pdl\rtos\FreeRTOS\10.0.1\Source/stream_buffer.c **** 
 600:Generated_Source\PSoC6\pdl\rtos\FreeRTOS\10.0.1\Source/stream_buffer.c **** 	/* This send function is used to write to both message buffers and stream
ARM GAS  C:\Users\adris\AppData\Local\Temp\ccnf5SFB.s 			page 12


 601:Generated_Source\PSoC6\pdl\rtos\FreeRTOS\10.0.1\Source/stream_buffer.c **** 	buffers.  If this is a message buffer then the space needed must be
 602:Generated_Source\PSoC6\pdl\rtos\FreeRTOS\10.0.1\Source/stream_buffer.c **** 	increased by the amount of bytes needed to store the length of the
 603:Generated_Source\PSoC6\pdl\rtos\FreeRTOS\10.0.1\Source/stream_buffer.c **** 	message. */
 604:Generated_Source\PSoC6\pdl\rtos\FreeRTOS\10.0.1\Source/stream_buffer.c **** 	if( ( pxStreamBuffer->ucFlags & sbFLAGS_IS_MESSAGE_BUFFER ) != ( uint8_t ) 0 )
 605:Generated_Source\PSoC6\pdl\rtos\FreeRTOS\10.0.1\Source/stream_buffer.c **** 	{
 606:Generated_Source\PSoC6\pdl\rtos\FreeRTOS\10.0.1\Source/stream_buffer.c **** 		xRequiredSpace += sbBYTES_TO_STORE_MESSAGE_LENGTH;
 607:Generated_Source\PSoC6\pdl\rtos\FreeRTOS\10.0.1\Source/stream_buffer.c **** 	}
 608:Generated_Source\PSoC6\pdl\rtos\FreeRTOS\10.0.1\Source/stream_buffer.c **** 	else
 609:Generated_Source\PSoC6\pdl\rtos\FreeRTOS\10.0.1\Source/stream_buffer.c **** 	{
 610:Generated_Source\PSoC6\pdl\rtos\FreeRTOS\10.0.1\Source/stream_buffer.c **** 		mtCOVERAGE_TEST_MARKER();
 611:Generated_Source\PSoC6\pdl\rtos\FreeRTOS\10.0.1\Source/stream_buffer.c **** 	}
 612:Generated_Source\PSoC6\pdl\rtos\FreeRTOS\10.0.1\Source/stream_buffer.c **** 
 613:Generated_Source\PSoC6\pdl\rtos\FreeRTOS\10.0.1\Source/stream_buffer.c **** 	xSpace = xStreamBufferSpacesAvailable( pxStreamBuffer );
 614:Generated_Source\PSoC6\pdl\rtos\FreeRTOS\10.0.1\Source/stream_buffer.c **** 	xReturn = prvWriteMessageToBuffer( pxStreamBuffer, pvTxData, xDataLengthBytes, xSpace, xRequiredSp
 615:Generated_Source\PSoC6\pdl\rtos\FreeRTOS\10.0.1\Source/stream_buffer.c **** 
 616:Generated_Source\PSoC6\pdl\rtos\FreeRTOS\10.0.1\Source/stream_buffer.c **** 	if( xReturn > ( size_t ) 0 )
 617:Generated_Source\PSoC6\pdl\rtos\FreeRTOS\10.0.1\Source/stream_buffer.c **** 	{
 618:Generated_Source\PSoC6\pdl\rtos\FreeRTOS\10.0.1\Source/stream_buffer.c **** 		/* Was a task waiting for the data? */
 619:Generated_Source\PSoC6\pdl\rtos\FreeRTOS\10.0.1\Source/stream_buffer.c **** 		if( prvBytesInBuffer( pxStreamBuffer ) >= pxStreamBuffer->xTriggerLevelBytes )
 620:Generated_Source\PSoC6\pdl\rtos\FreeRTOS\10.0.1\Source/stream_buffer.c **** 		{
 621:Generated_Source\PSoC6\pdl\rtos\FreeRTOS\10.0.1\Source/stream_buffer.c **** 			sbSEND_COMPLETE_FROM_ISR( pxStreamBuffer, pxHigherPriorityTaskWoken );
 622:Generated_Source\PSoC6\pdl\rtos\FreeRTOS\10.0.1\Source/stream_buffer.c **** 		}
 623:Generated_Source\PSoC6\pdl\rtos\FreeRTOS\10.0.1\Source/stream_buffer.c **** 		else
 624:Generated_Source\PSoC6\pdl\rtos\FreeRTOS\10.0.1\Source/stream_buffer.c **** 		{
 625:Generated_Source\PSoC6\pdl\rtos\FreeRTOS\10.0.1\Source/stream_buffer.c **** 			mtCOVERAGE_TEST_MARKER();
 626:Generated_Source\PSoC6\pdl\rtos\FreeRTOS\10.0.1\Source/stream_buffer.c **** 		}
 627:Generated_Source\PSoC6\pdl\rtos\FreeRTOS\10.0.1\Source/stream_buffer.c **** 	}
 628:Generated_Source\PSoC6\pdl\rtos\FreeRTOS\10.0.1\Source/stream_buffer.c **** 	else
 629:Generated_Source\PSoC6\pdl\rtos\FreeRTOS\10.0.1\Source/stream_buffer.c **** 	{
 630:Generated_Source\PSoC6\pdl\rtos\FreeRTOS\10.0.1\Source/stream_buffer.c **** 		mtCOVERAGE_TEST_MARKER();
 631:Generated_Source\PSoC6\pdl\rtos\FreeRTOS\10.0.1\Source/stream_buffer.c **** 	}
 632:Generated_Source\PSoC6\pdl\rtos\FreeRTOS\10.0.1\Source/stream_buffer.c **** 
 633:Generated_Source\PSoC6\pdl\rtos\FreeRTOS\10.0.1\Source/stream_buffer.c **** 	traceSTREAM_BUFFER_SEND_FROM_ISR( xStreamBuffer, xReturn );
 634:Generated_Source\PSoC6\pdl\rtos\FreeRTOS\10.0.1\Source/stream_buffer.c **** 
 635:Generated_Source\PSoC6\pdl\rtos\FreeRTOS\10.0.1\Source/stream_buffer.c **** 	return xReturn;
 636:Generated_Source\PSoC6\pdl\rtos\FreeRTOS\10.0.1\Source/stream_buffer.c **** }
 637:Generated_Source\PSoC6\pdl\rtos\FreeRTOS\10.0.1\Source/stream_buffer.c **** /*-----------------------------------------------------------*/
 638:Generated_Source\PSoC6\pdl\rtos\FreeRTOS\10.0.1\Source/stream_buffer.c **** 
 639:Generated_Source\PSoC6\pdl\rtos\FreeRTOS\10.0.1\Source/stream_buffer.c **** static size_t prvWriteMessageToBuffer( StreamBuffer_t * const pxStreamBuffer,
 640:Generated_Source\PSoC6\pdl\rtos\FreeRTOS\10.0.1\Source/stream_buffer.c **** 									   const void * pvTxData,
 641:Generated_Source\PSoC6\pdl\rtos\FreeRTOS\10.0.1\Source/stream_buffer.c **** 									   size_t xDataLengthBytes,
 642:Generated_Source\PSoC6\pdl\rtos\FreeRTOS\10.0.1\Source/stream_buffer.c **** 									   size_t xSpace,
 643:Generated_Source\PSoC6\pdl\rtos\FreeRTOS\10.0.1\Source/stream_buffer.c **** 									   size_t xRequiredSpace )
 644:Generated_Source\PSoC6\pdl\rtos\FreeRTOS\10.0.1\Source/stream_buffer.c **** {
 645:Generated_Source\PSoC6\pdl\rtos\FreeRTOS\10.0.1\Source/stream_buffer.c **** 	BaseType_t xShouldWrite;
 646:Generated_Source\PSoC6\pdl\rtos\FreeRTOS\10.0.1\Source/stream_buffer.c **** 	size_t xReturn;
 647:Generated_Source\PSoC6\pdl\rtos\FreeRTOS\10.0.1\Source/stream_buffer.c **** 
 648:Generated_Source\PSoC6\pdl\rtos\FreeRTOS\10.0.1\Source/stream_buffer.c **** 	if( xSpace == ( size_t ) 0 )
 649:Generated_Source\PSoC6\pdl\rtos\FreeRTOS\10.0.1\Source/stream_buffer.c **** 	{
 650:Generated_Source\PSoC6\pdl\rtos\FreeRTOS\10.0.1\Source/stream_buffer.c **** 		/* Doesn't matter if this is a stream buffer or a message buffer, there
 651:Generated_Source\PSoC6\pdl\rtos\FreeRTOS\10.0.1\Source/stream_buffer.c **** 		is no space to write. */
 652:Generated_Source\PSoC6\pdl\rtos\FreeRTOS\10.0.1\Source/stream_buffer.c **** 		xShouldWrite = pdFALSE;
 653:Generated_Source\PSoC6\pdl\rtos\FreeRTOS\10.0.1\Source/stream_buffer.c **** 	}
 654:Generated_Source\PSoC6\pdl\rtos\FreeRTOS\10.0.1\Source/stream_buffer.c **** 	else if( ( pxStreamBuffer->ucFlags & sbFLAGS_IS_MESSAGE_BUFFER ) == ( uint8_t ) 0 )
 655:Generated_Source\PSoC6\pdl\rtos\FreeRTOS\10.0.1\Source/stream_buffer.c **** 	{
 656:Generated_Source\PSoC6\pdl\rtos\FreeRTOS\10.0.1\Source/stream_buffer.c **** 		/* This is a stream buffer, as opposed to a message buffer, so writing a
 657:Generated_Source\PSoC6\pdl\rtos\FreeRTOS\10.0.1\Source/stream_buffer.c **** 		stream of bytes rather than discrete messages.  Write as many bytes as
ARM GAS  C:\Users\adris\AppData\Local\Temp\ccnf5SFB.s 			page 13


 658:Generated_Source\PSoC6\pdl\rtos\FreeRTOS\10.0.1\Source/stream_buffer.c **** 		possible. */
 659:Generated_Source\PSoC6\pdl\rtos\FreeRTOS\10.0.1\Source/stream_buffer.c **** 		xShouldWrite = pdTRUE;
 660:Generated_Source\PSoC6\pdl\rtos\FreeRTOS\10.0.1\Source/stream_buffer.c **** 		xDataLengthBytes = configMIN( xDataLengthBytes, xSpace ); /*lint !e9044 Function parameter modifi
 661:Generated_Source\PSoC6\pdl\rtos\FreeRTOS\10.0.1\Source/stream_buffer.c **** 	}
 662:Generated_Source\PSoC6\pdl\rtos\FreeRTOS\10.0.1\Source/stream_buffer.c **** 	else if( xSpace >= xRequiredSpace )
 663:Generated_Source\PSoC6\pdl\rtos\FreeRTOS\10.0.1\Source/stream_buffer.c **** 	{
 664:Generated_Source\PSoC6\pdl\rtos\FreeRTOS\10.0.1\Source/stream_buffer.c **** 		/* This is a message buffer, as opposed to a stream buffer, and there
 665:Generated_Source\PSoC6\pdl\rtos\FreeRTOS\10.0.1\Source/stream_buffer.c **** 		is enough space to write both the message length and the message itself
 666:Generated_Source\PSoC6\pdl\rtos\FreeRTOS\10.0.1\Source/stream_buffer.c **** 		into the buffer.  Start by writing the length of the data, the data
 667:Generated_Source\PSoC6\pdl\rtos\FreeRTOS\10.0.1\Source/stream_buffer.c **** 		itself will be written later in this function. */
 668:Generated_Source\PSoC6\pdl\rtos\FreeRTOS\10.0.1\Source/stream_buffer.c **** 		xShouldWrite = pdTRUE;
 669:Generated_Source\PSoC6\pdl\rtos\FreeRTOS\10.0.1\Source/stream_buffer.c **** 		( void ) prvWriteBytesToBuffer( pxStreamBuffer, ( const uint8_t * ) &( xDataLengthBytes ), sbBYTE
 670:Generated_Source\PSoC6\pdl\rtos\FreeRTOS\10.0.1\Source/stream_buffer.c **** 	}
 671:Generated_Source\PSoC6\pdl\rtos\FreeRTOS\10.0.1\Source/stream_buffer.c **** 	else
 672:Generated_Source\PSoC6\pdl\rtos\FreeRTOS\10.0.1\Source/stream_buffer.c **** 	{
 673:Generated_Source\PSoC6\pdl\rtos\FreeRTOS\10.0.1\Source/stream_buffer.c **** 		/* There is space available, but not enough space. */
 674:Generated_Source\PSoC6\pdl\rtos\FreeRTOS\10.0.1\Source/stream_buffer.c **** 		xShouldWrite = pdFALSE;
 675:Generated_Source\PSoC6\pdl\rtos\FreeRTOS\10.0.1\Source/stream_buffer.c **** 	}
 676:Generated_Source\PSoC6\pdl\rtos\FreeRTOS\10.0.1\Source/stream_buffer.c **** 
 677:Generated_Source\PSoC6\pdl\rtos\FreeRTOS\10.0.1\Source/stream_buffer.c **** 	if( xShouldWrite != pdFALSE )
 678:Generated_Source\PSoC6\pdl\rtos\FreeRTOS\10.0.1\Source/stream_buffer.c **** 	{
 679:Generated_Source\PSoC6\pdl\rtos\FreeRTOS\10.0.1\Source/stream_buffer.c **** 		/* Writes the data itself. */
 680:Generated_Source\PSoC6\pdl\rtos\FreeRTOS\10.0.1\Source/stream_buffer.c **** 		xReturn = prvWriteBytesToBuffer( pxStreamBuffer, ( const uint8_t * ) pvTxData, xDataLengthBytes )
 681:Generated_Source\PSoC6\pdl\rtos\FreeRTOS\10.0.1\Source/stream_buffer.c **** 	}
 682:Generated_Source\PSoC6\pdl\rtos\FreeRTOS\10.0.1\Source/stream_buffer.c **** 	else
 683:Generated_Source\PSoC6\pdl\rtos\FreeRTOS\10.0.1\Source/stream_buffer.c **** 	{
 684:Generated_Source\PSoC6\pdl\rtos\FreeRTOS\10.0.1\Source/stream_buffer.c **** 		xReturn = 0;
 685:Generated_Source\PSoC6\pdl\rtos\FreeRTOS\10.0.1\Source/stream_buffer.c **** 	}
 686:Generated_Source\PSoC6\pdl\rtos\FreeRTOS\10.0.1\Source/stream_buffer.c **** 
 687:Generated_Source\PSoC6\pdl\rtos\FreeRTOS\10.0.1\Source/stream_buffer.c **** 	return xReturn;
 688:Generated_Source\PSoC6\pdl\rtos\FreeRTOS\10.0.1\Source/stream_buffer.c **** }
 689:Generated_Source\PSoC6\pdl\rtos\FreeRTOS\10.0.1\Source/stream_buffer.c **** /*-----------------------------------------------------------*/
 690:Generated_Source\PSoC6\pdl\rtos\FreeRTOS\10.0.1\Source/stream_buffer.c **** 
 691:Generated_Source\PSoC6\pdl\rtos\FreeRTOS\10.0.1\Source/stream_buffer.c **** size_t xStreamBufferReceive( StreamBufferHandle_t xStreamBuffer,
 692:Generated_Source\PSoC6\pdl\rtos\FreeRTOS\10.0.1\Source/stream_buffer.c **** 							 void *pvRxData,
 693:Generated_Source\PSoC6\pdl\rtos\FreeRTOS\10.0.1\Source/stream_buffer.c **** 							 size_t xBufferLengthBytes,
 694:Generated_Source\PSoC6\pdl\rtos\FreeRTOS\10.0.1\Source/stream_buffer.c **** 							 TickType_t xTicksToWait )
 695:Generated_Source\PSoC6\pdl\rtos\FreeRTOS\10.0.1\Source/stream_buffer.c **** {
 696:Generated_Source\PSoC6\pdl\rtos\FreeRTOS\10.0.1\Source/stream_buffer.c **** StreamBuffer_t * const pxStreamBuffer = ( StreamBuffer_t * ) xStreamBuffer; /*lint !e9087 !e9079 Sa
 697:Generated_Source\PSoC6\pdl\rtos\FreeRTOS\10.0.1\Source/stream_buffer.c **** size_t xReceivedLength = 0, xBytesAvailable, xBytesToStoreMessageLength;
 698:Generated_Source\PSoC6\pdl\rtos\FreeRTOS\10.0.1\Source/stream_buffer.c **** 
 699:Generated_Source\PSoC6\pdl\rtos\FreeRTOS\10.0.1\Source/stream_buffer.c **** 	configASSERT( pvRxData );
 700:Generated_Source\PSoC6\pdl\rtos\FreeRTOS\10.0.1\Source/stream_buffer.c **** 	configASSERT( pxStreamBuffer );
 701:Generated_Source\PSoC6\pdl\rtos\FreeRTOS\10.0.1\Source/stream_buffer.c **** 
 702:Generated_Source\PSoC6\pdl\rtos\FreeRTOS\10.0.1\Source/stream_buffer.c **** 	/* This receive function is used by both message buffers, which store
 703:Generated_Source\PSoC6\pdl\rtos\FreeRTOS\10.0.1\Source/stream_buffer.c **** 	discrete messages, and stream buffers, which store a continuous stream of
 704:Generated_Source\PSoC6\pdl\rtos\FreeRTOS\10.0.1\Source/stream_buffer.c **** 	bytes.  Discrete messages include an additional
 705:Generated_Source\PSoC6\pdl\rtos\FreeRTOS\10.0.1\Source/stream_buffer.c **** 	sbBYTES_TO_STORE_MESSAGE_LENGTH bytes that hold the length of the
 706:Generated_Source\PSoC6\pdl\rtos\FreeRTOS\10.0.1\Source/stream_buffer.c **** 	message. */
 707:Generated_Source\PSoC6\pdl\rtos\FreeRTOS\10.0.1\Source/stream_buffer.c **** 	if( ( pxStreamBuffer->ucFlags & sbFLAGS_IS_MESSAGE_BUFFER ) != ( uint8_t ) 0 )
 708:Generated_Source\PSoC6\pdl\rtos\FreeRTOS\10.0.1\Source/stream_buffer.c **** 	{
 709:Generated_Source\PSoC6\pdl\rtos\FreeRTOS\10.0.1\Source/stream_buffer.c **** 		xBytesToStoreMessageLength = sbBYTES_TO_STORE_MESSAGE_LENGTH;
 710:Generated_Source\PSoC6\pdl\rtos\FreeRTOS\10.0.1\Source/stream_buffer.c **** 	}
 711:Generated_Source\PSoC6\pdl\rtos\FreeRTOS\10.0.1\Source/stream_buffer.c **** 	else
 712:Generated_Source\PSoC6\pdl\rtos\FreeRTOS\10.0.1\Source/stream_buffer.c **** 	{
 713:Generated_Source\PSoC6\pdl\rtos\FreeRTOS\10.0.1\Source/stream_buffer.c **** 		xBytesToStoreMessageLength = 0;
 714:Generated_Source\PSoC6\pdl\rtos\FreeRTOS\10.0.1\Source/stream_buffer.c **** 	}
ARM GAS  C:\Users\adris\AppData\Local\Temp\ccnf5SFB.s 			page 14


 715:Generated_Source\PSoC6\pdl\rtos\FreeRTOS\10.0.1\Source/stream_buffer.c **** 
 716:Generated_Source\PSoC6\pdl\rtos\FreeRTOS\10.0.1\Source/stream_buffer.c **** 	if( xTicksToWait != ( TickType_t ) 0 )
 717:Generated_Source\PSoC6\pdl\rtos\FreeRTOS\10.0.1\Source/stream_buffer.c **** 	{
 718:Generated_Source\PSoC6\pdl\rtos\FreeRTOS\10.0.1\Source/stream_buffer.c **** 		/* Checking if there is data and clearing the notification state must be
 719:Generated_Source\PSoC6\pdl\rtos\FreeRTOS\10.0.1\Source/stream_buffer.c **** 		performed atomically. */
 720:Generated_Source\PSoC6\pdl\rtos\FreeRTOS\10.0.1\Source/stream_buffer.c **** 		taskENTER_CRITICAL();
 721:Generated_Source\PSoC6\pdl\rtos\FreeRTOS\10.0.1\Source/stream_buffer.c **** 		{
 722:Generated_Source\PSoC6\pdl\rtos\FreeRTOS\10.0.1\Source/stream_buffer.c **** 			xBytesAvailable = prvBytesInBuffer( pxStreamBuffer );
 723:Generated_Source\PSoC6\pdl\rtos\FreeRTOS\10.0.1\Source/stream_buffer.c **** 
 724:Generated_Source\PSoC6\pdl\rtos\FreeRTOS\10.0.1\Source/stream_buffer.c **** 			/* If this function was invoked by a message buffer read then
 725:Generated_Source\PSoC6\pdl\rtos\FreeRTOS\10.0.1\Source/stream_buffer.c **** 			xBytesToStoreMessageLength holds the number of bytes used to hold
 726:Generated_Source\PSoC6\pdl\rtos\FreeRTOS\10.0.1\Source/stream_buffer.c **** 			the length of the next discrete message.  If this function was
 727:Generated_Source\PSoC6\pdl\rtos\FreeRTOS\10.0.1\Source/stream_buffer.c **** 			invoked by a stream buffer read then xBytesToStoreMessageLength will
 728:Generated_Source\PSoC6\pdl\rtos\FreeRTOS\10.0.1\Source/stream_buffer.c **** 			be 0. */
 729:Generated_Source\PSoC6\pdl\rtos\FreeRTOS\10.0.1\Source/stream_buffer.c **** 			if( xBytesAvailable <= xBytesToStoreMessageLength )
 730:Generated_Source\PSoC6\pdl\rtos\FreeRTOS\10.0.1\Source/stream_buffer.c **** 			{
 731:Generated_Source\PSoC6\pdl\rtos\FreeRTOS\10.0.1\Source/stream_buffer.c **** 				/* Clear notification state as going to wait for data. */
 732:Generated_Source\PSoC6\pdl\rtos\FreeRTOS\10.0.1\Source/stream_buffer.c **** 				( void ) xTaskNotifyStateClear( NULL );
 733:Generated_Source\PSoC6\pdl\rtos\FreeRTOS\10.0.1\Source/stream_buffer.c **** 
 734:Generated_Source\PSoC6\pdl\rtos\FreeRTOS\10.0.1\Source/stream_buffer.c **** 				/* Should only be one reader. */
 735:Generated_Source\PSoC6\pdl\rtos\FreeRTOS\10.0.1\Source/stream_buffer.c **** 				configASSERT( pxStreamBuffer->xTaskWaitingToReceive == NULL );
 736:Generated_Source\PSoC6\pdl\rtos\FreeRTOS\10.0.1\Source/stream_buffer.c **** 				pxStreamBuffer->xTaskWaitingToReceive = xTaskGetCurrentTaskHandle();
 737:Generated_Source\PSoC6\pdl\rtos\FreeRTOS\10.0.1\Source/stream_buffer.c **** 			}
 738:Generated_Source\PSoC6\pdl\rtos\FreeRTOS\10.0.1\Source/stream_buffer.c **** 			else
 739:Generated_Source\PSoC6\pdl\rtos\FreeRTOS\10.0.1\Source/stream_buffer.c **** 			{
 740:Generated_Source\PSoC6\pdl\rtos\FreeRTOS\10.0.1\Source/stream_buffer.c **** 				mtCOVERAGE_TEST_MARKER();
 741:Generated_Source\PSoC6\pdl\rtos\FreeRTOS\10.0.1\Source/stream_buffer.c **** 			}
 742:Generated_Source\PSoC6\pdl\rtos\FreeRTOS\10.0.1\Source/stream_buffer.c **** 		}
 743:Generated_Source\PSoC6\pdl\rtos\FreeRTOS\10.0.1\Source/stream_buffer.c **** 		taskEXIT_CRITICAL();
 744:Generated_Source\PSoC6\pdl\rtos\FreeRTOS\10.0.1\Source/stream_buffer.c **** 
 745:Generated_Source\PSoC6\pdl\rtos\FreeRTOS\10.0.1\Source/stream_buffer.c **** 		if( xBytesAvailable <= xBytesToStoreMessageLength )
 746:Generated_Source\PSoC6\pdl\rtos\FreeRTOS\10.0.1\Source/stream_buffer.c **** 		{
 747:Generated_Source\PSoC6\pdl\rtos\FreeRTOS\10.0.1\Source/stream_buffer.c **** 			/* Wait for data to be available. */
 748:Generated_Source\PSoC6\pdl\rtos\FreeRTOS\10.0.1\Source/stream_buffer.c **** 			traceBLOCKING_ON_STREAM_BUFFER_RECEIVE( xStreamBuffer );
 749:Generated_Source\PSoC6\pdl\rtos\FreeRTOS\10.0.1\Source/stream_buffer.c **** 			( void ) xTaskNotifyWait( ( uint32_t ) 0, UINT32_MAX, NULL, xTicksToWait );
 750:Generated_Source\PSoC6\pdl\rtos\FreeRTOS\10.0.1\Source/stream_buffer.c **** 			pxStreamBuffer->xTaskWaitingToReceive = NULL;
 751:Generated_Source\PSoC6\pdl\rtos\FreeRTOS\10.0.1\Source/stream_buffer.c **** 
 752:Generated_Source\PSoC6\pdl\rtos\FreeRTOS\10.0.1\Source/stream_buffer.c **** 			/* Recheck the data available after blocking. */
 753:Generated_Source\PSoC6\pdl\rtos\FreeRTOS\10.0.1\Source/stream_buffer.c **** 			xBytesAvailable = prvBytesInBuffer( pxStreamBuffer );
 754:Generated_Source\PSoC6\pdl\rtos\FreeRTOS\10.0.1\Source/stream_buffer.c **** 		}
 755:Generated_Source\PSoC6\pdl\rtos\FreeRTOS\10.0.1\Source/stream_buffer.c **** 		else
 756:Generated_Source\PSoC6\pdl\rtos\FreeRTOS\10.0.1\Source/stream_buffer.c **** 		{
 757:Generated_Source\PSoC6\pdl\rtos\FreeRTOS\10.0.1\Source/stream_buffer.c **** 			mtCOVERAGE_TEST_MARKER();
 758:Generated_Source\PSoC6\pdl\rtos\FreeRTOS\10.0.1\Source/stream_buffer.c **** 		}
 759:Generated_Source\PSoC6\pdl\rtos\FreeRTOS\10.0.1\Source/stream_buffer.c **** 	}
 760:Generated_Source\PSoC6\pdl\rtos\FreeRTOS\10.0.1\Source/stream_buffer.c **** 	else
 761:Generated_Source\PSoC6\pdl\rtos\FreeRTOS\10.0.1\Source/stream_buffer.c **** 	{
 762:Generated_Source\PSoC6\pdl\rtos\FreeRTOS\10.0.1\Source/stream_buffer.c **** 		xBytesAvailable = prvBytesInBuffer( pxStreamBuffer );
 763:Generated_Source\PSoC6\pdl\rtos\FreeRTOS\10.0.1\Source/stream_buffer.c **** 	}
 764:Generated_Source\PSoC6\pdl\rtos\FreeRTOS\10.0.1\Source/stream_buffer.c **** 
 765:Generated_Source\PSoC6\pdl\rtos\FreeRTOS\10.0.1\Source/stream_buffer.c **** 	/* Whether receiving a discrete message (where xBytesToStoreMessageLength
 766:Generated_Source\PSoC6\pdl\rtos\FreeRTOS\10.0.1\Source/stream_buffer.c **** 	holds the number of bytes used to store the message length) or a stream of
 767:Generated_Source\PSoC6\pdl\rtos\FreeRTOS\10.0.1\Source/stream_buffer.c **** 	bytes (where xBytesToStoreMessageLength is zero), the number of bytes
 768:Generated_Source\PSoC6\pdl\rtos\FreeRTOS\10.0.1\Source/stream_buffer.c **** 	available must be greater than xBytesToStoreMessageLength to be able to
 769:Generated_Source\PSoC6\pdl\rtos\FreeRTOS\10.0.1\Source/stream_buffer.c **** 	read bytes from the buffer. */
 770:Generated_Source\PSoC6\pdl\rtos\FreeRTOS\10.0.1\Source/stream_buffer.c **** 	if( xBytesAvailable > xBytesToStoreMessageLength )
 771:Generated_Source\PSoC6\pdl\rtos\FreeRTOS\10.0.1\Source/stream_buffer.c **** 	{
ARM GAS  C:\Users\adris\AppData\Local\Temp\ccnf5SFB.s 			page 15


 772:Generated_Source\PSoC6\pdl\rtos\FreeRTOS\10.0.1\Source/stream_buffer.c **** 		xReceivedLength = prvReadMessageFromBuffer( pxStreamBuffer, pvRxData, xBufferLengthBytes, xBytesA
 773:Generated_Source\PSoC6\pdl\rtos\FreeRTOS\10.0.1\Source/stream_buffer.c **** 
 774:Generated_Source\PSoC6\pdl\rtos\FreeRTOS\10.0.1\Source/stream_buffer.c **** 		/* Was a task waiting for space in the buffer? */
 775:Generated_Source\PSoC6\pdl\rtos\FreeRTOS\10.0.1\Source/stream_buffer.c **** 		if( xReceivedLength != ( size_t ) 0 )
 776:Generated_Source\PSoC6\pdl\rtos\FreeRTOS\10.0.1\Source/stream_buffer.c **** 		{
 777:Generated_Source\PSoC6\pdl\rtos\FreeRTOS\10.0.1\Source/stream_buffer.c **** 			traceSTREAM_BUFFER_RECEIVE( xStreamBuffer, xReceivedLength );
 778:Generated_Source\PSoC6\pdl\rtos\FreeRTOS\10.0.1\Source/stream_buffer.c **** 			sbRECEIVE_COMPLETED( pxStreamBuffer );
 779:Generated_Source\PSoC6\pdl\rtos\FreeRTOS\10.0.1\Source/stream_buffer.c **** 		}
 780:Generated_Source\PSoC6\pdl\rtos\FreeRTOS\10.0.1\Source/stream_buffer.c **** 		else
 781:Generated_Source\PSoC6\pdl\rtos\FreeRTOS\10.0.1\Source/stream_buffer.c **** 		{
 782:Generated_Source\PSoC6\pdl\rtos\FreeRTOS\10.0.1\Source/stream_buffer.c **** 			mtCOVERAGE_TEST_MARKER();
 783:Generated_Source\PSoC6\pdl\rtos\FreeRTOS\10.0.1\Source/stream_buffer.c **** 		}
 784:Generated_Source\PSoC6\pdl\rtos\FreeRTOS\10.0.1\Source/stream_buffer.c **** 	}
 785:Generated_Source\PSoC6\pdl\rtos\FreeRTOS\10.0.1\Source/stream_buffer.c **** 	else
 786:Generated_Source\PSoC6\pdl\rtos\FreeRTOS\10.0.1\Source/stream_buffer.c **** 	{
 787:Generated_Source\PSoC6\pdl\rtos\FreeRTOS\10.0.1\Source/stream_buffer.c **** 		traceSTREAM_BUFFER_RECEIVE_FAILED( xStreamBuffer );
 788:Generated_Source\PSoC6\pdl\rtos\FreeRTOS\10.0.1\Source/stream_buffer.c **** 		mtCOVERAGE_TEST_MARKER();
 789:Generated_Source\PSoC6\pdl\rtos\FreeRTOS\10.0.1\Source/stream_buffer.c **** 	}
 790:Generated_Source\PSoC6\pdl\rtos\FreeRTOS\10.0.1\Source/stream_buffer.c **** 
 791:Generated_Source\PSoC6\pdl\rtos\FreeRTOS\10.0.1\Source/stream_buffer.c **** 	return xReceivedLength;
 792:Generated_Source\PSoC6\pdl\rtos\FreeRTOS\10.0.1\Source/stream_buffer.c **** }
 793:Generated_Source\PSoC6\pdl\rtos\FreeRTOS\10.0.1\Source/stream_buffer.c **** /*-----------------------------------------------------------*/
 794:Generated_Source\PSoC6\pdl\rtos\FreeRTOS\10.0.1\Source/stream_buffer.c **** 
 795:Generated_Source\PSoC6\pdl\rtos\FreeRTOS\10.0.1\Source/stream_buffer.c **** size_t xStreamBufferReceiveFromISR( StreamBufferHandle_t xStreamBuffer,
 796:Generated_Source\PSoC6\pdl\rtos\FreeRTOS\10.0.1\Source/stream_buffer.c **** 									void *pvRxData,
 797:Generated_Source\PSoC6\pdl\rtos\FreeRTOS\10.0.1\Source/stream_buffer.c **** 									size_t xBufferLengthBytes,
 798:Generated_Source\PSoC6\pdl\rtos\FreeRTOS\10.0.1\Source/stream_buffer.c **** 									BaseType_t * const pxHigherPriorityTaskWoken )
 799:Generated_Source\PSoC6\pdl\rtos\FreeRTOS\10.0.1\Source/stream_buffer.c **** {
 800:Generated_Source\PSoC6\pdl\rtos\FreeRTOS\10.0.1\Source/stream_buffer.c **** StreamBuffer_t * const pxStreamBuffer = ( StreamBuffer_t * ) xStreamBuffer; /*lint !e9087 !e9079 Sa
 801:Generated_Source\PSoC6\pdl\rtos\FreeRTOS\10.0.1\Source/stream_buffer.c **** size_t xReceivedLength = 0, xBytesAvailable, xBytesToStoreMessageLength;
 802:Generated_Source\PSoC6\pdl\rtos\FreeRTOS\10.0.1\Source/stream_buffer.c **** 
 803:Generated_Source\PSoC6\pdl\rtos\FreeRTOS\10.0.1\Source/stream_buffer.c **** 	configASSERT( pvRxData );
 804:Generated_Source\PSoC6\pdl\rtos\FreeRTOS\10.0.1\Source/stream_buffer.c **** 	configASSERT( pxStreamBuffer );
 805:Generated_Source\PSoC6\pdl\rtos\FreeRTOS\10.0.1\Source/stream_buffer.c **** 
 806:Generated_Source\PSoC6\pdl\rtos\FreeRTOS\10.0.1\Source/stream_buffer.c **** 	/* This receive function is used by both message buffers, which store
 807:Generated_Source\PSoC6\pdl\rtos\FreeRTOS\10.0.1\Source/stream_buffer.c **** 	discrete messages, and stream buffers, which store a continuous stream of
 808:Generated_Source\PSoC6\pdl\rtos\FreeRTOS\10.0.1\Source/stream_buffer.c **** 	bytes.  Discrete messages include an additional
 809:Generated_Source\PSoC6\pdl\rtos\FreeRTOS\10.0.1\Source/stream_buffer.c **** 	sbBYTES_TO_STORE_MESSAGE_LENGTH bytes that hold the length of the
 810:Generated_Source\PSoC6\pdl\rtos\FreeRTOS\10.0.1\Source/stream_buffer.c **** 	message. */
 811:Generated_Source\PSoC6\pdl\rtos\FreeRTOS\10.0.1\Source/stream_buffer.c **** 	if( ( pxStreamBuffer->ucFlags & sbFLAGS_IS_MESSAGE_BUFFER ) != ( uint8_t ) 0 )
 812:Generated_Source\PSoC6\pdl\rtos\FreeRTOS\10.0.1\Source/stream_buffer.c **** 	{
 813:Generated_Source\PSoC6\pdl\rtos\FreeRTOS\10.0.1\Source/stream_buffer.c **** 		xBytesToStoreMessageLength = sbBYTES_TO_STORE_MESSAGE_LENGTH;
 814:Generated_Source\PSoC6\pdl\rtos\FreeRTOS\10.0.1\Source/stream_buffer.c **** 	}
 815:Generated_Source\PSoC6\pdl\rtos\FreeRTOS\10.0.1\Source/stream_buffer.c **** 	else
 816:Generated_Source\PSoC6\pdl\rtos\FreeRTOS\10.0.1\Source/stream_buffer.c **** 	{
 817:Generated_Source\PSoC6\pdl\rtos\FreeRTOS\10.0.1\Source/stream_buffer.c **** 		xBytesToStoreMessageLength = 0;
 818:Generated_Source\PSoC6\pdl\rtos\FreeRTOS\10.0.1\Source/stream_buffer.c **** 	}
 819:Generated_Source\PSoC6\pdl\rtos\FreeRTOS\10.0.1\Source/stream_buffer.c **** 
 820:Generated_Source\PSoC6\pdl\rtos\FreeRTOS\10.0.1\Source/stream_buffer.c **** 	xBytesAvailable = prvBytesInBuffer( pxStreamBuffer );
 821:Generated_Source\PSoC6\pdl\rtos\FreeRTOS\10.0.1\Source/stream_buffer.c **** 
 822:Generated_Source\PSoC6\pdl\rtos\FreeRTOS\10.0.1\Source/stream_buffer.c **** 	/* Whether receiving a discrete message (where xBytesToStoreMessageLength
 823:Generated_Source\PSoC6\pdl\rtos\FreeRTOS\10.0.1\Source/stream_buffer.c **** 	holds the number of bytes used to store the message length) or a stream of
 824:Generated_Source\PSoC6\pdl\rtos\FreeRTOS\10.0.1\Source/stream_buffer.c **** 	bytes (where xBytesToStoreMessageLength is zero), the number of bytes
 825:Generated_Source\PSoC6\pdl\rtos\FreeRTOS\10.0.1\Source/stream_buffer.c **** 	available must be greater than xBytesToStoreMessageLength to be able to
 826:Generated_Source\PSoC6\pdl\rtos\FreeRTOS\10.0.1\Source/stream_buffer.c **** 	read bytes from the buffer. */
 827:Generated_Source\PSoC6\pdl\rtos\FreeRTOS\10.0.1\Source/stream_buffer.c **** 	if( xBytesAvailable > xBytesToStoreMessageLength )
 828:Generated_Source\PSoC6\pdl\rtos\FreeRTOS\10.0.1\Source/stream_buffer.c **** 	{
ARM GAS  C:\Users\adris\AppData\Local\Temp\ccnf5SFB.s 			page 16


 829:Generated_Source\PSoC6\pdl\rtos\FreeRTOS\10.0.1\Source/stream_buffer.c **** 		xReceivedLength = prvReadMessageFromBuffer( pxStreamBuffer, pvRxData, xBufferLengthBytes, xBytesA
 830:Generated_Source\PSoC6\pdl\rtos\FreeRTOS\10.0.1\Source/stream_buffer.c **** 
 831:Generated_Source\PSoC6\pdl\rtos\FreeRTOS\10.0.1\Source/stream_buffer.c **** 		/* Was a task waiting for space in the buffer? */
 832:Generated_Source\PSoC6\pdl\rtos\FreeRTOS\10.0.1\Source/stream_buffer.c **** 		if( xReceivedLength != ( size_t ) 0 )
 833:Generated_Source\PSoC6\pdl\rtos\FreeRTOS\10.0.1\Source/stream_buffer.c **** 		{
 834:Generated_Source\PSoC6\pdl\rtos\FreeRTOS\10.0.1\Source/stream_buffer.c **** 			sbRECEIVE_COMPLETED_FROM_ISR( pxStreamBuffer, pxHigherPriorityTaskWoken );
 835:Generated_Source\PSoC6\pdl\rtos\FreeRTOS\10.0.1\Source/stream_buffer.c **** 		}
 836:Generated_Source\PSoC6\pdl\rtos\FreeRTOS\10.0.1\Source/stream_buffer.c **** 		else
 837:Generated_Source\PSoC6\pdl\rtos\FreeRTOS\10.0.1\Source/stream_buffer.c **** 		{
 838:Generated_Source\PSoC6\pdl\rtos\FreeRTOS\10.0.1\Source/stream_buffer.c **** 			mtCOVERAGE_TEST_MARKER();
 839:Generated_Source\PSoC6\pdl\rtos\FreeRTOS\10.0.1\Source/stream_buffer.c **** 		}
 840:Generated_Source\PSoC6\pdl\rtos\FreeRTOS\10.0.1\Source/stream_buffer.c **** 	}
 841:Generated_Source\PSoC6\pdl\rtos\FreeRTOS\10.0.1\Source/stream_buffer.c **** 	else
 842:Generated_Source\PSoC6\pdl\rtos\FreeRTOS\10.0.1\Source/stream_buffer.c **** 	{
 843:Generated_Source\PSoC6\pdl\rtos\FreeRTOS\10.0.1\Source/stream_buffer.c **** 		mtCOVERAGE_TEST_MARKER();
 844:Generated_Source\PSoC6\pdl\rtos\FreeRTOS\10.0.1\Source/stream_buffer.c **** 	}
 845:Generated_Source\PSoC6\pdl\rtos\FreeRTOS\10.0.1\Source/stream_buffer.c **** 
 846:Generated_Source\PSoC6\pdl\rtos\FreeRTOS\10.0.1\Source/stream_buffer.c **** 	traceSTREAM_BUFFER_RECEIVE_FROM_ISR( xStreamBuffer, xReceivedLength );
 847:Generated_Source\PSoC6\pdl\rtos\FreeRTOS\10.0.1\Source/stream_buffer.c **** 
 848:Generated_Source\PSoC6\pdl\rtos\FreeRTOS\10.0.1\Source/stream_buffer.c **** 	return xReceivedLength;
 849:Generated_Source\PSoC6\pdl\rtos\FreeRTOS\10.0.1\Source/stream_buffer.c **** }
 850:Generated_Source\PSoC6\pdl\rtos\FreeRTOS\10.0.1\Source/stream_buffer.c **** /*-----------------------------------------------------------*/
 851:Generated_Source\PSoC6\pdl\rtos\FreeRTOS\10.0.1\Source/stream_buffer.c **** 
 852:Generated_Source\PSoC6\pdl\rtos\FreeRTOS\10.0.1\Source/stream_buffer.c **** static size_t prvReadMessageFromBuffer( StreamBuffer_t *pxStreamBuffer,
 853:Generated_Source\PSoC6\pdl\rtos\FreeRTOS\10.0.1\Source/stream_buffer.c **** 										void *pvRxData,
 854:Generated_Source\PSoC6\pdl\rtos\FreeRTOS\10.0.1\Source/stream_buffer.c **** 										size_t xBufferLengthBytes,
 855:Generated_Source\PSoC6\pdl\rtos\FreeRTOS\10.0.1\Source/stream_buffer.c **** 										size_t xBytesAvailable,
 856:Generated_Source\PSoC6\pdl\rtos\FreeRTOS\10.0.1\Source/stream_buffer.c **** 										size_t xBytesToStoreMessageLength )
 857:Generated_Source\PSoC6\pdl\rtos\FreeRTOS\10.0.1\Source/stream_buffer.c **** {
 858:Generated_Source\PSoC6\pdl\rtos\FreeRTOS\10.0.1\Source/stream_buffer.c **** size_t xOriginalTail, xReceivedLength, xNextMessageLength;
 859:Generated_Source\PSoC6\pdl\rtos\FreeRTOS\10.0.1\Source/stream_buffer.c **** 
 860:Generated_Source\PSoC6\pdl\rtos\FreeRTOS\10.0.1\Source/stream_buffer.c **** 	if( xBytesToStoreMessageLength != ( size_t ) 0 )
 861:Generated_Source\PSoC6\pdl\rtos\FreeRTOS\10.0.1\Source/stream_buffer.c **** 	{
 862:Generated_Source\PSoC6\pdl\rtos\FreeRTOS\10.0.1\Source/stream_buffer.c **** 		/* A discrete message is being received.  First receive the length
 863:Generated_Source\PSoC6\pdl\rtos\FreeRTOS\10.0.1\Source/stream_buffer.c **** 		of the message.  A copy of the tail is stored so the buffer can be
 864:Generated_Source\PSoC6\pdl\rtos\FreeRTOS\10.0.1\Source/stream_buffer.c **** 		returned to its prior state if the length of the message is too
 865:Generated_Source\PSoC6\pdl\rtos\FreeRTOS\10.0.1\Source/stream_buffer.c **** 		large for the provided buffer. */
 866:Generated_Source\PSoC6\pdl\rtos\FreeRTOS\10.0.1\Source/stream_buffer.c **** 		xOriginalTail = pxStreamBuffer->xTail;
 867:Generated_Source\PSoC6\pdl\rtos\FreeRTOS\10.0.1\Source/stream_buffer.c **** 		( void ) prvReadBytesFromBuffer( pxStreamBuffer, ( uint8_t * ) &xNextMessageLength, xBytesToStore
 868:Generated_Source\PSoC6\pdl\rtos\FreeRTOS\10.0.1\Source/stream_buffer.c **** 
 869:Generated_Source\PSoC6\pdl\rtos\FreeRTOS\10.0.1\Source/stream_buffer.c **** 		/* Reduce the number of bytes available by the number of bytes just
 870:Generated_Source\PSoC6\pdl\rtos\FreeRTOS\10.0.1\Source/stream_buffer.c **** 		read out. */
 871:Generated_Source\PSoC6\pdl\rtos\FreeRTOS\10.0.1\Source/stream_buffer.c **** 		xBytesAvailable -= xBytesToStoreMessageLength;
 872:Generated_Source\PSoC6\pdl\rtos\FreeRTOS\10.0.1\Source/stream_buffer.c **** 
 873:Generated_Source\PSoC6\pdl\rtos\FreeRTOS\10.0.1\Source/stream_buffer.c **** 		/* Check there is enough space in the buffer provided by the
 874:Generated_Source\PSoC6\pdl\rtos\FreeRTOS\10.0.1\Source/stream_buffer.c **** 		user. */
 875:Generated_Source\PSoC6\pdl\rtos\FreeRTOS\10.0.1\Source/stream_buffer.c **** 		if( xNextMessageLength > xBufferLengthBytes )
 876:Generated_Source\PSoC6\pdl\rtos\FreeRTOS\10.0.1\Source/stream_buffer.c **** 		{
 877:Generated_Source\PSoC6\pdl\rtos\FreeRTOS\10.0.1\Source/stream_buffer.c **** 			/* The user has provided insufficient space to read the message
 878:Generated_Source\PSoC6\pdl\rtos\FreeRTOS\10.0.1\Source/stream_buffer.c **** 			so return the buffer to its previous state (so the length of
 879:Generated_Source\PSoC6\pdl\rtos\FreeRTOS\10.0.1\Source/stream_buffer.c **** 			the message is in the buffer again). */
 880:Generated_Source\PSoC6\pdl\rtos\FreeRTOS\10.0.1\Source/stream_buffer.c **** 			pxStreamBuffer->xTail = xOriginalTail;
 881:Generated_Source\PSoC6\pdl\rtos\FreeRTOS\10.0.1\Source/stream_buffer.c **** 			xNextMessageLength = 0;
 882:Generated_Source\PSoC6\pdl\rtos\FreeRTOS\10.0.1\Source/stream_buffer.c **** 		}
 883:Generated_Source\PSoC6\pdl\rtos\FreeRTOS\10.0.1\Source/stream_buffer.c **** 		else
 884:Generated_Source\PSoC6\pdl\rtos\FreeRTOS\10.0.1\Source/stream_buffer.c **** 		{
 885:Generated_Source\PSoC6\pdl\rtos\FreeRTOS\10.0.1\Source/stream_buffer.c **** 			mtCOVERAGE_TEST_MARKER();
ARM GAS  C:\Users\adris\AppData\Local\Temp\ccnf5SFB.s 			page 17


 886:Generated_Source\PSoC6\pdl\rtos\FreeRTOS\10.0.1\Source/stream_buffer.c **** 		}
 887:Generated_Source\PSoC6\pdl\rtos\FreeRTOS\10.0.1\Source/stream_buffer.c **** 	}
 888:Generated_Source\PSoC6\pdl\rtos\FreeRTOS\10.0.1\Source/stream_buffer.c **** 	else
 889:Generated_Source\PSoC6\pdl\rtos\FreeRTOS\10.0.1\Source/stream_buffer.c **** 	{
 890:Generated_Source\PSoC6\pdl\rtos\FreeRTOS\10.0.1\Source/stream_buffer.c **** 		/* A stream of bytes is being received (as opposed to a discrete
 891:Generated_Source\PSoC6\pdl\rtos\FreeRTOS\10.0.1\Source/stream_buffer.c **** 		message), so read as many bytes as possible. */
 892:Generated_Source\PSoC6\pdl\rtos\FreeRTOS\10.0.1\Source/stream_buffer.c **** 		xNextMessageLength = xBufferLengthBytes;
 893:Generated_Source\PSoC6\pdl\rtos\FreeRTOS\10.0.1\Source/stream_buffer.c **** 	}
 894:Generated_Source\PSoC6\pdl\rtos\FreeRTOS\10.0.1\Source/stream_buffer.c **** 
 895:Generated_Source\PSoC6\pdl\rtos\FreeRTOS\10.0.1\Source/stream_buffer.c **** 	/* Read the actual data. */
 896:Generated_Source\PSoC6\pdl\rtos\FreeRTOS\10.0.1\Source/stream_buffer.c **** 	xReceivedLength = prvReadBytesFromBuffer( pxStreamBuffer, ( uint8_t * ) pvRxData, xNextMessageLeng
 897:Generated_Source\PSoC6\pdl\rtos\FreeRTOS\10.0.1\Source/stream_buffer.c **** 
 898:Generated_Source\PSoC6\pdl\rtos\FreeRTOS\10.0.1\Source/stream_buffer.c **** 	return xReceivedLength;
 899:Generated_Source\PSoC6\pdl\rtos\FreeRTOS\10.0.1\Source/stream_buffer.c **** }
 900:Generated_Source\PSoC6\pdl\rtos\FreeRTOS\10.0.1\Source/stream_buffer.c **** /*-----------------------------------------------------------*/
 901:Generated_Source\PSoC6\pdl\rtos\FreeRTOS\10.0.1\Source/stream_buffer.c **** 
 902:Generated_Source\PSoC6\pdl\rtos\FreeRTOS\10.0.1\Source/stream_buffer.c **** BaseType_t xStreamBufferIsEmpty( StreamBufferHandle_t xStreamBuffer )
 903:Generated_Source\PSoC6\pdl\rtos\FreeRTOS\10.0.1\Source/stream_buffer.c **** {
 904:Generated_Source\PSoC6\pdl\rtos\FreeRTOS\10.0.1\Source/stream_buffer.c **** const StreamBuffer_t * const pxStreamBuffer = ( StreamBuffer_t * ) xStreamBuffer; /*lint !e9087 !e9
 905:Generated_Source\PSoC6\pdl\rtos\FreeRTOS\10.0.1\Source/stream_buffer.c **** BaseType_t xReturn;
 906:Generated_Source\PSoC6\pdl\rtos\FreeRTOS\10.0.1\Source/stream_buffer.c **** size_t xTail;
 907:Generated_Source\PSoC6\pdl\rtos\FreeRTOS\10.0.1\Source/stream_buffer.c **** 
 908:Generated_Source\PSoC6\pdl\rtos\FreeRTOS\10.0.1\Source/stream_buffer.c **** 	configASSERT( pxStreamBuffer );
 909:Generated_Source\PSoC6\pdl\rtos\FreeRTOS\10.0.1\Source/stream_buffer.c **** 
 910:Generated_Source\PSoC6\pdl\rtos\FreeRTOS\10.0.1\Source/stream_buffer.c **** 	/* True if no bytes are available. */
 911:Generated_Source\PSoC6\pdl\rtos\FreeRTOS\10.0.1\Source/stream_buffer.c **** 	xTail = pxStreamBuffer->xTail;
 912:Generated_Source\PSoC6\pdl\rtos\FreeRTOS\10.0.1\Source/stream_buffer.c **** 	if( pxStreamBuffer->xHead == xTail )
 913:Generated_Source\PSoC6\pdl\rtos\FreeRTOS\10.0.1\Source/stream_buffer.c **** 	{
 914:Generated_Source\PSoC6\pdl\rtos\FreeRTOS\10.0.1\Source/stream_buffer.c **** 		xReturn = pdTRUE;
 915:Generated_Source\PSoC6\pdl\rtos\FreeRTOS\10.0.1\Source/stream_buffer.c **** 	}
 916:Generated_Source\PSoC6\pdl\rtos\FreeRTOS\10.0.1\Source/stream_buffer.c **** 	else
 917:Generated_Source\PSoC6\pdl\rtos\FreeRTOS\10.0.1\Source/stream_buffer.c **** 	{
 918:Generated_Source\PSoC6\pdl\rtos\FreeRTOS\10.0.1\Source/stream_buffer.c **** 		xReturn = pdFALSE;
 919:Generated_Source\PSoC6\pdl\rtos\FreeRTOS\10.0.1\Source/stream_buffer.c **** 	}
 920:Generated_Source\PSoC6\pdl\rtos\FreeRTOS\10.0.1\Source/stream_buffer.c **** 
 921:Generated_Source\PSoC6\pdl\rtos\FreeRTOS\10.0.1\Source/stream_buffer.c **** 	return xReturn;
 922:Generated_Source\PSoC6\pdl\rtos\FreeRTOS\10.0.1\Source/stream_buffer.c **** }
 923:Generated_Source\PSoC6\pdl\rtos\FreeRTOS\10.0.1\Source/stream_buffer.c **** /*-----------------------------------------------------------*/
 924:Generated_Source\PSoC6\pdl\rtos\FreeRTOS\10.0.1\Source/stream_buffer.c **** 
 925:Generated_Source\PSoC6\pdl\rtos\FreeRTOS\10.0.1\Source/stream_buffer.c **** BaseType_t xStreamBufferIsFull( StreamBufferHandle_t xStreamBuffer )
 926:Generated_Source\PSoC6\pdl\rtos\FreeRTOS\10.0.1\Source/stream_buffer.c **** {
 927:Generated_Source\PSoC6\pdl\rtos\FreeRTOS\10.0.1\Source/stream_buffer.c **** BaseType_t xReturn;
 928:Generated_Source\PSoC6\pdl\rtos\FreeRTOS\10.0.1\Source/stream_buffer.c **** size_t xBytesToStoreMessageLength;
 929:Generated_Source\PSoC6\pdl\rtos\FreeRTOS\10.0.1\Source/stream_buffer.c **** const StreamBuffer_t * const pxStreamBuffer = ( StreamBuffer_t * ) xStreamBuffer; /*lint !e9087 !e9
 930:Generated_Source\PSoC6\pdl\rtos\FreeRTOS\10.0.1\Source/stream_buffer.c **** 
 931:Generated_Source\PSoC6\pdl\rtos\FreeRTOS\10.0.1\Source/stream_buffer.c **** 	configASSERT( pxStreamBuffer );
 932:Generated_Source\PSoC6\pdl\rtos\FreeRTOS\10.0.1\Source/stream_buffer.c **** 
 933:Generated_Source\PSoC6\pdl\rtos\FreeRTOS\10.0.1\Source/stream_buffer.c **** 	/* This generic version of the receive function is used by both message
 934:Generated_Source\PSoC6\pdl\rtos\FreeRTOS\10.0.1\Source/stream_buffer.c **** 	buffers, which store discrete messages, and stream buffers, which store a
 935:Generated_Source\PSoC6\pdl\rtos\FreeRTOS\10.0.1\Source/stream_buffer.c **** 	continuous stream of bytes.  Discrete messages include an additional
 936:Generated_Source\PSoC6\pdl\rtos\FreeRTOS\10.0.1\Source/stream_buffer.c **** 	sbBYTES_TO_STORE_MESSAGE_LENGTH bytes that hold the length of the message. */
 937:Generated_Source\PSoC6\pdl\rtos\FreeRTOS\10.0.1\Source/stream_buffer.c **** 	if( ( pxStreamBuffer->ucFlags & sbFLAGS_IS_MESSAGE_BUFFER ) != ( uint8_t ) 0 )
 938:Generated_Source\PSoC6\pdl\rtos\FreeRTOS\10.0.1\Source/stream_buffer.c **** 	{
 939:Generated_Source\PSoC6\pdl\rtos\FreeRTOS\10.0.1\Source/stream_buffer.c **** 		xBytesToStoreMessageLength = sbBYTES_TO_STORE_MESSAGE_LENGTH;
 940:Generated_Source\PSoC6\pdl\rtos\FreeRTOS\10.0.1\Source/stream_buffer.c **** 	}
 941:Generated_Source\PSoC6\pdl\rtos\FreeRTOS\10.0.1\Source/stream_buffer.c **** 	else
 942:Generated_Source\PSoC6\pdl\rtos\FreeRTOS\10.0.1\Source/stream_buffer.c **** 	{
ARM GAS  C:\Users\adris\AppData\Local\Temp\ccnf5SFB.s 			page 18


 943:Generated_Source\PSoC6\pdl\rtos\FreeRTOS\10.0.1\Source/stream_buffer.c **** 		xBytesToStoreMessageLength = 0;
 944:Generated_Source\PSoC6\pdl\rtos\FreeRTOS\10.0.1\Source/stream_buffer.c **** 	}
 945:Generated_Source\PSoC6\pdl\rtos\FreeRTOS\10.0.1\Source/stream_buffer.c **** 
 946:Generated_Source\PSoC6\pdl\rtos\FreeRTOS\10.0.1\Source/stream_buffer.c **** 	/* True if the available space equals zero. */
 947:Generated_Source\PSoC6\pdl\rtos\FreeRTOS\10.0.1\Source/stream_buffer.c **** 	if( xStreamBufferSpacesAvailable( xStreamBuffer ) <= xBytesToStoreMessageLength )
 948:Generated_Source\PSoC6\pdl\rtos\FreeRTOS\10.0.1\Source/stream_buffer.c **** 	{
 949:Generated_Source\PSoC6\pdl\rtos\FreeRTOS\10.0.1\Source/stream_buffer.c **** 		xReturn = pdTRUE;
 950:Generated_Source\PSoC6\pdl\rtos\FreeRTOS\10.0.1\Source/stream_buffer.c **** 	}
 951:Generated_Source\PSoC6\pdl\rtos\FreeRTOS\10.0.1\Source/stream_buffer.c **** 	else
 952:Generated_Source\PSoC6\pdl\rtos\FreeRTOS\10.0.1\Source/stream_buffer.c **** 	{
 953:Generated_Source\PSoC6\pdl\rtos\FreeRTOS\10.0.1\Source/stream_buffer.c **** 		xReturn = pdFALSE;
 954:Generated_Source\PSoC6\pdl\rtos\FreeRTOS\10.0.1\Source/stream_buffer.c **** 	}
 955:Generated_Source\PSoC6\pdl\rtos\FreeRTOS\10.0.1\Source/stream_buffer.c **** 
 956:Generated_Source\PSoC6\pdl\rtos\FreeRTOS\10.0.1\Source/stream_buffer.c **** 	return xReturn;
 957:Generated_Source\PSoC6\pdl\rtos\FreeRTOS\10.0.1\Source/stream_buffer.c **** }
 958:Generated_Source\PSoC6\pdl\rtos\FreeRTOS\10.0.1\Source/stream_buffer.c **** /*-----------------------------------------------------------*/
 959:Generated_Source\PSoC6\pdl\rtos\FreeRTOS\10.0.1\Source/stream_buffer.c **** 
 960:Generated_Source\PSoC6\pdl\rtos\FreeRTOS\10.0.1\Source/stream_buffer.c **** BaseType_t xStreamBufferSendCompletedFromISR( StreamBufferHandle_t xStreamBuffer, BaseType_t *pxHig
 961:Generated_Source\PSoC6\pdl\rtos\FreeRTOS\10.0.1\Source/stream_buffer.c **** {
 962:Generated_Source\PSoC6\pdl\rtos\FreeRTOS\10.0.1\Source/stream_buffer.c **** StreamBuffer_t * const pxStreamBuffer = ( StreamBuffer_t * ) xStreamBuffer; /*lint !e9087 !e9079 Sa
 963:Generated_Source\PSoC6\pdl\rtos\FreeRTOS\10.0.1\Source/stream_buffer.c **** BaseType_t xReturn;
 964:Generated_Source\PSoC6\pdl\rtos\FreeRTOS\10.0.1\Source/stream_buffer.c **** UBaseType_t uxSavedInterruptStatus;
 965:Generated_Source\PSoC6\pdl\rtos\FreeRTOS\10.0.1\Source/stream_buffer.c **** 
 966:Generated_Source\PSoC6\pdl\rtos\FreeRTOS\10.0.1\Source/stream_buffer.c **** 	configASSERT( pxStreamBuffer );
 967:Generated_Source\PSoC6\pdl\rtos\FreeRTOS\10.0.1\Source/stream_buffer.c **** 
 968:Generated_Source\PSoC6\pdl\rtos\FreeRTOS\10.0.1\Source/stream_buffer.c **** 	uxSavedInterruptStatus = ( UBaseType_t ) portSET_INTERRUPT_MASK_FROM_ISR();
 969:Generated_Source\PSoC6\pdl\rtos\FreeRTOS\10.0.1\Source/stream_buffer.c **** 	{
 970:Generated_Source\PSoC6\pdl\rtos\FreeRTOS\10.0.1\Source/stream_buffer.c **** 		if( ( pxStreamBuffer )->xTaskWaitingToReceive != NULL )
 971:Generated_Source\PSoC6\pdl\rtos\FreeRTOS\10.0.1\Source/stream_buffer.c **** 		{
 972:Generated_Source\PSoC6\pdl\rtos\FreeRTOS\10.0.1\Source/stream_buffer.c **** 			( void ) xTaskNotifyFromISR( ( pxStreamBuffer )->xTaskWaitingToReceive,
 973:Generated_Source\PSoC6\pdl\rtos\FreeRTOS\10.0.1\Source/stream_buffer.c **** 										 ( uint32_t ) 0,
 974:Generated_Source\PSoC6\pdl\rtos\FreeRTOS\10.0.1\Source/stream_buffer.c **** 										 eNoAction,
 975:Generated_Source\PSoC6\pdl\rtos\FreeRTOS\10.0.1\Source/stream_buffer.c **** 										 pxHigherPriorityTaskWoken );
 976:Generated_Source\PSoC6\pdl\rtos\FreeRTOS\10.0.1\Source/stream_buffer.c **** 			( pxStreamBuffer )->xTaskWaitingToReceive = NULL;
 977:Generated_Source\PSoC6\pdl\rtos\FreeRTOS\10.0.1\Source/stream_buffer.c **** 			xReturn = pdTRUE;
 978:Generated_Source\PSoC6\pdl\rtos\FreeRTOS\10.0.1\Source/stream_buffer.c **** 		}
 979:Generated_Source\PSoC6\pdl\rtos\FreeRTOS\10.0.1\Source/stream_buffer.c **** 		else
 980:Generated_Source\PSoC6\pdl\rtos\FreeRTOS\10.0.1\Source/stream_buffer.c **** 		{
 981:Generated_Source\PSoC6\pdl\rtos\FreeRTOS\10.0.1\Source/stream_buffer.c **** 			xReturn = pdFALSE;
 982:Generated_Source\PSoC6\pdl\rtos\FreeRTOS\10.0.1\Source/stream_buffer.c **** 		}
 983:Generated_Source\PSoC6\pdl\rtos\FreeRTOS\10.0.1\Source/stream_buffer.c **** 	}
 984:Generated_Source\PSoC6\pdl\rtos\FreeRTOS\10.0.1\Source/stream_buffer.c **** 	portCLEAR_INTERRUPT_MASK_FROM_ISR( uxSavedInterruptStatus );
 985:Generated_Source\PSoC6\pdl\rtos\FreeRTOS\10.0.1\Source/stream_buffer.c **** 
 986:Generated_Source\PSoC6\pdl\rtos\FreeRTOS\10.0.1\Source/stream_buffer.c **** 	return xReturn;
 987:Generated_Source\PSoC6\pdl\rtos\FreeRTOS\10.0.1\Source/stream_buffer.c **** }
 988:Generated_Source\PSoC6\pdl\rtos\FreeRTOS\10.0.1\Source/stream_buffer.c **** /*-----------------------------------------------------------*/
 989:Generated_Source\PSoC6\pdl\rtos\FreeRTOS\10.0.1\Source/stream_buffer.c **** 
 990:Generated_Source\PSoC6\pdl\rtos\FreeRTOS\10.0.1\Source/stream_buffer.c **** BaseType_t xStreamBufferReceiveCompletedFromISR( StreamBufferHandle_t xStreamBuffer, BaseType_t *px
 991:Generated_Source\PSoC6\pdl\rtos\FreeRTOS\10.0.1\Source/stream_buffer.c **** {
 992:Generated_Source\PSoC6\pdl\rtos\FreeRTOS\10.0.1\Source/stream_buffer.c **** StreamBuffer_t * const pxStreamBuffer = ( StreamBuffer_t * ) xStreamBuffer; /*lint !e9087 !e9079 Sa
 993:Generated_Source\PSoC6\pdl\rtos\FreeRTOS\10.0.1\Source/stream_buffer.c **** BaseType_t xReturn;
 994:Generated_Source\PSoC6\pdl\rtos\FreeRTOS\10.0.1\Source/stream_buffer.c **** UBaseType_t uxSavedInterruptStatus;
 995:Generated_Source\PSoC6\pdl\rtos\FreeRTOS\10.0.1\Source/stream_buffer.c **** 
 996:Generated_Source\PSoC6\pdl\rtos\FreeRTOS\10.0.1\Source/stream_buffer.c **** 	configASSERT( pxStreamBuffer );
 997:Generated_Source\PSoC6\pdl\rtos\FreeRTOS\10.0.1\Source/stream_buffer.c **** 
 998:Generated_Source\PSoC6\pdl\rtos\FreeRTOS\10.0.1\Source/stream_buffer.c **** 	uxSavedInterruptStatus = ( UBaseType_t ) portSET_INTERRUPT_MASK_FROM_ISR();
 999:Generated_Source\PSoC6\pdl\rtos\FreeRTOS\10.0.1\Source/stream_buffer.c **** 	{
ARM GAS  C:\Users\adris\AppData\Local\Temp\ccnf5SFB.s 			page 19


1000:Generated_Source\PSoC6\pdl\rtos\FreeRTOS\10.0.1\Source/stream_buffer.c **** 		if( ( pxStreamBuffer )->xTaskWaitingToSend != NULL )
1001:Generated_Source\PSoC6\pdl\rtos\FreeRTOS\10.0.1\Source/stream_buffer.c **** 		{
1002:Generated_Source\PSoC6\pdl\rtos\FreeRTOS\10.0.1\Source/stream_buffer.c **** 			( void ) xTaskNotifyFromISR( ( pxStreamBuffer )->xTaskWaitingToSend,
1003:Generated_Source\PSoC6\pdl\rtos\FreeRTOS\10.0.1\Source/stream_buffer.c **** 										 ( uint32_t ) 0,
1004:Generated_Source\PSoC6\pdl\rtos\FreeRTOS\10.0.1\Source/stream_buffer.c **** 										 eNoAction,
1005:Generated_Source\PSoC6\pdl\rtos\FreeRTOS\10.0.1\Source/stream_buffer.c **** 										 pxHigherPriorityTaskWoken );
1006:Generated_Source\PSoC6\pdl\rtos\FreeRTOS\10.0.1\Source/stream_buffer.c **** 			( pxStreamBuffer )->xTaskWaitingToSend = NULL;
1007:Generated_Source\PSoC6\pdl\rtos\FreeRTOS\10.0.1\Source/stream_buffer.c **** 			xReturn = pdTRUE;
1008:Generated_Source\PSoC6\pdl\rtos\FreeRTOS\10.0.1\Source/stream_buffer.c **** 		}
1009:Generated_Source\PSoC6\pdl\rtos\FreeRTOS\10.0.1\Source/stream_buffer.c **** 		else
1010:Generated_Source\PSoC6\pdl\rtos\FreeRTOS\10.0.1\Source/stream_buffer.c **** 		{
1011:Generated_Source\PSoC6\pdl\rtos\FreeRTOS\10.0.1\Source/stream_buffer.c **** 			xReturn = pdFALSE;
1012:Generated_Source\PSoC6\pdl\rtos\FreeRTOS\10.0.1\Source/stream_buffer.c **** 		}
1013:Generated_Source\PSoC6\pdl\rtos\FreeRTOS\10.0.1\Source/stream_buffer.c **** 	}
1014:Generated_Source\PSoC6\pdl\rtos\FreeRTOS\10.0.1\Source/stream_buffer.c **** 	portCLEAR_INTERRUPT_MASK_FROM_ISR( uxSavedInterruptStatus );
1015:Generated_Source\PSoC6\pdl\rtos\FreeRTOS\10.0.1\Source/stream_buffer.c **** 
1016:Generated_Source\PSoC6\pdl\rtos\FreeRTOS\10.0.1\Source/stream_buffer.c **** 	return xReturn;
1017:Generated_Source\PSoC6\pdl\rtos\FreeRTOS\10.0.1\Source/stream_buffer.c **** }
1018:Generated_Source\PSoC6\pdl\rtos\FreeRTOS\10.0.1\Source/stream_buffer.c **** /*-----------------------------------------------------------*/
1019:Generated_Source\PSoC6\pdl\rtos\FreeRTOS\10.0.1\Source/stream_buffer.c **** 
1020:Generated_Source\PSoC6\pdl\rtos\FreeRTOS\10.0.1\Source/stream_buffer.c **** static size_t prvWriteBytesToBuffer( StreamBuffer_t * const pxStreamBuffer, const uint8_t *pucData,
1021:Generated_Source\PSoC6\pdl\rtos\FreeRTOS\10.0.1\Source/stream_buffer.c **** {
1022:Generated_Source\PSoC6\pdl\rtos\FreeRTOS\10.0.1\Source/stream_buffer.c **** size_t xNextHead, xFirstLength;
1023:Generated_Source\PSoC6\pdl\rtos\FreeRTOS\10.0.1\Source/stream_buffer.c **** 
1024:Generated_Source\PSoC6\pdl\rtos\FreeRTOS\10.0.1\Source/stream_buffer.c **** 	configASSERT( xCount > ( size_t ) 0 );
1025:Generated_Source\PSoC6\pdl\rtos\FreeRTOS\10.0.1\Source/stream_buffer.c **** 
1026:Generated_Source\PSoC6\pdl\rtos\FreeRTOS\10.0.1\Source/stream_buffer.c **** 	xNextHead = pxStreamBuffer->xHead;
1027:Generated_Source\PSoC6\pdl\rtos\FreeRTOS\10.0.1\Source/stream_buffer.c **** 
1028:Generated_Source\PSoC6\pdl\rtos\FreeRTOS\10.0.1\Source/stream_buffer.c **** 	/* Calculate the number of bytes that can be added in the first write -
1029:Generated_Source\PSoC6\pdl\rtos\FreeRTOS\10.0.1\Source/stream_buffer.c **** 	which may be less than the total number of bytes that need to be added if
1030:Generated_Source\PSoC6\pdl\rtos\FreeRTOS\10.0.1\Source/stream_buffer.c **** 	the buffer will wrap back to the beginning. */
1031:Generated_Source\PSoC6\pdl\rtos\FreeRTOS\10.0.1\Source/stream_buffer.c **** 	xFirstLength = configMIN( pxStreamBuffer->xLength - xNextHead, xCount );
1032:Generated_Source\PSoC6\pdl\rtos\FreeRTOS\10.0.1\Source/stream_buffer.c **** 
1033:Generated_Source\PSoC6\pdl\rtos\FreeRTOS\10.0.1\Source/stream_buffer.c **** 	/* Write as many bytes as can be written in the first write. */
1034:Generated_Source\PSoC6\pdl\rtos\FreeRTOS\10.0.1\Source/stream_buffer.c **** 	configASSERT( ( xNextHead + xFirstLength ) <= pxStreamBuffer->xLength );
1035:Generated_Source\PSoC6\pdl\rtos\FreeRTOS\10.0.1\Source/stream_buffer.c **** 	memcpy( ( void* ) ( &( pxStreamBuffer->pucBuffer[ xNextHead ] ) ), ( const void * ) pucData, xFirs
1036:Generated_Source\PSoC6\pdl\rtos\FreeRTOS\10.0.1\Source/stream_buffer.c **** 
1037:Generated_Source\PSoC6\pdl\rtos\FreeRTOS\10.0.1\Source/stream_buffer.c **** 	/* If the number of bytes written was less than the number that could be
1038:Generated_Source\PSoC6\pdl\rtos\FreeRTOS\10.0.1\Source/stream_buffer.c **** 	written in the first write... */
1039:Generated_Source\PSoC6\pdl\rtos\FreeRTOS\10.0.1\Source/stream_buffer.c **** 	if( xCount > xFirstLength )
1040:Generated_Source\PSoC6\pdl\rtos\FreeRTOS\10.0.1\Source/stream_buffer.c **** 	{
1041:Generated_Source\PSoC6\pdl\rtos\FreeRTOS\10.0.1\Source/stream_buffer.c **** 		/* ...then write the remaining bytes to the start of the buffer. */
1042:Generated_Source\PSoC6\pdl\rtos\FreeRTOS\10.0.1\Source/stream_buffer.c **** 		configASSERT( ( xCount - xFirstLength ) <= pxStreamBuffer->xLength );
1043:Generated_Source\PSoC6\pdl\rtos\FreeRTOS\10.0.1\Source/stream_buffer.c **** 		memcpy( ( void * ) pxStreamBuffer->pucBuffer, ( const void * ) &( pucData[ xFirstLength ] ), xCou
1044:Generated_Source\PSoC6\pdl\rtos\FreeRTOS\10.0.1\Source/stream_buffer.c **** 	}
1045:Generated_Source\PSoC6\pdl\rtos\FreeRTOS\10.0.1\Source/stream_buffer.c **** 	else
1046:Generated_Source\PSoC6\pdl\rtos\FreeRTOS\10.0.1\Source/stream_buffer.c **** 	{
1047:Generated_Source\PSoC6\pdl\rtos\FreeRTOS\10.0.1\Source/stream_buffer.c **** 		mtCOVERAGE_TEST_MARKER();
1048:Generated_Source\PSoC6\pdl\rtos\FreeRTOS\10.0.1\Source/stream_buffer.c **** 	}
1049:Generated_Source\PSoC6\pdl\rtos\FreeRTOS\10.0.1\Source/stream_buffer.c **** 
1050:Generated_Source\PSoC6\pdl\rtos\FreeRTOS\10.0.1\Source/stream_buffer.c **** 	xNextHead += xCount;
1051:Generated_Source\PSoC6\pdl\rtos\FreeRTOS\10.0.1\Source/stream_buffer.c **** 	if( xNextHead >= pxStreamBuffer->xLength )
1052:Generated_Source\PSoC6\pdl\rtos\FreeRTOS\10.0.1\Source/stream_buffer.c **** 	{
1053:Generated_Source\PSoC6\pdl\rtos\FreeRTOS\10.0.1\Source/stream_buffer.c **** 		xNextHead -= pxStreamBuffer->xLength;
1054:Generated_Source\PSoC6\pdl\rtos\FreeRTOS\10.0.1\Source/stream_buffer.c **** 	}
1055:Generated_Source\PSoC6\pdl\rtos\FreeRTOS\10.0.1\Source/stream_buffer.c **** 	else
1056:Generated_Source\PSoC6\pdl\rtos\FreeRTOS\10.0.1\Source/stream_buffer.c **** 	{
ARM GAS  C:\Users\adris\AppData\Local\Temp\ccnf5SFB.s 			page 20


1057:Generated_Source\PSoC6\pdl\rtos\FreeRTOS\10.0.1\Source/stream_buffer.c **** 		mtCOVERAGE_TEST_MARKER();
1058:Generated_Source\PSoC6\pdl\rtos\FreeRTOS\10.0.1\Source/stream_buffer.c **** 	}
1059:Generated_Source\PSoC6\pdl\rtos\FreeRTOS\10.0.1\Source/stream_buffer.c **** 
1060:Generated_Source\PSoC6\pdl\rtos\FreeRTOS\10.0.1\Source/stream_buffer.c **** 	pxStreamBuffer->xHead = xNextHead;
1061:Generated_Source\PSoC6\pdl\rtos\FreeRTOS\10.0.1\Source/stream_buffer.c **** 
1062:Generated_Source\PSoC6\pdl\rtos\FreeRTOS\10.0.1\Source/stream_buffer.c **** 	return xCount;
1063:Generated_Source\PSoC6\pdl\rtos\FreeRTOS\10.0.1\Source/stream_buffer.c **** }
1064:Generated_Source\PSoC6\pdl\rtos\FreeRTOS\10.0.1\Source/stream_buffer.c **** /*-----------------------------------------------------------*/
1065:Generated_Source\PSoC6\pdl\rtos\FreeRTOS\10.0.1\Source/stream_buffer.c **** 
1066:Generated_Source\PSoC6\pdl\rtos\FreeRTOS\10.0.1\Source/stream_buffer.c **** static size_t prvReadBytesFromBuffer( StreamBuffer_t *pxStreamBuffer, uint8_t *pucData, size_t xMax
1067:Generated_Source\PSoC6\pdl\rtos\FreeRTOS\10.0.1\Source/stream_buffer.c **** {
1068:Generated_Source\PSoC6\pdl\rtos\FreeRTOS\10.0.1\Source/stream_buffer.c **** size_t xCount, xFirstLength, xNextTail;
1069:Generated_Source\PSoC6\pdl\rtos\FreeRTOS\10.0.1\Source/stream_buffer.c **** 
1070:Generated_Source\PSoC6\pdl\rtos\FreeRTOS\10.0.1\Source/stream_buffer.c **** 	/* Use the minimum of the wanted bytes and the available bytes. */
1071:Generated_Source\PSoC6\pdl\rtos\FreeRTOS\10.0.1\Source/stream_buffer.c **** 	xCount = configMIN( xBytesAvailable, xMaxCount );
1072:Generated_Source\PSoC6\pdl\rtos\FreeRTOS\10.0.1\Source/stream_buffer.c **** 
1073:Generated_Source\PSoC6\pdl\rtos\FreeRTOS\10.0.1\Source/stream_buffer.c **** 	if( xCount > ( size_t ) 0 )
1074:Generated_Source\PSoC6\pdl\rtos\FreeRTOS\10.0.1\Source/stream_buffer.c **** 	{
1075:Generated_Source\PSoC6\pdl\rtos\FreeRTOS\10.0.1\Source/stream_buffer.c **** 		xNextTail = pxStreamBuffer->xTail;
1076:Generated_Source\PSoC6\pdl\rtos\FreeRTOS\10.0.1\Source/stream_buffer.c **** 
1077:Generated_Source\PSoC6\pdl\rtos\FreeRTOS\10.0.1\Source/stream_buffer.c **** 		/* Calculate the number of bytes that can be read - which may be
1078:Generated_Source\PSoC6\pdl\rtos\FreeRTOS\10.0.1\Source/stream_buffer.c **** 		less than the number wanted if the data wraps around to the start of
1079:Generated_Source\PSoC6\pdl\rtos\FreeRTOS\10.0.1\Source/stream_buffer.c **** 		the buffer. */
1080:Generated_Source\PSoC6\pdl\rtos\FreeRTOS\10.0.1\Source/stream_buffer.c **** 		xFirstLength = configMIN( pxStreamBuffer->xLength - xNextTail, xCount );
1081:Generated_Source\PSoC6\pdl\rtos\FreeRTOS\10.0.1\Source/stream_buffer.c **** 
1082:Generated_Source\PSoC6\pdl\rtos\FreeRTOS\10.0.1\Source/stream_buffer.c **** 		/* Obtain the number of bytes it is possible to obtain in the first
1083:Generated_Source\PSoC6\pdl\rtos\FreeRTOS\10.0.1\Source/stream_buffer.c **** 		read.  Asserts check bounds of read and write. */
1084:Generated_Source\PSoC6\pdl\rtos\FreeRTOS\10.0.1\Source/stream_buffer.c **** 		configASSERT( xFirstLength <= xMaxCount );
1085:Generated_Source\PSoC6\pdl\rtos\FreeRTOS\10.0.1\Source/stream_buffer.c **** 		configASSERT( ( xNextTail + xFirstLength ) <= pxStreamBuffer->xLength );
1086:Generated_Source\PSoC6\pdl\rtos\FreeRTOS\10.0.1\Source/stream_buffer.c **** 		memcpy( ( void * ) pucData, ( const void * ) &( pxStreamBuffer->pucBuffer[ xNextTail ] ), xFirstL
1087:Generated_Source\PSoC6\pdl\rtos\FreeRTOS\10.0.1\Source/stream_buffer.c **** 
1088:Generated_Source\PSoC6\pdl\rtos\FreeRTOS\10.0.1\Source/stream_buffer.c **** 		/* If the total number of wanted bytes is greater than the number
1089:Generated_Source\PSoC6\pdl\rtos\FreeRTOS\10.0.1\Source/stream_buffer.c **** 		that could be read in the first read... */
1090:Generated_Source\PSoC6\pdl\rtos\FreeRTOS\10.0.1\Source/stream_buffer.c **** 		if( xCount > xFirstLength )
1091:Generated_Source\PSoC6\pdl\rtos\FreeRTOS\10.0.1\Source/stream_buffer.c **** 		{
1092:Generated_Source\PSoC6\pdl\rtos\FreeRTOS\10.0.1\Source/stream_buffer.c **** 			/*...then read the remaining bytes from the start of the buffer. */
1093:Generated_Source\PSoC6\pdl\rtos\FreeRTOS\10.0.1\Source/stream_buffer.c **** 			configASSERT( xCount <= xMaxCount );
1094:Generated_Source\PSoC6\pdl\rtos\FreeRTOS\10.0.1\Source/stream_buffer.c **** 			memcpy( ( void * ) &( pucData[ xFirstLength ] ), ( void * ) ( pxStreamBuffer->pucBuffer ), xCoun
1095:Generated_Source\PSoC6\pdl\rtos\FreeRTOS\10.0.1\Source/stream_buffer.c **** 		}
1096:Generated_Source\PSoC6\pdl\rtos\FreeRTOS\10.0.1\Source/stream_buffer.c **** 		else
1097:Generated_Source\PSoC6\pdl\rtos\FreeRTOS\10.0.1\Source/stream_buffer.c **** 		{
1098:Generated_Source\PSoC6\pdl\rtos\FreeRTOS\10.0.1\Source/stream_buffer.c **** 			mtCOVERAGE_TEST_MARKER();
1099:Generated_Source\PSoC6\pdl\rtos\FreeRTOS\10.0.1\Source/stream_buffer.c **** 		}
1100:Generated_Source\PSoC6\pdl\rtos\FreeRTOS\10.0.1\Source/stream_buffer.c **** 
1101:Generated_Source\PSoC6\pdl\rtos\FreeRTOS\10.0.1\Source/stream_buffer.c **** 		/* Move the tail pointer to effectively remove the data read from
1102:Generated_Source\PSoC6\pdl\rtos\FreeRTOS\10.0.1\Source/stream_buffer.c **** 		the buffer. */
1103:Generated_Source\PSoC6\pdl\rtos\FreeRTOS\10.0.1\Source/stream_buffer.c **** 		xNextTail += xCount;
1104:Generated_Source\PSoC6\pdl\rtos\FreeRTOS\10.0.1\Source/stream_buffer.c **** 
1105:Generated_Source\PSoC6\pdl\rtos\FreeRTOS\10.0.1\Source/stream_buffer.c **** 		if( xNextTail >= pxStreamBuffer->xLength )
1106:Generated_Source\PSoC6\pdl\rtos\FreeRTOS\10.0.1\Source/stream_buffer.c **** 		{
1107:Generated_Source\PSoC6\pdl\rtos\FreeRTOS\10.0.1\Source/stream_buffer.c **** 			xNextTail -= pxStreamBuffer->xLength;
1108:Generated_Source\PSoC6\pdl\rtos\FreeRTOS\10.0.1\Source/stream_buffer.c **** 		}
1109:Generated_Source\PSoC6\pdl\rtos\FreeRTOS\10.0.1\Source/stream_buffer.c **** 
1110:Generated_Source\PSoC6\pdl\rtos\FreeRTOS\10.0.1\Source/stream_buffer.c **** 		pxStreamBuffer->xTail = xNextTail;
1111:Generated_Source\PSoC6\pdl\rtos\FreeRTOS\10.0.1\Source/stream_buffer.c **** 	}
1112:Generated_Source\PSoC6\pdl\rtos\FreeRTOS\10.0.1\Source/stream_buffer.c **** 	else
1113:Generated_Source\PSoC6\pdl\rtos\FreeRTOS\10.0.1\Source/stream_buffer.c **** 	{
ARM GAS  C:\Users\adris\AppData\Local\Temp\ccnf5SFB.s 			page 21


1114:Generated_Source\PSoC6\pdl\rtos\FreeRTOS\10.0.1\Source/stream_buffer.c **** 		mtCOVERAGE_TEST_MARKER();
1115:Generated_Source\PSoC6\pdl\rtos\FreeRTOS\10.0.1\Source/stream_buffer.c **** 	}
1116:Generated_Source\PSoC6\pdl\rtos\FreeRTOS\10.0.1\Source/stream_buffer.c **** 
1117:Generated_Source\PSoC6\pdl\rtos\FreeRTOS\10.0.1\Source/stream_buffer.c **** 	return xCount;
1118:Generated_Source\PSoC6\pdl\rtos\FreeRTOS\10.0.1\Source/stream_buffer.c **** }
1119:Generated_Source\PSoC6\pdl\rtos\FreeRTOS\10.0.1\Source/stream_buffer.c **** /*-----------------------------------------------------------*/
1120:Generated_Source\PSoC6\pdl\rtos\FreeRTOS\10.0.1\Source/stream_buffer.c **** 
1121:Generated_Source\PSoC6\pdl\rtos\FreeRTOS\10.0.1\Source/stream_buffer.c **** static size_t prvBytesInBuffer( const StreamBuffer_t * const pxStreamBuffer )
1122:Generated_Source\PSoC6\pdl\rtos\FreeRTOS\10.0.1\Source/stream_buffer.c **** {
  28              		.loc 1 1122 0
  29              		.cfi_startproc
  30              		@ args = 0, pretend = 0, frame = 0
  31              		@ frame_needed = 0, uses_anonymous_args = 0
  32              		@ link register save eliminated.
  33              	.LVL0:
1123:Generated_Source\PSoC6\pdl\rtos\FreeRTOS\10.0.1\Source/stream_buffer.c **** /* Returns the distance between xTail and xHead. */
1124:Generated_Source\PSoC6\pdl\rtos\FreeRTOS\10.0.1\Source/stream_buffer.c **** size_t xCount;
1125:Generated_Source\PSoC6\pdl\rtos\FreeRTOS\10.0.1\Source/stream_buffer.c **** 
1126:Generated_Source\PSoC6\pdl\rtos\FreeRTOS\10.0.1\Source/stream_buffer.c **** 	xCount = pxStreamBuffer->xLength + pxStreamBuffer->xHead;
  34              		.loc 1 1126 0
  35 0000 8268     		ldr	r2, [r0, #8]
  36 0002 4368     		ldr	r3, [r0, #4]
  37 0004 1344     		add	r3, r3, r2
  38              	.LVL1:
1127:Generated_Source\PSoC6\pdl\rtos\FreeRTOS\10.0.1\Source/stream_buffer.c **** 	xCount -= pxStreamBuffer->xTail;
  39              		.loc 1 1127 0
  40 0006 0068     		ldr	r0, [r0]
  41              	.LVL2:
  42 0008 181A     		subs	r0, r3, r0
  43              	.LVL3:
1128:Generated_Source\PSoC6\pdl\rtos\FreeRTOS\10.0.1\Source/stream_buffer.c **** 	if ( xCount >= pxStreamBuffer->xLength )
  44              		.loc 1 1128 0
  45 000a 8242     		cmp	r2, r0
  46 000c 00D8     		bhi	.L2
1129:Generated_Source\PSoC6\pdl\rtos\FreeRTOS\10.0.1\Source/stream_buffer.c **** 	{
1130:Generated_Source\PSoC6\pdl\rtos\FreeRTOS\10.0.1\Source/stream_buffer.c **** 		xCount -= pxStreamBuffer->xLength;
  47              		.loc 1 1130 0
  48 000e 801A     		subs	r0, r0, r2
  49              	.LVL4:
  50              	.L2:
1131:Generated_Source\PSoC6\pdl\rtos\FreeRTOS\10.0.1\Source/stream_buffer.c **** 	}
1132:Generated_Source\PSoC6\pdl\rtos\FreeRTOS\10.0.1\Source/stream_buffer.c **** 	else
1133:Generated_Source\PSoC6\pdl\rtos\FreeRTOS\10.0.1\Source/stream_buffer.c **** 	{
1134:Generated_Source\PSoC6\pdl\rtos\FreeRTOS\10.0.1\Source/stream_buffer.c **** 		mtCOVERAGE_TEST_MARKER();
1135:Generated_Source\PSoC6\pdl\rtos\FreeRTOS\10.0.1\Source/stream_buffer.c **** 	}
1136:Generated_Source\PSoC6\pdl\rtos\FreeRTOS\10.0.1\Source/stream_buffer.c **** 
1137:Generated_Source\PSoC6\pdl\rtos\FreeRTOS\10.0.1\Source/stream_buffer.c **** 	return xCount;
1138:Generated_Source\PSoC6\pdl\rtos\FreeRTOS\10.0.1\Source/stream_buffer.c **** }
  51              		.loc 1 1138 0
  52 0010 7047     		bx	lr
  53              		.cfi_endproc
  54              	.LFE154:
  55              		.size	prvBytesInBuffer, .-prvBytesInBuffer
  56 0012 00BF     		.section	.text.prvInitialiseNewStreamBuffer,"ax",%progbits
  57              		.align	2
  58              		.thumb
  59              		.thumb_func
ARM GAS  C:\Users\adris\AppData\Local\Temp\ccnf5SFB.s 			page 22


  60              		.type	prvInitialiseNewStreamBuffer, %function
  61              	prvInitialiseNewStreamBuffer:
  62              	.LFB155:
1139:Generated_Source\PSoC6\pdl\rtos\FreeRTOS\10.0.1\Source/stream_buffer.c **** /*-----------------------------------------------------------*/
1140:Generated_Source\PSoC6\pdl\rtos\FreeRTOS\10.0.1\Source/stream_buffer.c **** 
1141:Generated_Source\PSoC6\pdl\rtos\FreeRTOS\10.0.1\Source/stream_buffer.c **** static void prvInitialiseNewStreamBuffer( StreamBuffer_t * const pxStreamBuffer,
1142:Generated_Source\PSoC6\pdl\rtos\FreeRTOS\10.0.1\Source/stream_buffer.c **** 										  uint8_t * const pucBuffer,
1143:Generated_Source\PSoC6\pdl\rtos\FreeRTOS\10.0.1\Source/stream_buffer.c **** 										  size_t xBufferSizeBytes,
1144:Generated_Source\PSoC6\pdl\rtos\FreeRTOS\10.0.1\Source/stream_buffer.c **** 										  size_t xTriggerLevelBytes,
1145:Generated_Source\PSoC6\pdl\rtos\FreeRTOS\10.0.1\Source/stream_buffer.c **** 										  BaseType_t xIsMessageBuffer )
1146:Generated_Source\PSoC6\pdl\rtos\FreeRTOS\10.0.1\Source/stream_buffer.c **** {
  63              		.loc 1 1146 0
  64              		.cfi_startproc
  65              		@ args = 4, pretend = 0, frame = 0
  66              		@ frame_needed = 0, uses_anonymous_args = 0
  67              	.LVL5:
  68 0000 F8B5     		push	{r3, r4, r5, r6, r7, lr}
  69              		.cfi_def_cfa_offset 24
  70              		.cfi_offset 3, -24
  71              		.cfi_offset 4, -20
  72              		.cfi_offset 5, -16
  73              		.cfi_offset 6, -12
  74              		.cfi_offset 7, -8
  75              		.cfi_offset 14, -4
  76 0002 0446     		mov	r4, r0
  77 0004 0D46     		mov	r5, r1
  78 0006 1646     		mov	r6, r2
  79 0008 1F46     		mov	r7, r3
  80              	.LVL6:
  81              	.LBB77:
1147:Generated_Source\PSoC6\pdl\rtos\FreeRTOS\10.0.1\Source/stream_buffer.c **** 	/* Assert here is deliberately writing to the entire buffer to ensure it can
1148:Generated_Source\PSoC6\pdl\rtos\FreeRTOS\10.0.1\Source/stream_buffer.c **** 	be written to without generating exceptions, and is setting the buffer to a
1149:Generated_Source\PSoC6\pdl\rtos\FreeRTOS\10.0.1\Source/stream_buffer.c **** 	known value to assist in development/debugging. */
1150:Generated_Source\PSoC6\pdl\rtos\FreeRTOS\10.0.1\Source/stream_buffer.c **** 	#if( configASSERT_DEFINED == 1 )
1151:Generated_Source\PSoC6\pdl\rtos\FreeRTOS\10.0.1\Source/stream_buffer.c **** 	{
1152:Generated_Source\PSoC6\pdl\rtos\FreeRTOS\10.0.1\Source/stream_buffer.c **** 		/* The value written just has to be identifiable when looking at the
1153:Generated_Source\PSoC6\pdl\rtos\FreeRTOS\10.0.1\Source/stream_buffer.c **** 		memory.  Don't use 0xA5 as that is the stack fill value and could
1154:Generated_Source\PSoC6\pdl\rtos\FreeRTOS\10.0.1\Source/stream_buffer.c **** 		result in confusion as to what is actually being observed. */
1155:Generated_Source\PSoC6\pdl\rtos\FreeRTOS\10.0.1\Source/stream_buffer.c **** 		const BaseType_t xWriteValue = 0x55;
1156:Generated_Source\PSoC6\pdl\rtos\FreeRTOS\10.0.1\Source/stream_buffer.c **** 		configASSERT( memset( pucBuffer, ( int ) xWriteValue, xBufferSizeBytes ) == pucBuffer );
  82              		.loc 1 1156 0
  83 000a 5521     		movs	r1, #85
  84              	.LVL7:
  85 000c 2846     		mov	r0, r5
  86              	.LVL8:
  87 000e FFF7FEFF 		bl	memset
  88              	.LVL9:
  89 0012 8542     		cmp	r5, r0
  90 0014 08D0     		beq	.L4
  91              	.LBB78:
  92              	.LBB79:
  93              		.file 2 "Generated_Source\\PSoC6\\pdl\\rtos/FreeRTOS/10.0.1/Source/portable/GCC/CM4F/portmacro.h"
   1:Generated_Source\PSoC6\pdl\rtos/FreeRTOS/10.0.1/Source/portable/GCC/CM4F/portmacro.h **** /*
   2:Generated_Source\PSoC6\pdl\rtos/FreeRTOS/10.0.1/Source/portable/GCC/CM4F/portmacro.h ****  * FreeRTOS Kernel V10.0.1
   3:Generated_Source\PSoC6\pdl\rtos/FreeRTOS/10.0.1/Source/portable/GCC/CM4F/portmacro.h ****  * Copyright (C) 2017 Amazon.com, Inc. or its affiliates.  All Rights Reserved.
   4:Generated_Source\PSoC6\pdl\rtos/FreeRTOS/10.0.1/Source/portable/GCC/CM4F/portmacro.h ****  *
   5:Generated_Source\PSoC6\pdl\rtos/FreeRTOS/10.0.1/Source/portable/GCC/CM4F/portmacro.h ****  * Permission is hereby granted, free of charge, to any person obtaining a copy of
ARM GAS  C:\Users\adris\AppData\Local\Temp\ccnf5SFB.s 			page 23


   6:Generated_Source\PSoC6\pdl\rtos/FreeRTOS/10.0.1/Source/portable/GCC/CM4F/portmacro.h ****  * this software and associated documentation files (the "Software"), to deal in
   7:Generated_Source\PSoC6\pdl\rtos/FreeRTOS/10.0.1/Source/portable/GCC/CM4F/portmacro.h ****  * the Software without restriction, including without limitation the rights to
   8:Generated_Source\PSoC6\pdl\rtos/FreeRTOS/10.0.1/Source/portable/GCC/CM4F/portmacro.h ****  * use, copy, modify, merge, publish, distribute, sublicense, and/or sell copies of
   9:Generated_Source\PSoC6\pdl\rtos/FreeRTOS/10.0.1/Source/portable/GCC/CM4F/portmacro.h ****  * the Software, and to permit persons to whom the Software is furnished to do so,
  10:Generated_Source\PSoC6\pdl\rtos/FreeRTOS/10.0.1/Source/portable/GCC/CM4F/portmacro.h ****  * subject to the following conditions:
  11:Generated_Source\PSoC6\pdl\rtos/FreeRTOS/10.0.1/Source/portable/GCC/CM4F/portmacro.h ****  *
  12:Generated_Source\PSoC6\pdl\rtos/FreeRTOS/10.0.1/Source/portable/GCC/CM4F/portmacro.h ****  * The above copyright notice and this permission notice shall be included in all
  13:Generated_Source\PSoC6\pdl\rtos/FreeRTOS/10.0.1/Source/portable/GCC/CM4F/portmacro.h ****  * copies or substantial portions of the Software.
  14:Generated_Source\PSoC6\pdl\rtos/FreeRTOS/10.0.1/Source/portable/GCC/CM4F/portmacro.h ****  *
  15:Generated_Source\PSoC6\pdl\rtos/FreeRTOS/10.0.1/Source/portable/GCC/CM4F/portmacro.h ****  * THE SOFTWARE IS PROVIDED "AS IS", WITHOUT WARRANTY OF ANY KIND, EXPRESS OR
  16:Generated_Source\PSoC6\pdl\rtos/FreeRTOS/10.0.1/Source/portable/GCC/CM4F/portmacro.h ****  * IMPLIED, INCLUDING BUT NOT LIMITED TO THE WARRANTIES OF MERCHANTABILITY, FITNESS
  17:Generated_Source\PSoC6\pdl\rtos/FreeRTOS/10.0.1/Source/portable/GCC/CM4F/portmacro.h ****  * FOR A PARTICULAR PURPOSE AND NONINFRINGEMENT. IN NO EVENT SHALL THE AUTHORS OR
  18:Generated_Source\PSoC6\pdl\rtos/FreeRTOS/10.0.1/Source/portable/GCC/CM4F/portmacro.h ****  * COPYRIGHT HOLDERS BE LIABLE FOR ANY CLAIM, DAMAGES OR OTHER LIABILITY, WHETHER
  19:Generated_Source\PSoC6\pdl\rtos/FreeRTOS/10.0.1/Source/portable/GCC/CM4F/portmacro.h ****  * IN AN ACTION OF CONTRACT, TORT OR OTHERWISE, ARISING FROM, OUT OF OR IN
  20:Generated_Source\PSoC6\pdl\rtos/FreeRTOS/10.0.1/Source/portable/GCC/CM4F/portmacro.h ****  * CONNECTION WITH THE SOFTWARE OR THE USE OR OTHER DEALINGS IN THE SOFTWARE.
  21:Generated_Source\PSoC6\pdl\rtos/FreeRTOS/10.0.1/Source/portable/GCC/CM4F/portmacro.h ****  *
  22:Generated_Source\PSoC6\pdl\rtos/FreeRTOS/10.0.1/Source/portable/GCC/CM4F/portmacro.h ****  * http://www.FreeRTOS.org
  23:Generated_Source\PSoC6\pdl\rtos/FreeRTOS/10.0.1/Source/portable/GCC/CM4F/portmacro.h ****  * http://aws.amazon.com/freertos
  24:Generated_Source\PSoC6\pdl\rtos/FreeRTOS/10.0.1/Source/portable/GCC/CM4F/portmacro.h ****  *
  25:Generated_Source\PSoC6\pdl\rtos/FreeRTOS/10.0.1/Source/portable/GCC/CM4F/portmacro.h ****  * 1 tab == 4 spaces!
  26:Generated_Source\PSoC6\pdl\rtos/FreeRTOS/10.0.1/Source/portable/GCC/CM4F/portmacro.h ****  */
  27:Generated_Source\PSoC6\pdl\rtos/FreeRTOS/10.0.1/Source/portable/GCC/CM4F/portmacro.h **** 
  28:Generated_Source\PSoC6\pdl\rtos/FreeRTOS/10.0.1/Source/portable/GCC/CM4F/portmacro.h **** 
  29:Generated_Source\PSoC6\pdl\rtos/FreeRTOS/10.0.1/Source/portable/GCC/CM4F/portmacro.h **** #ifndef PORTMACRO_H
  30:Generated_Source\PSoC6\pdl\rtos/FreeRTOS/10.0.1/Source/portable/GCC/CM4F/portmacro.h **** #define PORTMACRO_H
  31:Generated_Source\PSoC6\pdl\rtos/FreeRTOS/10.0.1/Source/portable/GCC/CM4F/portmacro.h **** 
  32:Generated_Source\PSoC6\pdl\rtos/FreeRTOS/10.0.1/Source/portable/GCC/CM4F/portmacro.h **** #ifdef __cplusplus
  33:Generated_Source\PSoC6\pdl\rtos/FreeRTOS/10.0.1/Source/portable/GCC/CM4F/portmacro.h **** extern "C" {
  34:Generated_Source\PSoC6\pdl\rtos/FreeRTOS/10.0.1/Source/portable/GCC/CM4F/portmacro.h **** #endif
  35:Generated_Source\PSoC6\pdl\rtos/FreeRTOS/10.0.1/Source/portable/GCC/CM4F/portmacro.h **** 
  36:Generated_Source\PSoC6\pdl\rtos/FreeRTOS/10.0.1/Source/portable/GCC/CM4F/portmacro.h **** /*-----------------------------------------------------------
  37:Generated_Source\PSoC6\pdl\rtos/FreeRTOS/10.0.1/Source/portable/GCC/CM4F/portmacro.h ****  * Port specific definitions.
  38:Generated_Source\PSoC6\pdl\rtos/FreeRTOS/10.0.1/Source/portable/GCC/CM4F/portmacro.h ****  *
  39:Generated_Source\PSoC6\pdl\rtos/FreeRTOS/10.0.1/Source/portable/GCC/CM4F/portmacro.h ****  * The settings in this file configure FreeRTOS correctly for the
  40:Generated_Source\PSoC6\pdl\rtos/FreeRTOS/10.0.1/Source/portable/GCC/CM4F/portmacro.h ****  * given hardware and compiler.
  41:Generated_Source\PSoC6\pdl\rtos/FreeRTOS/10.0.1/Source/portable/GCC/CM4F/portmacro.h ****  *
  42:Generated_Source\PSoC6\pdl\rtos/FreeRTOS/10.0.1/Source/portable/GCC/CM4F/portmacro.h ****  * These settings should not be altered.
  43:Generated_Source\PSoC6\pdl\rtos/FreeRTOS/10.0.1/Source/portable/GCC/CM4F/portmacro.h ****  *-----------------------------------------------------------
  44:Generated_Source\PSoC6\pdl\rtos/FreeRTOS/10.0.1/Source/portable/GCC/CM4F/portmacro.h ****  */
  45:Generated_Source\PSoC6\pdl\rtos/FreeRTOS/10.0.1/Source/portable/GCC/CM4F/portmacro.h **** 
  46:Generated_Source\PSoC6\pdl\rtos/FreeRTOS/10.0.1/Source/portable/GCC/CM4F/portmacro.h **** /* Type definitions. */
  47:Generated_Source\PSoC6\pdl\rtos/FreeRTOS/10.0.1/Source/portable/GCC/CM4F/portmacro.h **** #define portCHAR		char
  48:Generated_Source\PSoC6\pdl\rtos/FreeRTOS/10.0.1/Source/portable/GCC/CM4F/portmacro.h **** #define portFLOAT		float
  49:Generated_Source\PSoC6\pdl\rtos/FreeRTOS/10.0.1/Source/portable/GCC/CM4F/portmacro.h **** #define portDOUBLE		double
  50:Generated_Source\PSoC6\pdl\rtos/FreeRTOS/10.0.1/Source/portable/GCC/CM4F/portmacro.h **** #define portLONG		long
  51:Generated_Source\PSoC6\pdl\rtos/FreeRTOS/10.0.1/Source/portable/GCC/CM4F/portmacro.h **** #define portSHORT		short
  52:Generated_Source\PSoC6\pdl\rtos/FreeRTOS/10.0.1/Source/portable/GCC/CM4F/portmacro.h **** #define portSTACK_TYPE	uint32_t
  53:Generated_Source\PSoC6\pdl\rtos/FreeRTOS/10.0.1/Source/portable/GCC/CM4F/portmacro.h **** #define portBASE_TYPE	long
  54:Generated_Source\PSoC6\pdl\rtos/FreeRTOS/10.0.1/Source/portable/GCC/CM4F/portmacro.h **** 
  55:Generated_Source\PSoC6\pdl\rtos/FreeRTOS/10.0.1/Source/portable/GCC/CM4F/portmacro.h **** typedef portSTACK_TYPE StackType_t;
  56:Generated_Source\PSoC6\pdl\rtos/FreeRTOS/10.0.1/Source/portable/GCC/CM4F/portmacro.h **** typedef long BaseType_t;
  57:Generated_Source\PSoC6\pdl\rtos/FreeRTOS/10.0.1/Source/portable/GCC/CM4F/portmacro.h **** typedef unsigned long UBaseType_t;
  58:Generated_Source\PSoC6\pdl\rtos/FreeRTOS/10.0.1/Source/portable/GCC/CM4F/portmacro.h **** 
  59:Generated_Source\PSoC6\pdl\rtos/FreeRTOS/10.0.1/Source/portable/GCC/CM4F/portmacro.h **** #if( configUSE_16_BIT_TICKS == 1 )
  60:Generated_Source\PSoC6\pdl\rtos/FreeRTOS/10.0.1/Source/portable/GCC/CM4F/portmacro.h **** 	typedef uint16_t TickType_t;
  61:Generated_Source\PSoC6\pdl\rtos/FreeRTOS/10.0.1/Source/portable/GCC/CM4F/portmacro.h **** 	#define portMAX_DELAY ( TickType_t ) 0xffff
  62:Generated_Source\PSoC6\pdl\rtos/FreeRTOS/10.0.1/Source/portable/GCC/CM4F/portmacro.h **** #else
ARM GAS  C:\Users\adris\AppData\Local\Temp\ccnf5SFB.s 			page 24


  63:Generated_Source\PSoC6\pdl\rtos/FreeRTOS/10.0.1/Source/portable/GCC/CM4F/portmacro.h **** 	typedef uint32_t TickType_t;
  64:Generated_Source\PSoC6\pdl\rtos/FreeRTOS/10.0.1/Source/portable/GCC/CM4F/portmacro.h **** 	#define portMAX_DELAY ( TickType_t ) 0xffffffffUL
  65:Generated_Source\PSoC6\pdl\rtos/FreeRTOS/10.0.1/Source/portable/GCC/CM4F/portmacro.h **** 
  66:Generated_Source\PSoC6\pdl\rtos/FreeRTOS/10.0.1/Source/portable/GCC/CM4F/portmacro.h **** 	/* 32-bit tick type on a 32-bit architecture, so reads of the tick count do
  67:Generated_Source\PSoC6\pdl\rtos/FreeRTOS/10.0.1/Source/portable/GCC/CM4F/portmacro.h **** 	not need to be guarded with a critical section. */
  68:Generated_Source\PSoC6\pdl\rtos/FreeRTOS/10.0.1/Source/portable/GCC/CM4F/portmacro.h **** 	#define portTICK_TYPE_IS_ATOMIC 1
  69:Generated_Source\PSoC6\pdl\rtos/FreeRTOS/10.0.1/Source/portable/GCC/CM4F/portmacro.h **** #endif
  70:Generated_Source\PSoC6\pdl\rtos/FreeRTOS/10.0.1/Source/portable/GCC/CM4F/portmacro.h **** /*-----------------------------------------------------------*/
  71:Generated_Source\PSoC6\pdl\rtos/FreeRTOS/10.0.1/Source/portable/GCC/CM4F/portmacro.h **** 
  72:Generated_Source\PSoC6\pdl\rtos/FreeRTOS/10.0.1/Source/portable/GCC/CM4F/portmacro.h **** /* Architecture specifics. */
  73:Generated_Source\PSoC6\pdl\rtos/FreeRTOS/10.0.1/Source/portable/GCC/CM4F/portmacro.h **** #define portSTACK_GROWTH			( -1 )
  74:Generated_Source\PSoC6\pdl\rtos/FreeRTOS/10.0.1/Source/portable/GCC/CM4F/portmacro.h **** #define portTICK_PERIOD_MS			( ( TickType_t ) 1000 / configTICK_RATE_HZ )
  75:Generated_Source\PSoC6\pdl\rtos/FreeRTOS/10.0.1/Source/portable/GCC/CM4F/portmacro.h **** #define portBYTE_ALIGNMENT			8
  76:Generated_Source\PSoC6\pdl\rtos/FreeRTOS/10.0.1/Source/portable/GCC/CM4F/portmacro.h **** /*-----------------------------------------------------------*/
  77:Generated_Source\PSoC6\pdl\rtos/FreeRTOS/10.0.1/Source/portable/GCC/CM4F/portmacro.h **** 
  78:Generated_Source\PSoC6\pdl\rtos/FreeRTOS/10.0.1/Source/portable/GCC/CM4F/portmacro.h **** /* Scheduler utilities. */
  79:Generated_Source\PSoC6\pdl\rtos/FreeRTOS/10.0.1/Source/portable/GCC/CM4F/portmacro.h **** #define portYIELD() 															\
  80:Generated_Source\PSoC6\pdl\rtos/FreeRTOS/10.0.1/Source/portable/GCC/CM4F/portmacro.h **** {																				\
  81:Generated_Source\PSoC6\pdl\rtos/FreeRTOS/10.0.1/Source/portable/GCC/CM4F/portmacro.h **** 	/* Set a PendSV to request a context switch. */								\
  82:Generated_Source\PSoC6\pdl\rtos/FreeRTOS/10.0.1/Source/portable/GCC/CM4F/portmacro.h **** 	portNVIC_INT_CTRL_REG = portNVIC_PENDSVSET_BIT;								\
  83:Generated_Source\PSoC6\pdl\rtos/FreeRTOS/10.0.1/Source/portable/GCC/CM4F/portmacro.h **** 																				\
  84:Generated_Source\PSoC6\pdl\rtos/FreeRTOS/10.0.1/Source/portable/GCC/CM4F/portmacro.h **** 	/* Barriers are normally not required but do ensure the code is completely	\
  85:Generated_Source\PSoC6\pdl\rtos/FreeRTOS/10.0.1/Source/portable/GCC/CM4F/portmacro.h **** 	within the specified behaviour for the architecture. */						\
  86:Generated_Source\PSoC6\pdl\rtos/FreeRTOS/10.0.1/Source/portable/GCC/CM4F/portmacro.h **** 	__asm volatile( "dsb" ::: "memory" );										\
  87:Generated_Source\PSoC6\pdl\rtos/FreeRTOS/10.0.1/Source/portable/GCC/CM4F/portmacro.h **** 	__asm volatile( "isb" );													\
  88:Generated_Source\PSoC6\pdl\rtos/FreeRTOS/10.0.1/Source/portable/GCC/CM4F/portmacro.h **** }
  89:Generated_Source\PSoC6\pdl\rtos/FreeRTOS/10.0.1/Source/portable/GCC/CM4F/portmacro.h **** 
  90:Generated_Source\PSoC6\pdl\rtos/FreeRTOS/10.0.1/Source/portable/GCC/CM4F/portmacro.h **** #define portNVIC_INT_CTRL_REG		( * ( ( volatile uint32_t * ) 0xe000ed04 ) )
  91:Generated_Source\PSoC6\pdl\rtos/FreeRTOS/10.0.1/Source/portable/GCC/CM4F/portmacro.h **** #define portNVIC_PENDSVSET_BIT		( 1UL << 28UL )
  92:Generated_Source\PSoC6\pdl\rtos/FreeRTOS/10.0.1/Source/portable/GCC/CM4F/portmacro.h **** #define portEND_SWITCHING_ISR( xSwitchRequired ) if( xSwitchRequired != pdFALSE ) portYIELD()
  93:Generated_Source\PSoC6\pdl\rtos/FreeRTOS/10.0.1/Source/portable/GCC/CM4F/portmacro.h **** #define portYIELD_FROM_ISR( x ) portEND_SWITCHING_ISR( x )
  94:Generated_Source\PSoC6\pdl\rtos/FreeRTOS/10.0.1/Source/portable/GCC/CM4F/portmacro.h **** /*-----------------------------------------------------------*/
  95:Generated_Source\PSoC6\pdl\rtos/FreeRTOS/10.0.1/Source/portable/GCC/CM4F/portmacro.h **** 
  96:Generated_Source\PSoC6\pdl\rtos/FreeRTOS/10.0.1/Source/portable/GCC/CM4F/portmacro.h **** /* Critical section management. */
  97:Generated_Source\PSoC6\pdl\rtos/FreeRTOS/10.0.1/Source/portable/GCC/CM4F/portmacro.h **** extern void vPortEnterCritical( void );
  98:Generated_Source\PSoC6\pdl\rtos/FreeRTOS/10.0.1/Source/portable/GCC/CM4F/portmacro.h **** extern void vPortExitCritical( void );
  99:Generated_Source\PSoC6\pdl\rtos/FreeRTOS/10.0.1/Source/portable/GCC/CM4F/portmacro.h **** #define portSET_INTERRUPT_MASK_FROM_ISR()		ulPortRaiseBASEPRI()
 100:Generated_Source\PSoC6\pdl\rtos/FreeRTOS/10.0.1/Source/portable/GCC/CM4F/portmacro.h **** #define portCLEAR_INTERRUPT_MASK_FROM_ISR(x)	vPortSetBASEPRI(x)
 101:Generated_Source\PSoC6\pdl\rtos/FreeRTOS/10.0.1/Source/portable/GCC/CM4F/portmacro.h **** #define portDISABLE_INTERRUPTS()				vPortRaiseBASEPRI()
 102:Generated_Source\PSoC6\pdl\rtos/FreeRTOS/10.0.1/Source/portable/GCC/CM4F/portmacro.h **** #define portENABLE_INTERRUPTS()					vPortSetBASEPRI(0)
 103:Generated_Source\PSoC6\pdl\rtos/FreeRTOS/10.0.1/Source/portable/GCC/CM4F/portmacro.h **** #define portENTER_CRITICAL()					vPortEnterCritical()
 104:Generated_Source\PSoC6\pdl\rtos/FreeRTOS/10.0.1/Source/portable/GCC/CM4F/portmacro.h **** #define portEXIT_CRITICAL()						vPortExitCritical()
 105:Generated_Source\PSoC6\pdl\rtos/FreeRTOS/10.0.1/Source/portable/GCC/CM4F/portmacro.h **** 
 106:Generated_Source\PSoC6\pdl\rtos/FreeRTOS/10.0.1/Source/portable/GCC/CM4F/portmacro.h **** /*-----------------------------------------------------------*/
 107:Generated_Source\PSoC6\pdl\rtos/FreeRTOS/10.0.1/Source/portable/GCC/CM4F/portmacro.h **** 
 108:Generated_Source\PSoC6\pdl\rtos/FreeRTOS/10.0.1/Source/portable/GCC/CM4F/portmacro.h **** /* Task function macros as described on the FreeRTOS.org WEB site.  These are
 109:Generated_Source\PSoC6\pdl\rtos/FreeRTOS/10.0.1/Source/portable/GCC/CM4F/portmacro.h **** not necessary for to use this port.  They are defined so the common demo files
 110:Generated_Source\PSoC6\pdl\rtos/FreeRTOS/10.0.1/Source/portable/GCC/CM4F/portmacro.h **** (which build with all the ports) will build. */
 111:Generated_Source\PSoC6\pdl\rtos/FreeRTOS/10.0.1/Source/portable/GCC/CM4F/portmacro.h **** #define portTASK_FUNCTION_PROTO( vFunction, pvParameters ) void vFunction( void *pvParameters )
 112:Generated_Source\PSoC6\pdl\rtos/FreeRTOS/10.0.1/Source/portable/GCC/CM4F/portmacro.h **** #define portTASK_FUNCTION( vFunction, pvParameters ) void vFunction( void *pvParameters )
 113:Generated_Source\PSoC6\pdl\rtos/FreeRTOS/10.0.1/Source/portable/GCC/CM4F/portmacro.h **** 
 114:Generated_Source\PSoC6\pdl\rtos/FreeRTOS/10.0.1/Source/portable/GCC/CM4F/portmacro.h **** /*-----------------------------------------------------------*/
 115:Generated_Source\PSoC6\pdl\rtos/FreeRTOS/10.0.1/Source/portable/GCC/CM4F/portmacro.h **** 
 116:Generated_Source\PSoC6\pdl\rtos/FreeRTOS/10.0.1/Source/portable/GCC/CM4F/portmacro.h **** #ifdef configASSERT
 117:Generated_Source\PSoC6\pdl\rtos/FreeRTOS/10.0.1/Source/portable/GCC/CM4F/portmacro.h **** 	void vPortValidateInterruptPriority( void );
 118:Generated_Source\PSoC6\pdl\rtos/FreeRTOS/10.0.1/Source/portable/GCC/CM4F/portmacro.h **** 	#define portASSERT_IF_INTERRUPT_PRIORITY_INVALID() 	vPortValidateInterruptPriority()
 119:Generated_Source\PSoC6\pdl\rtos/FreeRTOS/10.0.1/Source/portable/GCC/CM4F/portmacro.h **** #endif
ARM GAS  C:\Users\adris\AppData\Local\Temp\ccnf5SFB.s 			page 25


 120:Generated_Source\PSoC6\pdl\rtos/FreeRTOS/10.0.1/Source/portable/GCC/CM4F/portmacro.h **** 
 121:Generated_Source\PSoC6\pdl\rtos/FreeRTOS/10.0.1/Source/portable/GCC/CM4F/portmacro.h **** /* portNOP() is not required by this port. */
 122:Generated_Source\PSoC6\pdl\rtos/FreeRTOS/10.0.1/Source/portable/GCC/CM4F/portmacro.h **** #define portNOP()
 123:Generated_Source\PSoC6\pdl\rtos/FreeRTOS/10.0.1/Source/portable/GCC/CM4F/portmacro.h **** 
 124:Generated_Source\PSoC6\pdl\rtos/FreeRTOS/10.0.1/Source/portable/GCC/CM4F/portmacro.h **** #define portINLINE	__inline
 125:Generated_Source\PSoC6\pdl\rtos/FreeRTOS/10.0.1/Source/portable/GCC/CM4F/portmacro.h **** 
 126:Generated_Source\PSoC6\pdl\rtos/FreeRTOS/10.0.1/Source/portable/GCC/CM4F/portmacro.h **** #ifndef portFORCE_INLINE
 127:Generated_Source\PSoC6\pdl\rtos/FreeRTOS/10.0.1/Source/portable/GCC/CM4F/portmacro.h **** 	#define portFORCE_INLINE inline __attribute__(( always_inline))
 128:Generated_Source\PSoC6\pdl\rtos/FreeRTOS/10.0.1/Source/portable/GCC/CM4F/portmacro.h **** #endif
 129:Generated_Source\PSoC6\pdl\rtos/FreeRTOS/10.0.1/Source/portable/GCC/CM4F/portmacro.h **** 
 130:Generated_Source\PSoC6\pdl\rtos/FreeRTOS/10.0.1/Source/portable/GCC/CM4F/portmacro.h **** portFORCE_INLINE static BaseType_t xPortIsInsideInterrupt( void )
 131:Generated_Source\PSoC6\pdl\rtos/FreeRTOS/10.0.1/Source/portable/GCC/CM4F/portmacro.h **** {
 132:Generated_Source\PSoC6\pdl\rtos/FreeRTOS/10.0.1/Source/portable/GCC/CM4F/portmacro.h **** uint32_t ulCurrentInterrupt;
 133:Generated_Source\PSoC6\pdl\rtos/FreeRTOS/10.0.1/Source/portable/GCC/CM4F/portmacro.h **** BaseType_t xReturn;
 134:Generated_Source\PSoC6\pdl\rtos/FreeRTOS/10.0.1/Source/portable/GCC/CM4F/portmacro.h **** 
 135:Generated_Source\PSoC6\pdl\rtos/FreeRTOS/10.0.1/Source/portable/GCC/CM4F/portmacro.h **** 	/* Obtain the number of the currently executing interrupt. */
 136:Generated_Source\PSoC6\pdl\rtos/FreeRTOS/10.0.1/Source/portable/GCC/CM4F/portmacro.h **** 	__asm volatile( "mrs %0, ipsr" : "=r"( ulCurrentInterrupt ) :: "memory" );
 137:Generated_Source\PSoC6\pdl\rtos/FreeRTOS/10.0.1/Source/portable/GCC/CM4F/portmacro.h **** 
 138:Generated_Source\PSoC6\pdl\rtos/FreeRTOS/10.0.1/Source/portable/GCC/CM4F/portmacro.h **** 	if( ulCurrentInterrupt == 0 )
 139:Generated_Source\PSoC6\pdl\rtos/FreeRTOS/10.0.1/Source/portable/GCC/CM4F/portmacro.h **** 	{
 140:Generated_Source\PSoC6\pdl\rtos/FreeRTOS/10.0.1/Source/portable/GCC/CM4F/portmacro.h **** 		xReturn = pdFALSE;
 141:Generated_Source\PSoC6\pdl\rtos/FreeRTOS/10.0.1/Source/portable/GCC/CM4F/portmacro.h **** 	}
 142:Generated_Source\PSoC6\pdl\rtos/FreeRTOS/10.0.1/Source/portable/GCC/CM4F/portmacro.h **** 	else
 143:Generated_Source\PSoC6\pdl\rtos/FreeRTOS/10.0.1/Source/portable/GCC/CM4F/portmacro.h **** 	{
 144:Generated_Source\PSoC6\pdl\rtos/FreeRTOS/10.0.1/Source/portable/GCC/CM4F/portmacro.h **** 		xReturn = pdTRUE;
 145:Generated_Source\PSoC6\pdl\rtos/FreeRTOS/10.0.1/Source/portable/GCC/CM4F/portmacro.h **** 	}
 146:Generated_Source\PSoC6\pdl\rtos/FreeRTOS/10.0.1/Source/portable/GCC/CM4F/portmacro.h **** 
 147:Generated_Source\PSoC6\pdl\rtos/FreeRTOS/10.0.1/Source/portable/GCC/CM4F/portmacro.h **** 	return xReturn;
 148:Generated_Source\PSoC6\pdl\rtos/FreeRTOS/10.0.1/Source/portable/GCC/CM4F/portmacro.h **** }
 149:Generated_Source\PSoC6\pdl\rtos/FreeRTOS/10.0.1/Source/portable/GCC/CM4F/portmacro.h **** 
 150:Generated_Source\PSoC6\pdl\rtos/FreeRTOS/10.0.1/Source/portable/GCC/CM4F/portmacro.h **** /*-----------------------------------------------------------*/
 151:Generated_Source\PSoC6\pdl\rtos/FreeRTOS/10.0.1/Source/portable/GCC/CM4F/portmacro.h **** 
 152:Generated_Source\PSoC6\pdl\rtos/FreeRTOS/10.0.1/Source/portable/GCC/CM4F/portmacro.h **** portFORCE_INLINE static void vPortRaiseBASEPRI( void )
 153:Generated_Source\PSoC6\pdl\rtos/FreeRTOS/10.0.1/Source/portable/GCC/CM4F/portmacro.h **** {
 154:Generated_Source\PSoC6\pdl\rtos/FreeRTOS/10.0.1/Source/portable/GCC/CM4F/portmacro.h **** uint32_t ulNewBASEPRI;
 155:Generated_Source\PSoC6\pdl\rtos/FreeRTOS/10.0.1/Source/portable/GCC/CM4F/portmacro.h **** 
 156:Generated_Source\PSoC6\pdl\rtos/FreeRTOS/10.0.1/Source/portable/GCC/CM4F/portmacro.h **** 	__asm volatile
  94              		.loc 2 156 0
  95              		.syntax unified
  96              	@ 156 "Generated_Source\PSoC6\pdl\rtos/FreeRTOS/10.0.1/Source/portable/GCC/CM4F/portmacro.h" 1
  97 0016 4FF03F03 			mov r3, #63												
  98 001a 83F31188 		msr basepri, r3											
  99 001e BFF36F8F 		isb														
 100 0022 BFF34F8F 		dsb														
 101              	
 102              	@ 0 "" 2
 103              	.LVL10:
 104              		.thumb
 105              		.syntax unified
 106              	.L5:
 107 0026 FEE7     		b	.L5
 108              	.L4:
 109              	.LBE79:
 110              	.LBE78:
 111              	.LBE77:
1157:Generated_Source\PSoC6\pdl\rtos\FreeRTOS\10.0.1\Source/stream_buffer.c **** 	}
1158:Generated_Source\PSoC6\pdl\rtos\FreeRTOS\10.0.1\Source/stream_buffer.c **** 	#endif
ARM GAS  C:\Users\adris\AppData\Local\Temp\ccnf5SFB.s 			page 26


1159:Generated_Source\PSoC6\pdl\rtos\FreeRTOS\10.0.1\Source/stream_buffer.c **** 
1160:Generated_Source\PSoC6\pdl\rtos\FreeRTOS\10.0.1\Source/stream_buffer.c **** 	memset( ( void * ) pxStreamBuffer, 0x00, sizeof( StreamBuffer_t ) ); /*lint !e9087 memset() requir
 112              		.loc 1 1160 0
 113 0028 2422     		movs	r2, #36
 114 002a 0021     		movs	r1, #0
 115 002c 2046     		mov	r0, r4
 116 002e FFF7FEFF 		bl	memset
 117              	.LVL11:
1161:Generated_Source\PSoC6\pdl\rtos\FreeRTOS\10.0.1\Source/stream_buffer.c **** 	pxStreamBuffer->pucBuffer = pucBuffer;
 118              		.loc 1 1161 0
 119 0032 A561     		str	r5, [r4, #24]
1162:Generated_Source\PSoC6\pdl\rtos\FreeRTOS\10.0.1\Source/stream_buffer.c **** 	pxStreamBuffer->xLength = xBufferSizeBytes;
 120              		.loc 1 1162 0
 121 0034 A660     		str	r6, [r4, #8]
1163:Generated_Source\PSoC6\pdl\rtos\FreeRTOS\10.0.1\Source/stream_buffer.c **** 	pxStreamBuffer->xTriggerLevelBytes = xTriggerLevelBytes;
 122              		.loc 1 1163 0
 123 0036 E760     		str	r7, [r4, #12]
1164:Generated_Source\PSoC6\pdl\rtos\FreeRTOS\10.0.1\Source/stream_buffer.c **** 
1165:Generated_Source\PSoC6\pdl\rtos\FreeRTOS\10.0.1\Source/stream_buffer.c **** 	if( xIsMessageBuffer != pdFALSE )
 124              		.loc 1 1165 0
 125 0038 069B     		ldr	r3, [sp, #24]
 126 003a 1BB1     		cbz	r3, .L3
1166:Generated_Source\PSoC6\pdl\rtos\FreeRTOS\10.0.1\Source/stream_buffer.c **** 	{
1167:Generated_Source\PSoC6\pdl\rtos\FreeRTOS\10.0.1\Source/stream_buffer.c **** 		pxStreamBuffer->ucFlags |= sbFLAGS_IS_MESSAGE_BUFFER;
 127              		.loc 1 1167 0
 128 003c 237F     		ldrb	r3, [r4, #28]	@ zero_extendqisi2
 129 003e 43F00103 		orr	r3, r3, #1
 130 0042 2377     		strb	r3, [r4, #28]
 131              	.L3:
 132 0044 F8BD     		pop	{r3, r4, r5, r6, r7, pc}
 133              		.cfi_endproc
 134              	.LFE155:
 135              		.size	prvInitialiseNewStreamBuffer, .-prvInitialiseNewStreamBuffer
 136 0046 00BF     		.section	.text.prvWriteBytesToBuffer,"ax",%progbits
 137              		.align	2
 138              		.thumb
 139              		.thumb_func
 140              		.type	prvWriteBytesToBuffer, %function
 141              	prvWriteBytesToBuffer:
 142              	.LFB152:
1021:Generated_Source\PSoC6\pdl\rtos\FreeRTOS\10.0.1\Source/stream_buffer.c **** size_t xNextHead, xFirstLength;
 143              		.loc 1 1021 0
 144              		.cfi_startproc
 145              		@ args = 0, pretend = 0, frame = 0
 146              		@ frame_needed = 0, uses_anonymous_args = 0
 147              	.LVL12:
1024:Generated_Source\PSoC6\pdl\rtos\FreeRTOS\10.0.1\Source/stream_buffer.c **** 
 148              		.loc 1 1024 0
 149 0000 42B9     		cbnz	r2, .L9
 150              	.LBB80:
 151              	.LBB81:
 152              		.loc 2 156 0
 153              		.syntax unified
 154              	@ 156 "Generated_Source\PSoC6\pdl\rtos/FreeRTOS/10.0.1/Source/portable/GCC/CM4F/portmacro.h" 1
 155 0002 4FF03F03 			mov r3, #63												
 156 0006 83F31188 		msr basepri, r3											
 157 000a BFF36F8F 		isb														
ARM GAS  C:\Users\adris\AppData\Local\Temp\ccnf5SFB.s 			page 27


 158 000e BFF34F8F 		dsb														
 159              	
 160              	@ 0 "" 2
 161              	.LVL13:
 162              		.thumb
 163              		.syntax unified
 164              	.L10:
 165 0012 FEE7     		b	.L10
 166              	.L9:
 167              	.LBE81:
 168              	.LBE80:
1021:Generated_Source\PSoC6\pdl\rtos\FreeRTOS\10.0.1\Source/stream_buffer.c **** size_t xNextHead, xFirstLength;
 169              		.loc 1 1021 0
 170 0014 2DE9F041 		push	{r4, r5, r6, r7, r8, lr}
 171              		.cfi_def_cfa_offset 24
 172              		.cfi_offset 4, -24
 173              		.cfi_offset 5, -20
 174              		.cfi_offset 6, -16
 175              		.cfi_offset 7, -12
 176              		.cfi_offset 8, -8
 177              		.cfi_offset 14, -4
 178 0018 1746     		mov	r7, r2
1026:Generated_Source\PSoC6\pdl\rtos\FreeRTOS\10.0.1\Source/stream_buffer.c **** 
 179              		.loc 1 1026 0
 180 001a 4668     		ldr	r6, [r0, #4]
 181              	.LVL14:
1031:Generated_Source\PSoC6\pdl\rtos\FreeRTOS\10.0.1\Source/stream_buffer.c **** 
 182              		.loc 1 1031 0
 183 001c 8368     		ldr	r3, [r0, #8]
 184 001e C6EB0308 		rsb	r8, r6, r3
 185 0022 9045     		cmp	r8, r2
 186 0024 28BF     		it	cs
 187 0026 9046     		movcs	r8, r2
 188              	.LVL15:
1034:Generated_Source\PSoC6\pdl\rtos\FreeRTOS\10.0.1\Source/stream_buffer.c **** 	memcpy( ( void* ) ( &( pxStreamBuffer->pucBuffer[ xNextHead ] ) ), ( const void * ) pucData, xFirs
 189              		.loc 1 1034 0
 190 0028 06EB0802 		add	r2, r6, r8
 191              	.LVL16:
 192 002c 9342     		cmp	r3, r2
 193 002e 08D2     		bcs	.L11
 194              	.LBB82:
 195              	.LBB83:
 196              		.loc 2 156 0
 197              		.syntax unified
 198              	@ 156 "Generated_Source\PSoC6\pdl\rtos/FreeRTOS/10.0.1/Source/portable/GCC/CM4F/portmacro.h" 1
 199 0030 4FF03F03 			mov r3, #63												
 200 0034 83F31188 		msr basepri, r3											
 201 0038 BFF36F8F 		isb														
 202 003c BFF34F8F 		dsb														
 203              	
 204              	@ 0 "" 2
 205              	.LVL17:
 206              		.thumb
 207              		.syntax unified
 208              	.L12:
 209 0040 FEE7     		b	.L12
 210              	.L11:
ARM GAS  C:\Users\adris\AppData\Local\Temp\ccnf5SFB.s 			page 28


 211 0042 0D46     		mov	r5, r1
 212 0044 0446     		mov	r4, r0
 213              	.LBE83:
 214              	.LBE82:
1035:Generated_Source\PSoC6\pdl\rtos\FreeRTOS\10.0.1\Source/stream_buffer.c **** 
 215              		.loc 1 1035 0
 216 0046 8069     		ldr	r0, [r0, #24]
 217              	.LVL18:
 218 0048 4246     		mov	r2, r8
 219 004a 3044     		add	r0, r0, r6
 220 004c FFF7FEFF 		bl	memcpy
 221              	.LVL19:
1039:Generated_Source\PSoC6\pdl\rtos\FreeRTOS\10.0.1\Source/stream_buffer.c **** 	{
 222              		.loc 1 1039 0
 223 0050 4745     		cmp	r7, r8
 224 0052 12D9     		bls	.L13
1042:Generated_Source\PSoC6\pdl\rtos\FreeRTOS\10.0.1\Source/stream_buffer.c **** 		memcpy( ( void * ) pxStreamBuffer->pucBuffer, ( const void * ) &( pucData[ xFirstLength ] ), xCou
 225              		.loc 1 1042 0
 226 0054 C8EB0702 		rsb	r2, r8, r7
 227 0058 A368     		ldr	r3, [r4, #8]
 228 005a 9A42     		cmp	r2, r3
 229 005c 08D9     		bls	.L14
 230              	.LBB84:
 231              	.LBB85:
 232              		.loc 2 156 0
 233              		.syntax unified
 234              	@ 156 "Generated_Source\PSoC6\pdl\rtos/FreeRTOS/10.0.1/Source/portable/GCC/CM4F/portmacro.h" 1
 235 005e 4FF03F03 			mov r3, #63												
 236 0062 83F31188 		msr basepri, r3											
 237 0066 BFF36F8F 		isb														
 238 006a BFF34F8F 		dsb														
 239              	
 240              	@ 0 "" 2
 241              	.LVL20:
 242              		.thumb
 243              		.syntax unified
 244              	.L15:
 245 006e FEE7     		b	.L15
 246              	.L14:
 247              	.LBE85:
 248              	.LBE84:
1043:Generated_Source\PSoC6\pdl\rtos\FreeRTOS\10.0.1\Source/stream_buffer.c **** 	}
 249              		.loc 1 1043 0
 250 0070 05EB0801 		add	r1, r5, r8
 251 0074 A069     		ldr	r0, [r4, #24]
 252 0076 FFF7FEFF 		bl	memcpy
 253              	.LVL21:
 254              	.L13:
1050:Generated_Source\PSoC6\pdl\rtos\FreeRTOS\10.0.1\Source/stream_buffer.c **** 	if( xNextHead >= pxStreamBuffer->xLength )
 255              		.loc 1 1050 0
 256 007a BB19     		adds	r3, r7, r6
 257              	.LVL22:
1051:Generated_Source\PSoC6\pdl\rtos\FreeRTOS\10.0.1\Source/stream_buffer.c **** 	{
 258              		.loc 1 1051 0
 259 007c A268     		ldr	r2, [r4, #8]
 260 007e 9342     		cmp	r3, r2
 261 0080 00D3     		bcc	.L16
ARM GAS  C:\Users\adris\AppData\Local\Temp\ccnf5SFB.s 			page 29


1053:Generated_Source\PSoC6\pdl\rtos\FreeRTOS\10.0.1\Source/stream_buffer.c **** 	}
 262              		.loc 1 1053 0
 263 0082 9B1A     		subs	r3, r3, r2
 264              	.LVL23:
 265              	.L16:
1060:Generated_Source\PSoC6\pdl\rtos\FreeRTOS\10.0.1\Source/stream_buffer.c **** 
 266              		.loc 1 1060 0
 267 0084 6360     		str	r3, [r4, #4]
1063:Generated_Source\PSoC6\pdl\rtos\FreeRTOS\10.0.1\Source/stream_buffer.c **** /*-----------------------------------------------------------*/
 268              		.loc 1 1063 0
 269 0086 3846     		mov	r0, r7
 270 0088 BDE8F081 		pop	{r4, r5, r6, r7, r8, pc}
 271              		.cfi_endproc
 272              	.LFE152:
 273              		.size	prvWriteBytesToBuffer, .-prvWriteBytesToBuffer
 274              		.section	.text.prvWriteMessageToBuffer,"ax",%progbits
 275              		.align	2
 276              		.thumb
 277              		.thumb_func
 278              		.type	prvWriteMessageToBuffer, %function
 279              	prvWriteMessageToBuffer:
 280              	.LFB144:
 644:Generated_Source\PSoC6\pdl\rtos\FreeRTOS\10.0.1\Source/stream_buffer.c **** 	BaseType_t xShouldWrite;
 281              		.loc 1 644 0
 282              		.cfi_startproc
 283              		@ args = 4, pretend = 0, frame = 8
 284              		@ frame_needed = 0, uses_anonymous_args = 0
 285              	.LVL24:
 286 0000 30B5     		push	{r4, r5, lr}
 287              		.cfi_def_cfa_offset 12
 288              		.cfi_offset 4, -12
 289              		.cfi_offset 5, -8
 290              		.cfi_offset 14, -4
 291 0002 83B0     		sub	sp, sp, #12
 292              		.cfi_def_cfa_offset 24
 293 0004 0446     		mov	r4, r0
 294 0006 0D46     		mov	r5, r1
 295 0008 0192     		str	r2, [sp, #4]
 648:Generated_Source\PSoC6\pdl\rtos\FreeRTOS\10.0.1\Source/stream_buffer.c **** 	{
 296              		.loc 1 648 0
 297 000a ABB1     		cbz	r3, .L22
 298 000c 1A46     		mov	r2, r3
 299              	.LVL25:
 654:Generated_Source\PSoC6\pdl\rtos\FreeRTOS\10.0.1\Source/stream_buffer.c **** 	{
 300              		.loc 1 654 0
 301 000e 037F     		ldrb	r3, [r0, #28]	@ zero_extendqisi2
 302              	.LVL26:
 303 0010 13F0010F 		tst	r3, #1
 304 0014 06D1     		bne	.L20
 305              	.LVL27:
 660:Generated_Source\PSoC6\pdl\rtos\FreeRTOS\10.0.1\Source/stream_buffer.c **** 	}
 306              		.loc 1 660 0
 307 0016 019B     		ldr	r3, [sp, #4]
 308 0018 9A42     		cmp	r2, r3
 309 001a 28BF     		it	cs
 310 001c 1A46     		movcs	r2, r3
 311              	.LVL28:
ARM GAS  C:\Users\adris\AppData\Local\Temp\ccnf5SFB.s 			page 30


 312 001e 0192     		str	r2, [sp, #4]
 313              	.LVL29:
 659:Generated_Source\PSoC6\pdl\rtos\FreeRTOS\10.0.1\Source/stream_buffer.c **** 		xDataLengthBytes = configMIN( xDataLengthBytes, xSpace ); /*lint !e9044 Function parameter modifi
 314              		.loc 1 659 0
 315 0020 0123     		movs	r3, #1
 316              	.LVL30:
 317 0022 0CE0     		b	.L19
 318              	.LVL31:
 319              	.L20:
 662:Generated_Source\PSoC6\pdl\rtos\FreeRTOS\10.0.1\Source/stream_buffer.c **** 	{
 320              		.loc 1 662 0
 321 0024 069B     		ldr	r3, [sp, #24]
 322 0026 9A42     		cmp	r2, r3
 323 0028 08D3     		bcc	.L23
 324              	.LVL32:
 669:Generated_Source\PSoC6\pdl\rtos\FreeRTOS\10.0.1\Source/stream_buffer.c **** 	}
 325              		.loc 1 669 0
 326 002a 0422     		movs	r2, #4
 327              	.LVL33:
 328 002c 0DEB0201 		add	r1, sp, r2
 329              	.LVL34:
 330 0030 FFF7FEFF 		bl	prvWriteBytesToBuffer
 331              	.LVL35:
 668:Generated_Source\PSoC6\pdl\rtos\FreeRTOS\10.0.1\Source/stream_buffer.c **** 		( void ) prvWriteBytesToBuffer( pxStreamBuffer, ( const uint8_t * ) &( xDataLengthBytes ), sbBYTE
 332              		.loc 1 668 0
 333 0034 0123     		movs	r3, #1
 334 0036 02E0     		b	.L19
 335              	.LVL36:
 336              	.L22:
 652:Generated_Source\PSoC6\pdl\rtos\FreeRTOS\10.0.1\Source/stream_buffer.c **** 	}
 337              		.loc 1 652 0
 338 0038 0023     		movs	r3, #0
 339              	.LVL37:
 340 003a 00E0     		b	.L19
 341              	.LVL38:
 342              	.L23:
 674:Generated_Source\PSoC6\pdl\rtos\FreeRTOS\10.0.1\Source/stream_buffer.c **** 	}
 343              		.loc 1 674 0
 344 003c 0023     		movs	r3, #0
 345              	.LVL39:
 346              	.L19:
 677:Generated_Source\PSoC6\pdl\rtos\FreeRTOS\10.0.1\Source/stream_buffer.c **** 	{
 347              		.loc 1 677 0
 348 003e 2BB1     		cbz	r3, .L24
 680:Generated_Source\PSoC6\pdl\rtos\FreeRTOS\10.0.1\Source/stream_buffer.c **** 	}
 349              		.loc 1 680 0
 350 0040 019A     		ldr	r2, [sp, #4]
 351 0042 2946     		mov	r1, r5
 352 0044 2046     		mov	r0, r4
 353 0046 FFF7FEFF 		bl	prvWriteBytesToBuffer
 354              	.LVL40:
 355 004a 00E0     		b	.L21
 356              	.LVL41:
 357              	.L24:
 684:Generated_Source\PSoC6\pdl\rtos\FreeRTOS\10.0.1\Source/stream_buffer.c **** 	}
 358              		.loc 1 684 0
 359 004c 0020     		movs	r0, #0
ARM GAS  C:\Users\adris\AppData\Local\Temp\ccnf5SFB.s 			page 31


 360              	.LVL42:
 361              	.L21:
 688:Generated_Source\PSoC6\pdl\rtos\FreeRTOS\10.0.1\Source/stream_buffer.c **** /*-----------------------------------------------------------*/
 362              		.loc 1 688 0
 363 004e 03B0     		add	sp, sp, #12
 364              		.cfi_def_cfa_offset 12
 365              		@ sp needed
 366 0050 30BD     		pop	{r4, r5, pc}
 367              		.cfi_endproc
 368              	.LFE144:
 369              		.size	prvWriteMessageToBuffer, .-prvWriteMessageToBuffer
 370 0052 00BF     		.section	.text.prvReadBytesFromBuffer,"ax",%progbits
 371              		.align	2
 372              		.thumb
 373              		.thumb_func
 374              		.type	prvReadBytesFromBuffer, %function
 375              	prvReadBytesFromBuffer:
 376              	.LFB153:
1067:Generated_Source\PSoC6\pdl\rtos\FreeRTOS\10.0.1\Source/stream_buffer.c **** size_t xCount, xFirstLength, xNextTail;
 377              		.loc 1 1067 0
 378              		.cfi_startproc
 379              		@ args = 0, pretend = 0, frame = 0
 380              		@ frame_needed = 0, uses_anonymous_args = 0
 381              	.LVL43:
 382 0000 2DE9F843 		push	{r3, r4, r5, r6, r7, r8, r9, lr}
 383              		.cfi_def_cfa_offset 32
 384              		.cfi_offset 3, -32
 385              		.cfi_offset 4, -28
 386              		.cfi_offset 5, -24
 387              		.cfi_offset 6, -20
 388              		.cfi_offset 7, -16
 389              		.cfi_offset 8, -12
 390              		.cfi_offset 9, -8
 391              		.cfi_offset 14, -4
1071:Generated_Source\PSoC6\pdl\rtos\FreeRTOS\10.0.1\Source/stream_buffer.c **** 
 392              		.loc 1 1071 0
 393 0004 9046     		mov	r8, r2
 394 0006 9A42     		cmp	r2, r3
 395 0008 28BF     		it	cs
 396 000a 9846     		movcs	r8, r3
 397              	.LVL44:
1073:Generated_Source\PSoC6\pdl\rtos\FreeRTOS\10.0.1\Source/stream_buffer.c **** 	{
 398              		.loc 1 1073 0
 399 000c B8F1000F 		cmp	r8, #0
 400 0010 3ED0     		beq	.L27
1075:Generated_Source\PSoC6\pdl\rtos\FreeRTOS\10.0.1\Source/stream_buffer.c **** 
 401              		.loc 1 1075 0
 402 0012 0468     		ldr	r4, [r0]
 403              	.LVL45:
1080:Generated_Source\PSoC6\pdl\rtos\FreeRTOS\10.0.1\Source/stream_buffer.c **** 
 404              		.loc 1 1080 0
 405 0014 8368     		ldr	r3, [r0, #8]
 406              	.LVL46:
 407 0016 1F1B     		subs	r7, r3, r4
 408 0018 4745     		cmp	r7, r8
 409 001a 28BF     		it	cs
 410 001c 4746     		movcs	r7, r8
ARM GAS  C:\Users\adris\AppData\Local\Temp\ccnf5SFB.s 			page 32


 411              	.LVL47:
1084:Generated_Source\PSoC6\pdl\rtos\FreeRTOS\10.0.1\Source/stream_buffer.c **** 		configASSERT( ( xNextTail + xFirstLength ) <= pxStreamBuffer->xLength );
 412              		.loc 1 1084 0
 413 001e BA42     		cmp	r2, r7
 414 0020 08D2     		bcs	.L28
 415              	.LBB86:
 416              	.LBB87:
 417              		.loc 2 156 0
 418              		.syntax unified
 419              	@ 156 "Generated_Source\PSoC6\pdl\rtos/FreeRTOS/10.0.1/Source/portable/GCC/CM4F/portmacro.h" 1
 420 0022 4FF03F03 			mov r3, #63												
 421 0026 83F31188 		msr basepri, r3											
 422 002a BFF36F8F 		isb														
 423 002e BFF34F8F 		dsb														
 424              	
 425              	@ 0 "" 2
 426              	.LVL48:
 427              		.thumb
 428              		.syntax unified
 429              	.L29:
 430 0032 FEE7     		b	.L29
 431              	.L28:
 432              	.LBE87:
 433              	.LBE86:
1085:Generated_Source\PSoC6\pdl\rtos\FreeRTOS\10.0.1\Source/stream_buffer.c **** 		memcpy( ( void * ) pucData, ( const void * ) &( pxStreamBuffer->pucBuffer[ xNextTail ] ), xFirstL
 434              		.loc 1 1085 0
 435 0034 E519     		adds	r5, r4, r7
 436 0036 AB42     		cmp	r3, r5
 437 0038 08D2     		bcs	.L30
 438              	.LBB88:
 439              	.LBB89:
 440              		.loc 2 156 0
 441              		.syntax unified
 442              	@ 156 "Generated_Source\PSoC6\pdl\rtos/FreeRTOS/10.0.1/Source/portable/GCC/CM4F/portmacro.h" 1
 443 003a 4FF03F03 			mov r3, #63												
 444 003e 83F31188 		msr basepri, r3											
 445 0042 BFF36F8F 		isb														
 446 0046 BFF34F8F 		dsb														
 447              	
 448              	@ 0 "" 2
 449              	.LVL49:
 450              		.thumb
 451              		.syntax unified
 452              	.L31:
 453 004a FEE7     		b	.L31
 454              	.L30:
 455 004c 9146     		mov	r9, r2
 456 004e 0E46     		mov	r6, r1
 457 0050 0546     		mov	r5, r0
 458              	.LBE89:
 459              	.LBE88:
1086:Generated_Source\PSoC6\pdl\rtos\FreeRTOS\10.0.1\Source/stream_buffer.c **** 
 460              		.loc 1 1086 0
 461 0052 8169     		ldr	r1, [r0, #24]
 462              	.LVL50:
 463 0054 3A46     		mov	r2, r7
 464              	.LVL51:
ARM GAS  C:\Users\adris\AppData\Local\Temp\ccnf5SFB.s 			page 33


 465 0056 2144     		add	r1, r1, r4
 466 0058 3046     		mov	r0, r6
 467              	.LVL52:
 468 005a FFF7FEFF 		bl	memcpy
 469              	.LVL53:
1090:Generated_Source\PSoC6\pdl\rtos\FreeRTOS\10.0.1\Source/stream_buffer.c **** 		{
 470              		.loc 1 1090 0
 471 005e B845     		cmp	r8, r7
 472 0060 10D9     		bls	.L32
1093:Generated_Source\PSoC6\pdl\rtos\FreeRTOS\10.0.1\Source/stream_buffer.c **** 			memcpy( ( void * ) &( pucData[ xFirstLength ] ), ( void * ) ( pxStreamBuffer->pucBuffer ), xCoun
 473              		.loc 1 1093 0
 474 0062 C145     		cmp	r9, r8
 475 0064 08D2     		bcs	.L33
 476              	.LBB90:
 477              	.LBB91:
 478              		.loc 2 156 0
 479              		.syntax unified
 480              	@ 156 "Generated_Source\PSoC6\pdl\rtos/FreeRTOS/10.0.1/Source/portable/GCC/CM4F/portmacro.h" 1
 481 0066 4FF03F03 			mov r3, #63												
 482 006a 83F31188 		msr basepri, r3											
 483 006e BFF36F8F 		isb														
 484 0072 BFF34F8F 		dsb														
 485              	
 486              	@ 0 "" 2
 487              	.LVL54:
 488              		.thumb
 489              		.syntax unified
 490              	.L34:
 491 0076 FEE7     		b	.L34
 492              	.L33:
 493              	.LBE91:
 494              	.LBE90:
1094:Generated_Source\PSoC6\pdl\rtos\FreeRTOS\10.0.1\Source/stream_buffer.c **** 		}
 495              		.loc 1 1094 0
 496 0078 C7EB0802 		rsb	r2, r7, r8
 497 007c A969     		ldr	r1, [r5, #24]
 498 007e F019     		adds	r0, r6, r7
 499 0080 FFF7FEFF 		bl	memcpy
 500              	.LVL55:
 501              	.L32:
1103:Generated_Source\PSoC6\pdl\rtos\FreeRTOS\10.0.1\Source/stream_buffer.c **** 
 502              		.loc 1 1103 0
 503 0084 4444     		add	r4, r4, r8
 504              	.LVL56:
1105:Generated_Source\PSoC6\pdl\rtos\FreeRTOS\10.0.1\Source/stream_buffer.c **** 		{
 505              		.loc 1 1105 0
 506 0086 AB68     		ldr	r3, [r5, #8]
 507 0088 9C42     		cmp	r4, r3
 508 008a 00D3     		bcc	.L35
1107:Generated_Source\PSoC6\pdl\rtos\FreeRTOS\10.0.1\Source/stream_buffer.c **** 		}
 509              		.loc 1 1107 0
 510 008c E41A     		subs	r4, r4, r3
 511              	.LVL57:
 512              	.L35:
1110:Generated_Source\PSoC6\pdl\rtos\FreeRTOS\10.0.1\Source/stream_buffer.c **** 	}
 513              		.loc 1 1110 0
 514 008e 2C60     		str	r4, [r5]
ARM GAS  C:\Users\adris\AppData\Local\Temp\ccnf5SFB.s 			page 34


 515              	.LVL58:
 516              	.L27:
1118:Generated_Source\PSoC6\pdl\rtos\FreeRTOS\10.0.1\Source/stream_buffer.c **** /*-----------------------------------------------------------*/
 517              		.loc 1 1118 0
 518 0090 4046     		mov	r0, r8
 519 0092 BDE8F883 		pop	{r3, r4, r5, r6, r7, r8, r9, pc}
 520              		.cfi_endproc
 521              	.LFE153:
 522              		.size	prvReadBytesFromBuffer, .-prvReadBytesFromBuffer
 523 0096 00BF     		.section	.text.prvReadMessageFromBuffer,"ax",%progbits
 524              		.align	2
 525              		.thumb
 526              		.thumb_func
 527              		.type	prvReadMessageFromBuffer, %function
 528              	prvReadMessageFromBuffer:
 529              	.LFB147:
 857:Generated_Source\PSoC6\pdl\rtos\FreeRTOS\10.0.1\Source/stream_buffer.c **** size_t xOriginalTail, xReceivedLength, xNextMessageLength;
 530              		.loc 1 857 0
 531              		.cfi_startproc
 532              		@ args = 4, pretend = 0, frame = 8
 533              		@ frame_needed = 0, uses_anonymous_args = 0
 534              	.LVL59:
 535 0000 2DE9F043 		push	{r4, r5, r6, r7, r8, r9, lr}
 536              		.cfi_def_cfa_offset 28
 537              		.cfi_offset 4, -28
 538              		.cfi_offset 5, -24
 539              		.cfi_offset 6, -20
 540              		.cfi_offset 7, -16
 541              		.cfi_offset 8, -12
 542              		.cfi_offset 9, -8
 543              		.cfi_offset 14, -4
 544 0004 83B0     		sub	sp, sp, #12
 545              		.cfi_def_cfa_offset 40
 546 0006 0546     		mov	r5, r0
 547 0008 0F46     		mov	r7, r1
 548 000a 9046     		mov	r8, r2
 549 000c 1C46     		mov	r4, r3
 550 000e 0A9E     		ldr	r6, [sp, #40]
 860:Generated_Source\PSoC6\pdl\rtos\FreeRTOS\10.0.1\Source/stream_buffer.c **** 	{
 551              		.loc 1 860 0
 552 0010 76B1     		cbz	r6, .L38
 866:Generated_Source\PSoC6\pdl\rtos\FreeRTOS\10.0.1\Source/stream_buffer.c **** 		( void ) prvReadBytesFromBuffer( pxStreamBuffer, ( uint8_t * ) &xNextMessageLength, xBytesToStore
 553              		.loc 1 866 0
 554 0012 D0F80090 		ldr	r9, [r0]
 555              	.LVL60:
 867:Generated_Source\PSoC6\pdl\rtos\FreeRTOS\10.0.1\Source/stream_buffer.c **** 
 556              		.loc 1 867 0
 557 0016 3246     		mov	r2, r6
 558              	.LVL61:
 559 0018 01A9     		add	r1, sp, #4
 560              	.LVL62:
 561 001a FFF7FEFF 		bl	prvReadBytesFromBuffer
 562              	.LVL63:
 871:Generated_Source\PSoC6\pdl\rtos\FreeRTOS\10.0.1\Source/stream_buffer.c **** 
 563              		.loc 1 871 0
 564 001e A41B     		subs	r4, r4, r6
 565              	.LVL64:
ARM GAS  C:\Users\adris\AppData\Local\Temp\ccnf5SFB.s 			page 35


 875:Generated_Source\PSoC6\pdl\rtos\FreeRTOS\10.0.1\Source/stream_buffer.c **** 		{
 566              		.loc 1 875 0
 567 0020 019B     		ldr	r3, [sp, #4]
 568 0022 4345     		cmp	r3, r8
 569 0024 05D9     		bls	.L39
 880:Generated_Source\PSoC6\pdl\rtos\FreeRTOS\10.0.1\Source/stream_buffer.c **** 			xNextMessageLength = 0;
 570              		.loc 1 880 0
 571 0026 C5F80090 		str	r9, [r5]
 881:Generated_Source\PSoC6\pdl\rtos\FreeRTOS\10.0.1\Source/stream_buffer.c **** 		}
 572              		.loc 1 881 0
 573 002a 0023     		movs	r3, #0
 574 002c 0193     		str	r3, [sp, #4]
 575 002e 00E0     		b	.L39
 576              	.LVL65:
 577              	.L38:
 892:Generated_Source\PSoC6\pdl\rtos\FreeRTOS\10.0.1\Source/stream_buffer.c **** 	}
 578              		.loc 1 892 0
 579 0030 0192     		str	r2, [sp, #4]
 580              	.LVL66:
 581              	.L39:
 896:Generated_Source\PSoC6\pdl\rtos\FreeRTOS\10.0.1\Source/stream_buffer.c **** 
 582              		.loc 1 896 0
 583 0032 2346     		mov	r3, r4
 584 0034 019A     		ldr	r2, [sp, #4]
 585 0036 3946     		mov	r1, r7
 586 0038 2846     		mov	r0, r5
 587 003a FFF7FEFF 		bl	prvReadBytesFromBuffer
 588              	.LVL67:
 899:Generated_Source\PSoC6\pdl\rtos\FreeRTOS\10.0.1\Source/stream_buffer.c **** /*-----------------------------------------------------------*/
 589              		.loc 1 899 0
 590 003e 03B0     		add	sp, sp, #12
 591              		.cfi_def_cfa_offset 28
 592              		@ sp needed
 593 0040 BDE8F083 		pop	{r4, r5, r6, r7, r8, r9, pc}
 594              		.cfi_endproc
 595              	.LFE147:
 596              		.size	prvReadMessageFromBuffer, .-prvReadMessageFromBuffer
 597              		.section	.text.xStreamBufferGenericCreate,"ax",%progbits
 598              		.align	2
 599              		.global	xStreamBufferGenericCreate
 600              		.thumb
 601              		.thumb_func
 602              		.type	xStreamBufferGenericCreate, %function
 603              	xStreamBufferGenericCreate:
 604              	.LFB136:
 220:Generated_Source\PSoC6\pdl\rtos\FreeRTOS\10.0.1\Source/stream_buffer.c **** 	uint8_t *pucAllocatedMemory;
 605              		.loc 1 220 0
 606              		.cfi_startproc
 607              		@ args = 0, pretend = 0, frame = 0
 608              		@ frame_needed = 0, uses_anonymous_args = 0
 609              	.LVL68:
 227:Generated_Source\PSoC6\pdl\rtos\FreeRTOS\10.0.1\Source/stream_buffer.c **** 		configASSERT( xTriggerLevelBytes <= xBufferSizeBytes );
 610              		.loc 1 227 0
 611 0000 0428     		cmp	r0, #4
 612 0002 08D8     		bhi	.L42
 613              	.LBB92:
 614              	.LBB93:
ARM GAS  C:\Users\adris\AppData\Local\Temp\ccnf5SFB.s 			page 36


 615              		.loc 2 156 0
 616              		.syntax unified
 617              	@ 156 "Generated_Source\PSoC6\pdl\rtos/FreeRTOS/10.0.1/Source/portable/GCC/CM4F/portmacro.h" 1
 618 0004 4FF03F03 			mov r3, #63												
 619 0008 83F31188 		msr basepri, r3											
 620 000c BFF36F8F 		isb														
 621 0010 BFF34F8F 		dsb														
 622              	
 623              	@ 0 "" 2
 624              	.LVL69:
 625              		.thumb
 626              		.syntax unified
 627              	.L43:
 628 0014 FEE7     		b	.L43
 629              	.L42:
 630              	.LBE93:
 631              	.LBE92:
 220:Generated_Source\PSoC6\pdl\rtos\FreeRTOS\10.0.1\Source/stream_buffer.c **** 	uint8_t *pucAllocatedMemory;
 632              		.loc 1 220 0
 633 0016 F0B5     		push	{r4, r5, r6, r7, lr}
 634              		.cfi_def_cfa_offset 20
 635              		.cfi_offset 4, -20
 636              		.cfi_offset 5, -16
 637              		.cfi_offset 6, -12
 638              		.cfi_offset 7, -8
 639              		.cfi_offset 14, -4
 640 0018 83B0     		sub	sp, sp, #12
 641              		.cfi_def_cfa_offset 32
 642 001a 0C46     		mov	r4, r1
 643 001c 1746     		mov	r7, r2
 228:Generated_Source\PSoC6\pdl\rtos\FreeRTOS\10.0.1\Source/stream_buffer.c **** 
 644              		.loc 1 228 0
 645 001e 8842     		cmp	r0, r1
 646 0020 08D2     		bcs	.L44
 647              	.LBB94:
 648              	.LBB95:
 649              		.loc 2 156 0
 650              		.syntax unified
 651              	@ 156 "Generated_Source\PSoC6\pdl\rtos/FreeRTOS/10.0.1/Source/portable/GCC/CM4F/portmacro.h" 1
 652 0022 4FF03F03 			mov r3, #63												
 653 0026 83F31188 		msr basepri, r3											
 654 002a BFF36F8F 		isb														
 655 002e BFF34F8F 		dsb														
 656              	
 657              	@ 0 "" 2
 658              	.LVL70:
 659              		.thumb
 660              		.syntax unified
 661              	.L45:
 662 0032 FEE7     		b	.L45
 663              	.L44:
 664              	.LBE95:
 665              	.LBE94:
 232:Generated_Source\PSoC6\pdl\rtos\FreeRTOS\10.0.1\Source/stream_buffer.c **** 		{
 666              		.loc 1 232 0
 667 0034 01B9     		cbnz	r1, .L46
 234:Generated_Source\PSoC6\pdl\rtos\FreeRTOS\10.0.1\Source/stream_buffer.c **** 		}
ARM GAS  C:\Users\adris\AppData\Local\Temp\ccnf5SFB.s 			page 37


 668              		.loc 1 234 0
 669 0036 0124     		movs	r4, #1
 670              	.L46:
 671              	.LVL71:
 245:Generated_Source\PSoC6\pdl\rtos\FreeRTOS\10.0.1\Source/stream_buffer.c **** 		pucAllocatedMemory = ( uint8_t * ) pvPortMalloc( xBufferSizeBytes + sizeof( StreamBuffer_t ) ); /
 672              		.loc 1 245 0
 673 0038 461C     		adds	r6, r0, #1
 674              	.LVL72:
 246:Generated_Source\PSoC6\pdl\rtos\FreeRTOS\10.0.1\Source/stream_buffer.c **** 
 675              		.loc 1 246 0
 676 003a 2530     		adds	r0, r0, #37
 677 003c FFF7FEFF 		bl	pvPortMalloc
 678              	.LVL73:
 248:Generated_Source\PSoC6\pdl\rtos\FreeRTOS\10.0.1\Source/stream_buffer.c **** 		{
 679              		.loc 1 248 0
 680 0040 0546     		mov	r5, r0
 681 0042 30B1     		cbz	r0, .L47
 250:Generated_Source\PSoC6\pdl\rtos\FreeRTOS\10.0.1\Source/stream_buffer.c **** 										   pucAllocatedMemory + sizeof( StreamBuffer_t ),  /* Storage area follows. */ /*lint !e9
 682              		.loc 1 250 0
 683 0044 0097     		str	r7, [sp]
 684 0046 2346     		mov	r3, r4
 685 0048 3246     		mov	r2, r6
 686 004a 00F12401 		add	r1, r0, #36
 687 004e FFF7FEFF 		bl	prvInitialiseNewStreamBuffer
 688              	.LVL74:
 689              	.L47:
 264:Generated_Source\PSoC6\pdl\rtos\FreeRTOS\10.0.1\Source/stream_buffer.c **** 
 690              		.loc 1 264 0
 691 0052 2846     		mov	r0, r5
 692 0054 03B0     		add	sp, sp, #12
 693              		.cfi_def_cfa_offset 20
 694              		@ sp needed
 695 0056 F0BD     		pop	{r4, r5, r6, r7, pc}
 696              		.cfi_endproc
 697              	.LFE136:
 698              		.size	xStreamBufferGenericCreate, .-xStreamBufferGenericCreate
 699              		.section	.text.vStreamBufferDelete,"ax",%progbits
 700              		.align	2
 701              		.global	vStreamBufferDelete
 702              		.thumb
 703              		.thumb_func
 704              		.type	vStreamBufferDelete, %function
 705              	vStreamBufferDelete:
 706              	.LFB137:
 336:Generated_Source\PSoC6\pdl\rtos\FreeRTOS\10.0.1\Source/stream_buffer.c **** StreamBuffer_t * pxStreamBuffer = ( StreamBuffer_t * ) xStreamBuffer; /*lint !e9087 !e9079 Safe cas
 707              		.loc 1 336 0
 708              		.cfi_startproc
 709              		@ args = 0, pretend = 0, frame = 0
 710              		@ frame_needed = 0, uses_anonymous_args = 0
 711              	.LVL75:
 712 0000 08B5     		push	{r3, lr}
 713              		.cfi_def_cfa_offset 8
 714              		.cfi_offset 3, -8
 715              		.cfi_offset 14, -4
 716              	.LVL76:
 339:Generated_Source\PSoC6\pdl\rtos\FreeRTOS\10.0.1\Source/stream_buffer.c **** 
 717              		.loc 1 339 0
ARM GAS  C:\Users\adris\AppData\Local\Temp\ccnf5SFB.s 			page 38


 718 0002 40B9     		cbnz	r0, .L51
 719              	.LBB96:
 720              	.LBB97:
 721              		.loc 2 156 0
 722              		.syntax unified
 723              	@ 156 "Generated_Source\PSoC6\pdl\rtos/FreeRTOS/10.0.1/Source/portable/GCC/CM4F/portmacro.h" 1
 724 0004 4FF03F03 			mov r3, #63												
 725 0008 83F31188 		msr basepri, r3											
 726 000c BFF36F8F 		isb														
 727 0010 BFF34F8F 		dsb														
 728              	
 729              	@ 0 "" 2
 730              	.LVL77:
 731              		.thumb
 732              		.syntax unified
 733              	.L52:
 734 0014 FEE7     		b	.L52
 735              	.L51:
 736              	.LBE97:
 737              	.LBE96:
 343:Generated_Source\PSoC6\pdl\rtos\FreeRTOS\10.0.1\Source/stream_buffer.c **** 	{
 738              		.loc 1 343 0
 739 0016 037F     		ldrb	r3, [r0, #28]	@ zero_extendqisi2
 740 0018 13F0020F 		tst	r3, #2
 741 001c 02D1     		bne	.L53
 349:Generated_Source\PSoC6\pdl\rtos\FreeRTOS\10.0.1\Source/stream_buffer.c **** 		}
 742              		.loc 1 349 0
 743 001e FFF7FEFF 		bl	vPortFree
 744              	.LVL78:
 745 0022 08BD     		pop	{r3, pc}
 746              	.LVL79:
 747              	.L53:
 363:Generated_Source\PSoC6\pdl\rtos\FreeRTOS\10.0.1\Source/stream_buffer.c **** 	}
 748              		.loc 1 363 0
 749 0024 2422     		movs	r2, #36
 750 0026 0021     		movs	r1, #0
 751 0028 FFF7FEFF 		bl	memset
 752              	.LVL80:
 753 002c 08BD     		pop	{r3, pc}
 754              		.cfi_endproc
 755              	.LFE137:
 756              		.size	vStreamBufferDelete, .-vStreamBufferDelete
 757 002e 00BF     		.section	.text.xStreamBufferReset,"ax",%progbits
 758              		.align	2
 759              		.global	xStreamBufferReset
 760              		.thumb
 761              		.thumb_func
 762              		.type	xStreamBufferReset, %function
 763              	xStreamBufferReset:
 764              	.LFB138:
 369:Generated_Source\PSoC6\pdl\rtos\FreeRTOS\10.0.1\Source/stream_buffer.c **** StreamBuffer_t * const pxStreamBuffer = ( StreamBuffer_t * ) xStreamBuffer; /*lint !e9087 !e9079 Sa
 765              		.loc 1 369 0
 766              		.cfi_startproc
 767              		@ args = 0, pretend = 0, frame = 0
 768              		@ frame_needed = 0, uses_anonymous_args = 0
 769              	.LVL81:
 377:Generated_Source\PSoC6\pdl\rtos\FreeRTOS\10.0.1\Source/stream_buffer.c **** 
ARM GAS  C:\Users\adris\AppData\Local\Temp\ccnf5SFB.s 			page 39


 770              		.loc 1 377 0
 771 0000 40B9     		cbnz	r0, .L57
 772              	.LBB98:
 773              	.LBB99:
 774              		.loc 2 156 0
 775              		.syntax unified
 776              	@ 156 "Generated_Source\PSoC6\pdl\rtos/FreeRTOS/10.0.1/Source/portable/GCC/CM4F/portmacro.h" 1
 777 0002 4FF03F03 			mov r3, #63												
 778 0006 83F31188 		msr basepri, r3											
 779 000a BFF36F8F 		isb														
 780 000e BFF34F8F 		dsb														
 781              	
 782              	@ 0 "" 2
 783              	.LVL82:
 784              		.thumb
 785              		.syntax unified
 786              	.L58:
 787 0012 FEE7     		b	.L58
 788              	.L57:
 789              	.LBE99:
 790              	.LBE98:
 369:Generated_Source\PSoC6\pdl\rtos\FreeRTOS\10.0.1\Source/stream_buffer.c **** StreamBuffer_t * const pxStreamBuffer = ( StreamBuffer_t * ) xStreamBuffer; /*lint !e9087 !e9079 Sa
 791              		.loc 1 369 0
 792 0014 30B5     		push	{r4, r5, lr}
 793              		.cfi_def_cfa_offset 12
 794              		.cfi_offset 4, -12
 795              		.cfi_offset 5, -8
 796              		.cfi_offset 14, -4
 797 0016 83B0     		sub	sp, sp, #12
 798              		.cfi_def_cfa_offset 24
 799 0018 0446     		mov	r4, r0
 383:Generated_Source\PSoC6\pdl\rtos\FreeRTOS\10.0.1\Source/stream_buffer.c **** 	}
 800              		.loc 1 383 0
 801 001a 056A     		ldr	r5, [r0, #32]
 802              	.LVL83:
 388:Generated_Source\PSoC6\pdl\rtos\FreeRTOS\10.0.1\Source/stream_buffer.c **** 	{
 803              		.loc 1 388 0
 804 001c 0369     		ldr	r3, [r0, #16]
 805 001e 93B9     		cbnz	r3, .L61
 390:Generated_Source\PSoC6\pdl\rtos\FreeRTOS\10.0.1\Source/stream_buffer.c **** 		{
 806              		.loc 1 390 0
 807 0020 4369     		ldr	r3, [r0, #20]
 808 0022 93B9     		cbnz	r3, .L62
 392:Generated_Source\PSoC6\pdl\rtos\FreeRTOS\10.0.1\Source/stream_buffer.c **** 			{
 809              		.loc 1 392 0
 810 0024 037F     		ldrb	r3, [r0, #28]	@ zero_extendqisi2
 811 0026 13F0010F 		tst	r3, #1
 812 002a 01D0     		beq	.L63
 394:Generated_Source\PSoC6\pdl\rtos\FreeRTOS\10.0.1\Source/stream_buffer.c **** 			}
 813              		.loc 1 394 0
 814 002c 0120     		movs	r0, #1
 815              	.LVL84:
 816 002e 00E0     		b	.L60
 817              	.LVL85:
 818              	.L63:
 398:Generated_Source\PSoC6\pdl\rtos\FreeRTOS\10.0.1\Source/stream_buffer.c **** 			}
 819              		.loc 1 398 0
ARM GAS  C:\Users\adris\AppData\Local\Temp\ccnf5SFB.s 			page 40


 820 0030 0020     		movs	r0, #0
 821              	.LVL86:
 822              	.L60:
 401:Generated_Source\PSoC6\pdl\rtos\FreeRTOS\10.0.1\Source/stream_buffer.c **** 										  pxStreamBuffer->pucBuffer,
 823              		.loc 1 401 0
 824 0032 E368     		ldr	r3, [r4, #12]
 825 0034 A268     		ldr	r2, [r4, #8]
 826 0036 A169     		ldr	r1, [r4, #24]
 827 0038 0090     		str	r0, [sp]
 828 003a 2046     		mov	r0, r4
 829              	.LVL87:
 830 003c FFF7FEFF 		bl	prvInitialiseNewStreamBuffer
 831              	.LVL88:
 410:Generated_Source\PSoC6\pdl\rtos\FreeRTOS\10.0.1\Source/stream_buffer.c **** 			}
 832              		.loc 1 410 0
 833 0040 2562     		str	r5, [r4, #32]
 406:Generated_Source\PSoC6\pdl\rtos\FreeRTOS\10.0.1\Source/stream_buffer.c **** 
 834              		.loc 1 406 0
 835 0042 0120     		movs	r0, #1
 836 0044 02E0     		b	.L59
 837              	.LVL89:
 838              	.L61:
 371:Generated_Source\PSoC6\pdl\rtos\FreeRTOS\10.0.1\Source/stream_buffer.c **** 
 839              		.loc 1 371 0
 840 0046 0020     		movs	r0, #0
 841              	.LVL90:
 842 0048 00E0     		b	.L59
 843              	.LVL91:
 844              	.L62:
 845 004a 0020     		movs	r0, #0
 846              	.LVL92:
 847              	.L59:
 419:Generated_Source\PSoC6\pdl\rtos\FreeRTOS\10.0.1\Source/stream_buffer.c **** /*-----------------------------------------------------------*/
 848              		.loc 1 419 0
 849 004c 03B0     		add	sp, sp, #12
 850              		.cfi_def_cfa_offset 12
 851              		@ sp needed
 852 004e 30BD     		pop	{r4, r5, pc}
 853              		.cfi_endproc
 854              	.LFE138:
 855              		.size	xStreamBufferReset, .-xStreamBufferReset
 856              		.section	.text.xStreamBufferSetTriggerLevel,"ax",%progbits
 857              		.align	2
 858              		.global	xStreamBufferSetTriggerLevel
 859              		.thumb
 860              		.thumb_func
 861              		.type	xStreamBufferSetTriggerLevel, %function
 862              	xStreamBufferSetTriggerLevel:
 863              	.LFB139:
 423:Generated_Source\PSoC6\pdl\rtos\FreeRTOS\10.0.1\Source/stream_buffer.c **** StreamBuffer_t * const pxStreamBuffer = ( StreamBuffer_t * ) xStreamBuffer; /*lint !e9087 !e9079 Sa
 864              		.loc 1 423 0
 865              		.cfi_startproc
 866              		@ args = 0, pretend = 0, frame = 0
 867              		@ frame_needed = 0, uses_anonymous_args = 0
 868              		@ link register save eliminated.
 869              	.LVL93:
 427:Generated_Source\PSoC6\pdl\rtos\FreeRTOS\10.0.1\Source/stream_buffer.c **** 
ARM GAS  C:\Users\adris\AppData\Local\Temp\ccnf5SFB.s 			page 41


 870              		.loc 1 427 0
 871 0000 0346     		mov	r3, r0
 872 0002 40B9     		cbnz	r0, .L66
 873              	.LBB100:
 874              	.LBB101:
 875              		.loc 2 156 0
 876              		.syntax unified
 877              	@ 156 "Generated_Source\PSoC6\pdl\rtos/FreeRTOS/10.0.1/Source/portable/GCC/CM4F/portmacro.h" 1
 878 0004 4FF03F03 			mov r3, #63												
 879 0008 83F31188 		msr basepri, r3											
 880 000c BFF36F8F 		isb														
 881 0010 BFF34F8F 		dsb														
 882              	
 883              	@ 0 "" 2
 884              	.LVL94:
 885              		.thumb
 886              		.syntax unified
 887              	.L67:
 888 0014 FEE7     		b	.L67
 889              	.L66:
 890              	.LBE101:
 891              	.LBE100:
 430:Generated_Source\PSoC6\pdl\rtos\FreeRTOS\10.0.1\Source/stream_buffer.c **** 	{
 892              		.loc 1 430 0
 893 0016 01B9     		cbnz	r1, .L68
 432:Generated_Source\PSoC6\pdl\rtos\FreeRTOS\10.0.1\Source/stream_buffer.c **** 	}
 894              		.loc 1 432 0
 895 0018 0121     		movs	r1, #1
 896              	.LVL95:
 897              	.L68:
 437:Generated_Source\PSoC6\pdl\rtos\FreeRTOS\10.0.1\Source/stream_buffer.c **** 	{
 898              		.loc 1 437 0
 899 001a 9A68     		ldr	r2, [r3, #8]
 900 001c 9142     		cmp	r1, r2
 901 001e 02D8     		bhi	.L71
 439:Generated_Source\PSoC6\pdl\rtos\FreeRTOS\10.0.1\Source/stream_buffer.c **** 		xReturn = pdPASS;
 902              		.loc 1 439 0
 903 0020 D960     		str	r1, [r3, #12]
 904              	.LVL96:
 440:Generated_Source\PSoC6\pdl\rtos\FreeRTOS\10.0.1\Source/stream_buffer.c **** 	}
 905              		.loc 1 440 0
 906 0022 0120     		movs	r0, #1
 907              	.LVL97:
 908 0024 7047     		bx	lr
 909              	.LVL98:
 910              	.L71:
 444:Generated_Source\PSoC6\pdl\rtos\FreeRTOS\10.0.1\Source/stream_buffer.c **** 	}
 911              		.loc 1 444 0
 912 0026 0020     		movs	r0, #0
 913              	.LVL99:
 448:Generated_Source\PSoC6\pdl\rtos\FreeRTOS\10.0.1\Source/stream_buffer.c **** /*-----------------------------------------------------------*/
 914              		.loc 1 448 0
 915 0028 7047     		bx	lr
 916              		.cfi_endproc
 917              	.LFE139:
 918              		.size	xStreamBufferSetTriggerLevel, .-xStreamBufferSetTriggerLevel
 919 002a 00BF     		.section	.text.xStreamBufferSpacesAvailable,"ax",%progbits
ARM GAS  C:\Users\adris\AppData\Local\Temp\ccnf5SFB.s 			page 42


 920              		.align	2
 921              		.global	xStreamBufferSpacesAvailable
 922              		.thumb
 923              		.thumb_func
 924              		.type	xStreamBufferSpacesAvailable, %function
 925              	xStreamBufferSpacesAvailable:
 926              	.LFB140:
 452:Generated_Source\PSoC6\pdl\rtos\FreeRTOS\10.0.1\Source/stream_buffer.c **** const StreamBuffer_t * const pxStreamBuffer = ( StreamBuffer_t * ) xStreamBuffer; /*lint !e9087 !e9
 927              		.loc 1 452 0
 928              		.cfi_startproc
 929              		@ args = 0, pretend = 0, frame = 0
 930              		@ frame_needed = 0, uses_anonymous_args = 0
 931              		@ link register save eliminated.
 932              	.LVL100:
 456:Generated_Source\PSoC6\pdl\rtos\FreeRTOS\10.0.1\Source/stream_buffer.c **** 
 933              		.loc 1 456 0
 934 0000 40B9     		cbnz	r0, .L73
 935              	.LBB102:
 936              	.LBB103:
 937              		.loc 2 156 0
 938              		.syntax unified
 939              	@ 156 "Generated_Source\PSoC6\pdl\rtos/FreeRTOS/10.0.1/Source/portable/GCC/CM4F/portmacro.h" 1
 940 0002 4FF03F03 			mov r3, #63												
 941 0006 83F31188 		msr basepri, r3											
 942 000a BFF36F8F 		isb														
 943 000e BFF34F8F 		dsb														
 944              	
 945              	@ 0 "" 2
 946              	.LVL101:
 947              		.thumb
 948              		.syntax unified
 949              	.L74:
 950 0012 FEE7     		b	.L74
 951              	.L73:
 952              	.LBE103:
 953              	.LBE102:
 458:Generated_Source\PSoC6\pdl\rtos\FreeRTOS\10.0.1\Source/stream_buffer.c **** 	xSpace -= pxStreamBuffer->xHead;
 954              		.loc 1 458 0
 955 0014 8268     		ldr	r2, [r0, #8]
 956 0016 0368     		ldr	r3, [r0]
 957 0018 1344     		add	r3, r3, r2
 958              	.LVL102:
 459:Generated_Source\PSoC6\pdl\rtos\FreeRTOS\10.0.1\Source/stream_buffer.c **** 	xSpace -= ( size_t ) 1;
 959              		.loc 1 459 0
 960 001a 4068     		ldr	r0, [r0, #4]
 961              	.LVL103:
 962 001c 181A     		subs	r0, r3, r0
 963              	.LVL104:
 460:Generated_Source\PSoC6\pdl\rtos\FreeRTOS\10.0.1\Source/stream_buffer.c **** 
 964              		.loc 1 460 0
 965 001e 0138     		subs	r0, r0, #1
 966              	.LVL105:
 462:Generated_Source\PSoC6\pdl\rtos\FreeRTOS\10.0.1\Source/stream_buffer.c **** 	{
 967              		.loc 1 462 0
 968 0020 8242     		cmp	r2, r0
 969 0022 00D8     		bhi	.L75
 464:Generated_Source\PSoC6\pdl\rtos\FreeRTOS\10.0.1\Source/stream_buffer.c **** 	}
ARM GAS  C:\Users\adris\AppData\Local\Temp\ccnf5SFB.s 			page 43


 970              		.loc 1 464 0
 971 0024 801A     		subs	r0, r0, r2
 972              	.LVL106:
 973              	.L75:
 472:Generated_Source\PSoC6\pdl\rtos\FreeRTOS\10.0.1\Source/stream_buffer.c **** /*-----------------------------------------------------------*/
 974              		.loc 1 472 0
 975 0026 7047     		bx	lr
 976              		.cfi_endproc
 977              	.LFE140:
 978              		.size	xStreamBufferSpacesAvailable, .-xStreamBufferSpacesAvailable
 979              		.section	.text.xStreamBufferBytesAvailable,"ax",%progbits
 980              		.align	2
 981              		.global	xStreamBufferBytesAvailable
 982              		.thumb
 983              		.thumb_func
 984              		.type	xStreamBufferBytesAvailable, %function
 985              	xStreamBufferBytesAvailable:
 986              	.LFB141:
 476:Generated_Source\PSoC6\pdl\rtos\FreeRTOS\10.0.1\Source/stream_buffer.c **** const StreamBuffer_t * const pxStreamBuffer = ( StreamBuffer_t * ) xStreamBuffer; /*lint !e9087 !e9
 987              		.loc 1 476 0
 988              		.cfi_startproc
 989              		@ args = 0, pretend = 0, frame = 0
 990              		@ frame_needed = 0, uses_anonymous_args = 0
 991              	.LVL107:
 992 0000 08B5     		push	{r3, lr}
 993              		.cfi_def_cfa_offset 8
 994              		.cfi_offset 3, -8
 995              		.cfi_offset 14, -4
 996              	.LVL108:
 480:Generated_Source\PSoC6\pdl\rtos\FreeRTOS\10.0.1\Source/stream_buffer.c **** 
 997              		.loc 1 480 0
 998 0002 40B9     		cbnz	r0, .L77
 999              	.LBB104:
 1000              	.LBB105:
 1001              		.loc 2 156 0
 1002              		.syntax unified
 1003              	@ 156 "Generated_Source\PSoC6\pdl\rtos/FreeRTOS/10.0.1/Source/portable/GCC/CM4F/portmacro.h" 1
 1004 0004 4FF03F03 			mov r3, #63												
 1005 0008 83F31188 		msr basepri, r3											
 1006 000c BFF36F8F 		isb														
 1007 0010 BFF34F8F 		dsb														
 1008              	
 1009              	@ 0 "" 2
 1010              	.LVL109:
 1011              		.thumb
 1012              		.syntax unified
 1013              	.L78:
 1014 0014 FEE7     		b	.L78
 1015              	.L77:
 1016              	.LBE105:
 1017              	.LBE104:
 482:Generated_Source\PSoC6\pdl\rtos\FreeRTOS\10.0.1\Source/stream_buffer.c **** 	return xReturn;
 1018              		.loc 1 482 0
 1019 0016 FFF7FEFF 		bl	prvBytesInBuffer
 1020              	.LVL110:
 484:Generated_Source\PSoC6\pdl\rtos\FreeRTOS\10.0.1\Source/stream_buffer.c **** /*-----------------------------------------------------------*/
 1021              		.loc 1 484 0
ARM GAS  C:\Users\adris\AppData\Local\Temp\ccnf5SFB.s 			page 44


 1022 001a 08BD     		pop	{r3, pc}
 1023              		.cfi_endproc
 1024              	.LFE141:
 1025              		.size	xStreamBufferBytesAvailable, .-xStreamBufferBytesAvailable
 1026              		.section	.text.xStreamBufferSend,"ax",%progbits
 1027              		.align	2
 1028              		.global	xStreamBufferSend
 1029              		.thumb
 1030              		.thumb_func
 1031              		.type	xStreamBufferSend, %function
 1032              	xStreamBufferSend:
 1033              	.LFB142:
 491:Generated_Source\PSoC6\pdl\rtos\FreeRTOS\10.0.1\Source/stream_buffer.c **** StreamBuffer_t * const pxStreamBuffer = ( StreamBuffer_t * ) xStreamBuffer; /*lint !e9087 !e9079 Sa
 1034              		.loc 1 491 0
 1035              		.cfi_startproc
 1036              		@ args = 0, pretend = 0, frame = 16
 1037              		@ frame_needed = 0, uses_anonymous_args = 0
 1038              	.LVL111:
 1039 0000 2DE9F043 		push	{r4, r5, r6, r7, r8, r9, lr}
 1040              		.cfi_def_cfa_offset 28
 1041              		.cfi_offset 4, -28
 1042              		.cfi_offset 5, -24
 1043              		.cfi_offset 6, -20
 1044              		.cfi_offset 7, -16
 1045              		.cfi_offset 8, -12
 1046              		.cfi_offset 9, -8
 1047              		.cfi_offset 14, -4
 1048 0004 87B0     		sub	sp, sp, #28
 1049              		.cfi_def_cfa_offset 56
 1050 0006 0393     		str	r3, [sp, #12]
 1051              	.LVL112:
 497:Generated_Source\PSoC6\pdl\rtos\FreeRTOS\10.0.1\Source/stream_buffer.c **** 	configASSERT( pxStreamBuffer );
 1052              		.loc 1 497 0
 1053 0008 41B9     		cbnz	r1, .L81
 1054              	.LBB106:
 1055              	.LBB107:
 1056              		.loc 2 156 0
 1057              		.syntax unified
 1058              	@ 156 "Generated_Source\PSoC6\pdl\rtos/FreeRTOS/10.0.1/Source/portable/GCC/CM4F/portmacro.h" 1
 1059 000a 4FF03F03 			mov r3, #63												
 1060 000e 83F31188 		msr basepri, r3											
 1061 0012 BFF36F8F 		isb														
 1062 0016 BFF34F8F 		dsb														
 1063              	
 1064              	@ 0 "" 2
 1065              	.LVL113:
 1066              		.thumb
 1067              		.syntax unified
 1068              	.L82:
 1069 001a FEE7     		b	.L82
 1070              	.LVL114:
 1071              	.L81:
 1072 001c 0F46     		mov	r7, r1
 1073              	.LBE107:
 1074              	.LBE106:
 498:Generated_Source\PSoC6\pdl\rtos\FreeRTOS\10.0.1\Source/stream_buffer.c **** 
 1075              		.loc 1 498 0
ARM GAS  C:\Users\adris\AppData\Local\Temp\ccnf5SFB.s 			page 45


 1076 001e 40B9     		cbnz	r0, .L83
 1077              	.LBB108:
 1078              	.LBB109:
 1079              		.loc 2 156 0
 1080              		.syntax unified
 1081              	@ 156 "Generated_Source\PSoC6\pdl\rtos/FreeRTOS/10.0.1/Source/portable/GCC/CM4F/portmacro.h" 1
 1082 0020 4FF03F03 			mov r3, #63												
 1083 0024 83F31188 		msr basepri, r3											
 1084 0028 BFF36F8F 		isb														
 1085 002c BFF34F8F 		dsb														
 1086              	
 1087              	@ 0 "" 2
 1088              	.LVL115:
 1089              		.thumb
 1090              		.syntax unified
 1091              	.L84:
 1092 0030 FEE7     		b	.L84
 1093              	.LVL116:
 1094              	.L83:
 1095              	.LBE109:
 1096              	.LBE108:
 504:Generated_Source\PSoC6\pdl\rtos\FreeRTOS\10.0.1\Source/stream_buffer.c **** 	{
 1097              		.loc 1 504 0
 1098 0032 037F     		ldrb	r3, [r0, #28]	@ zero_extendqisi2
 1099              	.LVL117:
 1100 0034 13F0010F 		tst	r3, #1
 1101 0038 02D0     		beq	.L94
 506:Generated_Source\PSoC6\pdl\rtos\FreeRTOS\10.0.1\Source/stream_buffer.c **** 	}
 1102              		.loc 1 506 0
 1103 003a 02F10408 		add	r8, r2, #4
 1104              	.LVL118:
 1105 003e 00E0     		b	.L85
 1106              	.LVL119:
 1107              	.L94:
 494:Generated_Source\PSoC6\pdl\rtos\FreeRTOS\10.0.1\Source/stream_buffer.c **** TimeOut_t xTimeOut;
 1108              		.loc 1 494 0
 1109 0040 9046     		mov	r8, r2
 1110              	.LVL120:
 1111              	.L85:
 1112 0042 1646     		mov	r6, r2
 1113 0044 0446     		mov	r4, r0
 513:Generated_Source\PSoC6\pdl\rtos\FreeRTOS\10.0.1\Source/stream_buffer.c **** 	{
 1114              		.loc 1 513 0
 1115 0046 039B     		ldr	r3, [sp, #12]
 1116 0048 9BB3     		cbz	r3, .L95
 515:Generated_Source\PSoC6\pdl\rtos\FreeRTOS\10.0.1\Source/stream_buffer.c **** 
 1117              		.loc 1 515 0
 1118 004a 04A8     		add	r0, sp, #16
 1119              	.LVL121:
 1120 004c FFF7FEFF 		bl	vTaskSetTimeOutState
 1121              	.LVL122:
 1122              	.L90:
 521:Generated_Source\PSoC6\pdl\rtos\FreeRTOS\10.0.1\Source/stream_buffer.c **** 			{
 1123              		.loc 1 521 0
 1124 0050 FFF7FEFF 		bl	vPortEnterCritical
 1125              	.LVL123:
 523:Generated_Source\PSoC6\pdl\rtos\FreeRTOS\10.0.1\Source/stream_buffer.c **** 
ARM GAS  C:\Users\adris\AppData\Local\Temp\ccnf5SFB.s 			page 46


 1126              		.loc 1 523 0
 1127 0054 2046     		mov	r0, r4
 1128 0056 FFF7FEFF 		bl	xStreamBufferSpacesAvailable
 1129              	.LVL124:
 1130 005a 0546     		mov	r5, r0
 1131              	.LVL125:
 525:Generated_Source\PSoC6\pdl\rtos\FreeRTOS\10.0.1\Source/stream_buffer.c **** 				{
 1132              		.loc 1 525 0
 1133 005c 8045     		cmp	r8, r0
 1134 005e 25D9     		bls	.L87
 528:Generated_Source\PSoC6\pdl\rtos\FreeRTOS\10.0.1\Source/stream_buffer.c **** 
 1135              		.loc 1 528 0
 1136 0060 0020     		movs	r0, #0
 1137              	.LVL126:
 1138 0062 FFF7FEFF 		bl	xTaskNotifyStateClear
 1139              	.LVL127:
 531:Generated_Source\PSoC6\pdl\rtos\FreeRTOS\10.0.1\Source/stream_buffer.c **** 					pxStreamBuffer->xTaskWaitingToSend = xTaskGetCurrentTaskHandle();
 1140              		.loc 1 531 0
 1141 0066 6369     		ldr	r3, [r4, #20]
 1142 0068 43B1     		cbz	r3, .L88
 1143              	.LBB110:
 1144              	.LBB111:
 1145              		.loc 2 156 0
 1146              		.syntax unified
 1147              	@ 156 "Generated_Source\PSoC6\pdl\rtos/FreeRTOS/10.0.1/Source/portable/GCC/CM4F/portmacro.h" 1
 1148 006a 4FF03F03 			mov r3, #63												
 1149 006e 83F31188 		msr basepri, r3											
 1150 0072 BFF36F8F 		isb														
 1151 0076 BFF34F8F 		dsb														
 1152              	
 1153              	@ 0 "" 2
 1154              	.LVL128:
 1155              		.thumb
 1156              		.syntax unified
 1157              	.L89:
 1158 007a FEE7     		b	.L89
 1159              	.L88:
 1160              	.LBE111:
 1161              	.LBE110:
 532:Generated_Source\PSoC6\pdl\rtos\FreeRTOS\10.0.1\Source/stream_buffer.c **** 				}
 1162              		.loc 1 532 0
 1163 007c FFF7FEFF 		bl	xTaskGetCurrentTaskHandle
 1164              	.LVL129:
 1165 0080 6061     		str	r0, [r4, #20]
 540:Generated_Source\PSoC6\pdl\rtos\FreeRTOS\10.0.1\Source/stream_buffer.c **** 
 1166              		.loc 1 540 0
 1167 0082 FFF7FEFF 		bl	vPortExitCritical
 1168              	.LVL130:
 543:Generated_Source\PSoC6\pdl\rtos\FreeRTOS\10.0.1\Source/stream_buffer.c **** 			pxStreamBuffer->xTaskWaitingToSend = NULL;
 1169              		.loc 1 543 0
 1170 0086 0DF11809 		add	r9, sp, #24
 1171 008a 59F80C3D 		ldr	r3, [r9, #-12]!
 1172 008e 0022     		movs	r2, #0
 1173 0090 4FF0FF31 		mov	r1, #-1
 1174 0094 1046     		mov	r0, r2
 1175 0096 FFF7FEFF 		bl	xTaskNotifyWait
 1176              	.LVL131:
ARM GAS  C:\Users\adris\AppData\Local\Temp\ccnf5SFB.s 			page 47


 544:Generated_Source\PSoC6\pdl\rtos\FreeRTOS\10.0.1\Source/stream_buffer.c **** 
 1177              		.loc 1 544 0
 1178 009a 0023     		movs	r3, #0
 1179 009c 6361     		str	r3, [r4, #20]
 546:Generated_Source\PSoC6\pdl\rtos\FreeRTOS\10.0.1\Source/stream_buffer.c **** 	}
 1180              		.loc 1 546 0
 1181 009e 4946     		mov	r1, r9
 1182 00a0 04A8     		add	r0, sp, #16
 1183 00a2 FFF7FEFF 		bl	xTaskCheckForTimeOut
 1184              	.LVL132:
 1185 00a6 0028     		cmp	r0, #0
 1186 00a8 D2D0     		beq	.L90
 1187 00aa 03E0     		b	.L86
 1188              	.LVL133:
 1189              	.L87:
 536:Generated_Source\PSoC6\pdl\rtos\FreeRTOS\10.0.1\Source/stream_buffer.c **** 					break;
 1190              		.loc 1 536 0
 1191 00ac FFF7FEFF 		bl	vPortExitCritical
 1192              	.LVL134:
 537:Generated_Source\PSoC6\pdl\rtos\FreeRTOS\10.0.1\Source/stream_buffer.c **** 				}
 1193              		.loc 1 537 0
 1194 00b0 00E0     		b	.L86
 1195              	.LVL135:
 1196              	.L95:
 493:Generated_Source\PSoC6\pdl\rtos\FreeRTOS\10.0.1\Source/stream_buffer.c **** size_t xRequiredSpace = xDataLengthBytes;
 1197              		.loc 1 493 0
 1198 00b2 0025     		movs	r5, #0
 1199              	.LVL136:
 1200              	.L86:
 553:Generated_Source\PSoC6\pdl\rtos\FreeRTOS\10.0.1\Source/stream_buffer.c **** 	{
 1201              		.loc 1 553 0
 1202 00b4 1DB9     		cbnz	r5, .L91
 555:Generated_Source\PSoC6\pdl\rtos\FreeRTOS\10.0.1\Source/stream_buffer.c **** 	}
 1203              		.loc 1 555 0
 1204 00b6 2046     		mov	r0, r4
 1205 00b8 FFF7FEFF 		bl	xStreamBufferSpacesAvailable
 1206              	.LVL137:
 1207 00bc 0546     		mov	r5, r0
 1208              	.LVL138:
 1209              	.L91:
 562:Generated_Source\PSoC6\pdl\rtos\FreeRTOS\10.0.1\Source/stream_buffer.c **** 
 1210              		.loc 1 562 0
 1211 00be CDF80080 		str	r8, [sp]
 1212 00c2 2B46     		mov	r3, r5
 1213 00c4 3246     		mov	r2, r6
 1214 00c6 3946     		mov	r1, r7
 1215 00c8 2046     		mov	r0, r4
 1216 00ca FFF7FEFF 		bl	prvWriteMessageToBuffer
 1217              	.LVL139:
 564:Generated_Source\PSoC6\pdl\rtos\FreeRTOS\10.0.1\Source/stream_buffer.c **** 	{
 1218              		.loc 1 564 0
 1219 00ce 0546     		mov	r5, r0
 1220              	.LVL140:
 1221 00d0 98B1     		cbz	r0, .L92
 569:Generated_Source\PSoC6\pdl\rtos\FreeRTOS\10.0.1\Source/stream_buffer.c **** 		{
 1222              		.loc 1 569 0
 1223 00d2 2046     		mov	r0, r4
ARM GAS  C:\Users\adris\AppData\Local\Temp\ccnf5SFB.s 			page 48


 1224              	.LVL141:
 1225 00d4 FFF7FEFF 		bl	prvBytesInBuffer
 1226              	.LVL142:
 1227 00d8 E368     		ldr	r3, [r4, #12]
 1228 00da 9842     		cmp	r0, r3
 1229 00dc 0DD3     		bcc	.L92
 571:Generated_Source\PSoC6\pdl\rtos\FreeRTOS\10.0.1\Source/stream_buffer.c **** 		}
 1230              		.loc 1 571 0
 1231 00de FFF7FEFF 		bl	vTaskSuspendAll
 1232              	.LVL143:
 1233 00e2 2369     		ldr	r3, [r4, #16]
 1234 00e4 3BB1     		cbz	r3, .L93
 571:Generated_Source\PSoC6\pdl\rtos\FreeRTOS\10.0.1\Source/stream_buffer.c **** 		}
 1235              		.loc 1 571 0 is_stmt 0 discriminator 1
 1236 00e6 2069     		ldr	r0, [r4, #16]
 1237 00e8 0023     		movs	r3, #0
 1238 00ea 1A46     		mov	r2, r3
 1239 00ec 1946     		mov	r1, r3
 1240 00ee FFF7FEFF 		bl	xTaskGenericNotify
 1241              	.LVL144:
 1242 00f2 0023     		movs	r3, #0
 1243 00f4 2361     		str	r3, [r4, #16]
 1244              	.L93:
 571:Generated_Source\PSoC6\pdl\rtos\FreeRTOS\10.0.1\Source/stream_buffer.c **** 		}
 1245              		.loc 1 571 0 discriminator 3
 1246 00f6 FFF7FEFF 		bl	xTaskResumeAll
 1247              	.LVL145:
 1248              	.L92:
 585:Generated_Source\PSoC6\pdl\rtos\FreeRTOS\10.0.1\Source/stream_buffer.c **** /*-----------------------------------------------------------*/
 1249              		.loc 1 585 0 is_stmt 1
 1250 00fa 2846     		mov	r0, r5
 1251 00fc 07B0     		add	sp, sp, #28
 1252              		.cfi_def_cfa_offset 28
 1253              		@ sp needed
 1254 00fe BDE8F083 		pop	{r4, r5, r6, r7, r8, r9, pc}
 1255              		.cfi_endproc
 1256              	.LFE142:
 1257              		.size	xStreamBufferSend, .-xStreamBufferSend
 1258 0102 00BF     		.section	.text.xStreamBufferSendFromISR,"ax",%progbits
 1259              		.align	2
 1260              		.global	xStreamBufferSendFromISR
 1261              		.thumb
 1262              		.thumb_func
 1263              		.type	xStreamBufferSendFromISR, %function
 1264              	xStreamBufferSendFromISR:
 1265              	.LFB143:
 592:Generated_Source\PSoC6\pdl\rtos\FreeRTOS\10.0.1\Source/stream_buffer.c **** StreamBuffer_t * const pxStreamBuffer = ( StreamBuffer_t * ) xStreamBuffer; /*lint !e9087 !e9079 Sa
 1266              		.loc 1 592 0
 1267              		.cfi_startproc
 1268              		@ args = 0, pretend = 0, frame = 0
 1269              		@ frame_needed = 0, uses_anonymous_args = 0
 1270              	.LVL146:
 597:Generated_Source\PSoC6\pdl\rtos\FreeRTOS\10.0.1\Source/stream_buffer.c **** 	configASSERT( pxStreamBuffer );
 1271              		.loc 1 597 0
 1272 0000 41B9     		cbnz	r1, .L98
 1273              	.LBB112:
 1274              	.LBB113:
ARM GAS  C:\Users\adris\AppData\Local\Temp\ccnf5SFB.s 			page 49


 1275              		.loc 2 156 0
 1276              		.syntax unified
 1277              	@ 156 "Generated_Source\PSoC6\pdl\rtos/FreeRTOS/10.0.1/Source/portable/GCC/CM4F/portmacro.h" 1
 1278 0002 4FF03F03 			mov r3, #63												
 1279 0006 83F31188 		msr basepri, r3											
 1280 000a BFF36F8F 		isb														
 1281 000e BFF34F8F 		dsb														
 1282              	
 1283              	@ 0 "" 2
 1284              	.LVL147:
 1285              		.thumb
 1286              		.syntax unified
 1287              	.L99:
 1288 0012 FEE7     		b	.L99
 1289              	.LVL148:
 1290              	.L98:
 1291              	.LBE113:
 1292              	.LBE112:
 592:Generated_Source\PSoC6\pdl\rtos\FreeRTOS\10.0.1\Source/stream_buffer.c **** StreamBuffer_t * const pxStreamBuffer = ( StreamBuffer_t * ) xStreamBuffer; /*lint !e9087 !e9079 Sa
 1293              		.loc 1 592 0
 1294 0014 2DE9F041 		push	{r4, r5, r6, r7, r8, lr}
 1295              		.cfi_def_cfa_offset 24
 1296              		.cfi_offset 4, -24
 1297              		.cfi_offset 5, -20
 1298              		.cfi_offset 6, -16
 1299              		.cfi_offset 7, -12
 1300              		.cfi_offset 8, -8
 1301              		.cfi_offset 14, -4
 1302 0018 82B0     		sub	sp, sp, #8
 1303              		.cfi_def_cfa_offset 32
 1304 001a 0E46     		mov	r6, r1
 598:Generated_Source\PSoC6\pdl\rtos\FreeRTOS\10.0.1\Source/stream_buffer.c **** 
 1305              		.loc 1 598 0
 1306 001c 40B9     		cbnz	r0, .L100
 1307              	.LBB114:
 1308              	.LBB115:
 1309              		.loc 2 156 0
 1310              		.syntax unified
 1311              	@ 156 "Generated_Source\PSoC6\pdl\rtos/FreeRTOS/10.0.1/Source/portable/GCC/CM4F/portmacro.h" 1
 1312 001e 4FF03F03 			mov r3, #63												
 1313 0022 83F31188 		msr basepri, r3											
 1314 0026 BFF36F8F 		isb														
 1315 002a BFF34F8F 		dsb														
 1316              	
 1317              	@ 0 "" 2
 1318              	.LVL149:
 1319              		.thumb
 1320              		.syntax unified
 1321              	.L101:
 1322 002e FEE7     		b	.L101
 1323              	.LVL150:
 1324              	.L100:
 1325              	.LBE115:
 1326              	.LBE114:
 604:Generated_Source\PSoC6\pdl\rtos\FreeRTOS\10.0.1\Source/stream_buffer.c **** 	{
 1327              		.loc 1 604 0
 1328 0030 017F     		ldrb	r1, [r0, #28]	@ zero_extendqisi2
ARM GAS  C:\Users\adris\AppData\Local\Temp\ccnf5SFB.s 			page 50


 1329              	.LVL151:
 1330 0032 11F0010F 		tst	r1, #1
 1331 0036 02D0     		beq	.L105
 606:Generated_Source\PSoC6\pdl\rtos\FreeRTOS\10.0.1\Source/stream_buffer.c **** 	}
 1332              		.loc 1 606 0
 1333 0038 02F10408 		add	r8, r2, #4
 1334              	.LVL152:
 1335 003c 00E0     		b	.L102
 1336              	.LVL153:
 1337              	.L105:
 595:Generated_Source\PSoC6\pdl\rtos\FreeRTOS\10.0.1\Source/stream_buffer.c **** 
 1338              		.loc 1 595 0
 1339 003e 9046     		mov	r8, r2
 1340              	.LVL154:
 1341              	.L102:
 1342 0040 1F46     		mov	r7, r3
 1343 0042 1546     		mov	r5, r2
 1344 0044 0446     		mov	r4, r0
 613:Generated_Source\PSoC6\pdl\rtos\FreeRTOS\10.0.1\Source/stream_buffer.c **** 	xReturn = prvWriteMessageToBuffer( pxStreamBuffer, pvTxData, xDataLengthBytes, xSpace, xRequiredSp
 1345              		.loc 1 613 0
 1346 0046 FFF7FEFF 		bl	xStreamBufferSpacesAvailable
 1347              	.LVL155:
 614:Generated_Source\PSoC6\pdl\rtos\FreeRTOS\10.0.1\Source/stream_buffer.c **** 
 1348              		.loc 1 614 0
 1349 004a CDF80080 		str	r8, [sp]
 1350 004e 0346     		mov	r3, r0
 1351 0050 2A46     		mov	r2, r5
 1352 0052 3146     		mov	r1, r6
 1353 0054 2046     		mov	r0, r4
 1354              	.LVL156:
 1355 0056 FFF7FEFF 		bl	prvWriteMessageToBuffer
 1356              	.LVL157:
 616:Generated_Source\PSoC6\pdl\rtos\FreeRTOS\10.0.1\Source/stream_buffer.c **** 	{
 1357              		.loc 1 616 0
 1358 005a 0546     		mov	r5, r0
 1359              	.LVL158:
 1360 005c E0B1     		cbz	r0, .L103
 619:Generated_Source\PSoC6\pdl\rtos\FreeRTOS\10.0.1\Source/stream_buffer.c **** 		{
 1361              		.loc 1 619 0
 1362 005e 2046     		mov	r0, r4
 1363              	.LVL159:
 1364 0060 FFF7FEFF 		bl	prvBytesInBuffer
 1365              	.LVL160:
 1366 0064 E368     		ldr	r3, [r4, #12]
 1367 0066 9842     		cmp	r0, r3
 1368 0068 16D3     		bcc	.L103
 1369              	.LBB116:
 1370              	.LBB117:
 1371              	.LBB118:
 157:Generated_Source\PSoC6\pdl\rtos/FreeRTOS/10.0.1/Source/portable/GCC/CM4F/portmacro.h **** 	(
 158:Generated_Source\PSoC6\pdl\rtos/FreeRTOS/10.0.1/Source/portable/GCC/CM4F/portmacro.h **** 		"	mov %0, %1												\n"	\
 159:Generated_Source\PSoC6\pdl\rtos/FreeRTOS/10.0.1/Source/portable/GCC/CM4F/portmacro.h **** 		"	msr basepri, %0											\n" \
 160:Generated_Source\PSoC6\pdl\rtos/FreeRTOS/10.0.1/Source/portable/GCC/CM4F/portmacro.h **** 		"	isb														\n" \
 161:Generated_Source\PSoC6\pdl\rtos/FreeRTOS/10.0.1/Source/portable/GCC/CM4F/portmacro.h **** 		"	dsb														\n" \
 162:Generated_Source\PSoC6\pdl\rtos/FreeRTOS/10.0.1/Source/portable/GCC/CM4F/portmacro.h **** 		:"=r" (ulNewBASEPRI) : "i" ( configMAX_SYSCALL_INTERRUPT_PRIORITY ) : "memory"
 163:Generated_Source\PSoC6\pdl\rtos/FreeRTOS/10.0.1/Source/portable/GCC/CM4F/portmacro.h **** 	);
 164:Generated_Source\PSoC6\pdl\rtos/FreeRTOS/10.0.1/Source/portable/GCC/CM4F/portmacro.h **** }
ARM GAS  C:\Users\adris\AppData\Local\Temp\ccnf5SFB.s 			page 51


 165:Generated_Source\PSoC6\pdl\rtos/FreeRTOS/10.0.1/Source/portable/GCC/CM4F/portmacro.h **** 
 166:Generated_Source\PSoC6\pdl\rtos/FreeRTOS/10.0.1/Source/portable/GCC/CM4F/portmacro.h **** /*-----------------------------------------------------------*/
 167:Generated_Source\PSoC6\pdl\rtos/FreeRTOS/10.0.1/Source/portable/GCC/CM4F/portmacro.h **** 
 168:Generated_Source\PSoC6\pdl\rtos/FreeRTOS/10.0.1/Source/portable/GCC/CM4F/portmacro.h **** portFORCE_INLINE static uint32_t ulPortRaiseBASEPRI( void )
 169:Generated_Source\PSoC6\pdl\rtos/FreeRTOS/10.0.1/Source/portable/GCC/CM4F/portmacro.h **** {
 170:Generated_Source\PSoC6\pdl\rtos/FreeRTOS/10.0.1/Source/portable/GCC/CM4F/portmacro.h **** uint32_t ulOriginalBASEPRI, ulNewBASEPRI;
 171:Generated_Source\PSoC6\pdl\rtos/FreeRTOS/10.0.1/Source/portable/GCC/CM4F/portmacro.h **** 
 172:Generated_Source\PSoC6\pdl\rtos/FreeRTOS/10.0.1/Source/portable/GCC/CM4F/portmacro.h **** 	__asm volatile
 1372              		.loc 2 172 0
 1373              		.syntax unified
 1374              	@ 172 "Generated_Source\PSoC6\pdl\rtos/FreeRTOS/10.0.1/Source/portable/GCC/CM4F/portmacro.h" 1
 1375 006a EFF31186 			mrs r6, basepri											
 1376 006e 4FF03F03 		mov r3, #63												
 1377 0072 83F31188 		msr basepri, r3											
 1378 0076 BFF36F8F 		isb														
 1379 007a BFF34F8F 		dsb														
 1380              	
 1381              	@ 0 "" 2
 1382              	.LVL161:
 1383              		.thumb
 1384              		.syntax unified
 1385              	.LBE118:
 1386              	.LBE117:
 621:Generated_Source\PSoC6\pdl\rtos\FreeRTOS\10.0.1\Source/stream_buffer.c **** 		}
 1387              		.loc 1 621 0
 1388 007e 2369     		ldr	r3, [r4, #16]
 1389 0080 43B1     		cbz	r3, .L104
 621:Generated_Source\PSoC6\pdl\rtos\FreeRTOS\10.0.1\Source/stream_buffer.c **** 		}
 1390              		.loc 1 621 0 is_stmt 0 discriminator 1
 1391 0082 2069     		ldr	r0, [r4, #16]
 1392 0084 0097     		str	r7, [sp]
 1393 0086 0023     		movs	r3, #0
 1394 0088 1A46     		mov	r2, r3
 1395 008a 1946     		mov	r1, r3
 1396 008c FFF7FEFF 		bl	xTaskGenericNotifyFromISR
 1397              	.LVL162:
 1398 0090 0023     		movs	r3, #0
 1399 0092 2361     		str	r3, [r4, #16]
 1400              	.L104:
 1401              	.LVL163:
 1402              	.LBB119:
 1403              	.LBB120:
 173:Generated_Source\PSoC6\pdl\rtos/FreeRTOS/10.0.1/Source/portable/GCC/CM4F/portmacro.h **** 	(
 174:Generated_Source\PSoC6\pdl\rtos/FreeRTOS/10.0.1/Source/portable/GCC/CM4F/portmacro.h **** 		"	mrs %0, basepri											\n" \
 175:Generated_Source\PSoC6\pdl\rtos/FreeRTOS/10.0.1/Source/portable/GCC/CM4F/portmacro.h **** 		"	mov %1, %2												\n"	\
 176:Generated_Source\PSoC6\pdl\rtos/FreeRTOS/10.0.1/Source/portable/GCC/CM4F/portmacro.h **** 		"	msr basepri, %1											\n" \
 177:Generated_Source\PSoC6\pdl\rtos/FreeRTOS/10.0.1/Source/portable/GCC/CM4F/portmacro.h **** 		"	isb														\n" \
 178:Generated_Source\PSoC6\pdl\rtos/FreeRTOS/10.0.1/Source/portable/GCC/CM4F/portmacro.h **** 		"	dsb														\n" \
 179:Generated_Source\PSoC6\pdl\rtos/FreeRTOS/10.0.1/Source/portable/GCC/CM4F/portmacro.h **** 		:"=r" (ulOriginalBASEPRI), "=r" (ulNewBASEPRI) : "i" ( configMAX_SYSCALL_INTERRUPT_PRIORITY ) : "
 180:Generated_Source\PSoC6\pdl\rtos/FreeRTOS/10.0.1/Source/portable/GCC/CM4F/portmacro.h **** 	);
 181:Generated_Source\PSoC6\pdl\rtos/FreeRTOS/10.0.1/Source/portable/GCC/CM4F/portmacro.h **** 
 182:Generated_Source\PSoC6\pdl\rtos/FreeRTOS/10.0.1/Source/portable/GCC/CM4F/portmacro.h **** 	/* This return will not be reached but is necessary to prevent compiler
 183:Generated_Source\PSoC6\pdl\rtos/FreeRTOS/10.0.1/Source/portable/GCC/CM4F/portmacro.h **** 	warnings. */
 184:Generated_Source\PSoC6\pdl\rtos/FreeRTOS/10.0.1/Source/portable/GCC/CM4F/portmacro.h **** 	return ulOriginalBASEPRI;
 185:Generated_Source\PSoC6\pdl\rtos/FreeRTOS/10.0.1/Source/portable/GCC/CM4F/portmacro.h **** }
 186:Generated_Source\PSoC6\pdl\rtos/FreeRTOS/10.0.1/Source/portable/GCC/CM4F/portmacro.h **** /*-----------------------------------------------------------*/
 187:Generated_Source\PSoC6\pdl\rtos/FreeRTOS/10.0.1/Source/portable/GCC/CM4F/portmacro.h **** 
ARM GAS  C:\Users\adris\AppData\Local\Temp\ccnf5SFB.s 			page 52


 188:Generated_Source\PSoC6\pdl\rtos/FreeRTOS/10.0.1/Source/portable/GCC/CM4F/portmacro.h **** portFORCE_INLINE static void vPortSetBASEPRI( uint32_t ulNewMaskValue )
 189:Generated_Source\PSoC6\pdl\rtos/FreeRTOS/10.0.1/Source/portable/GCC/CM4F/portmacro.h **** {
 190:Generated_Source\PSoC6\pdl\rtos/FreeRTOS/10.0.1/Source/portable/GCC/CM4F/portmacro.h **** 	__asm volatile
 1404              		.loc 2 190 0 is_stmt 1 discriminator 3
 1405              		.syntax unified
 1406              	@ 190 "Generated_Source\PSoC6\pdl\rtos/FreeRTOS/10.0.1/Source/portable/GCC/CM4F/portmacro.h" 1
 1407 0094 86F31188 			msr basepri, r6	
 1408              	@ 0 "" 2
 1409              	.LVL164:
 1410              		.thumb
 1411              		.syntax unified
 1412              	.L103:
 1413              	.LBE120:
 1414              	.LBE119:
 1415              	.LBE116:
 636:Generated_Source\PSoC6\pdl\rtos\FreeRTOS\10.0.1\Source/stream_buffer.c **** /*-----------------------------------------------------------*/
 1416              		.loc 1 636 0
 1417 0098 2846     		mov	r0, r5
 1418 009a 02B0     		add	sp, sp, #8
 1419              		.cfi_def_cfa_offset 24
 1420              		@ sp needed
 1421 009c BDE8F081 		pop	{r4, r5, r6, r7, r8, pc}
 1422              		.cfi_endproc
 1423              	.LFE143:
 1424              		.size	xStreamBufferSendFromISR, .-xStreamBufferSendFromISR
 1425              		.section	.text.xStreamBufferReceive,"ax",%progbits
 1426              		.align	2
 1427              		.global	xStreamBufferReceive
 1428              		.thumb
 1429              		.thumb_func
 1430              		.type	xStreamBufferReceive, %function
 1431              	xStreamBufferReceive:
 1432              	.LFB145:
 695:Generated_Source\PSoC6\pdl\rtos\FreeRTOS\10.0.1\Source/stream_buffer.c **** StreamBuffer_t * const pxStreamBuffer = ( StreamBuffer_t * ) xStreamBuffer; /*lint !e9087 !e9079 Sa
 1433              		.loc 1 695 0
 1434              		.cfi_startproc
 1435              		@ args = 0, pretend = 0, frame = 0
 1436              		@ frame_needed = 0, uses_anonymous_args = 0
 1437              	.LVL165:
 699:Generated_Source\PSoC6\pdl\rtos\FreeRTOS\10.0.1\Source/stream_buffer.c **** 	configASSERT( pxStreamBuffer );
 1438              		.loc 1 699 0
 1439 0000 41B9     		cbnz	r1, .L108
 1440              	.LBB121:
 1441              	.LBB122:
 156:Generated_Source\PSoC6\pdl\rtos/FreeRTOS/10.0.1/Source/portable/GCC/CM4F/portmacro.h **** 	(
 1442              		.loc 2 156 0
 1443              		.syntax unified
 1444              	@ 156 "Generated_Source\PSoC6\pdl\rtos/FreeRTOS/10.0.1/Source/portable/GCC/CM4F/portmacro.h" 1
 1445 0002 4FF03F03 			mov r3, #63												
 1446 0006 83F31188 		msr basepri, r3											
 1447 000a BFF36F8F 		isb														
 1448 000e BFF34F8F 		dsb														
 1449              	
 1450              	@ 0 "" 2
 1451              	.LVL166:
 1452              		.thumb
 1453              		.syntax unified
ARM GAS  C:\Users\adris\AppData\Local\Temp\ccnf5SFB.s 			page 53


 1454              	.L109:
 1455 0012 FEE7     		b	.L109
 1456              	.LVL167:
 1457              	.L108:
 1458              	.LBE122:
 1459              	.LBE121:
 695:Generated_Source\PSoC6\pdl\rtos\FreeRTOS\10.0.1\Source/stream_buffer.c **** StreamBuffer_t * const pxStreamBuffer = ( StreamBuffer_t * ) xStreamBuffer; /*lint !e9087 !e9079 Sa
 1460              		.loc 1 695 0
 1461 0014 2DE9F043 		push	{r4, r5, r6, r7, r8, r9, lr}
 1462              		.cfi_def_cfa_offset 28
 1463              		.cfi_offset 4, -28
 1464              		.cfi_offset 5, -24
 1465              		.cfi_offset 6, -20
 1466              		.cfi_offset 7, -16
 1467              		.cfi_offset 8, -12
 1468              		.cfi_offset 9, -8
 1469              		.cfi_offset 14, -4
 1470 0018 83B0     		sub	sp, sp, #12
 1471              		.cfi_def_cfa_offset 40
 1472 001a 8846     		mov	r8, r1
 700:Generated_Source\PSoC6\pdl\rtos\FreeRTOS\10.0.1\Source/stream_buffer.c **** 
 1473              		.loc 1 700 0
 1474 001c 40B9     		cbnz	r0, .L110
 1475              	.LBB123:
 1476              	.LBB124:
 156:Generated_Source\PSoC6\pdl\rtos/FreeRTOS/10.0.1/Source/portable/GCC/CM4F/portmacro.h **** 	(
 1477              		.loc 2 156 0
 1478              		.syntax unified
 1479              	@ 156 "Generated_Source\PSoC6\pdl\rtos/FreeRTOS/10.0.1/Source/portable/GCC/CM4F/portmacro.h" 1
 1480 001e 4FF03F03 			mov r3, #63												
 1481 0022 83F31188 		msr basepri, r3											
 1482 0026 BFF36F8F 		isb														
 1483 002a BFF34F8F 		dsb														
 1484              	
 1485              	@ 0 "" 2
 1486              	.LVL168:
 1487              		.thumb
 1488              		.syntax unified
 1489              	.L111:
 1490 002e FEE7     		b	.L111
 1491              	.LVL169:
 1492              	.L110:
 1493              	.LBE124:
 1494              	.LBE123:
 707:Generated_Source\PSoC6\pdl\rtos\FreeRTOS\10.0.1\Source/stream_buffer.c **** 	{
 1495              		.loc 1 707 0
 1496 0030 017F     		ldrb	r1, [r0, #28]	@ zero_extendqisi2
 1497              	.LVL170:
 1498 0032 11F0010F 		tst	r1, #1
 1499 0036 01D0     		beq	.L120
 709:Generated_Source\PSoC6\pdl\rtos\FreeRTOS\10.0.1\Source/stream_buffer.c **** 	}
 1500              		.loc 1 709 0
 1501 0038 0426     		movs	r6, #4
 1502 003a 00E0     		b	.L112
 1503              	.L120:
 713:Generated_Source\PSoC6\pdl\rtos\FreeRTOS\10.0.1\Source/stream_buffer.c **** 	}
 1504              		.loc 1 713 0
ARM GAS  C:\Users\adris\AppData\Local\Temp\ccnf5SFB.s 			page 54


 1505 003c 0026     		movs	r6, #0
 1506              	.L112:
 1507 003e 1F46     		mov	r7, r3
 1508 0040 9146     		mov	r9, r2
 1509 0042 0446     		mov	r4, r0
 1510              	.LVL171:
 716:Generated_Source\PSoC6\pdl\rtos\FreeRTOS\10.0.1\Source/stream_buffer.c **** 	{
 1511              		.loc 1 716 0
 1512 0044 53B3     		cbz	r3, .L113
 720:Generated_Source\PSoC6\pdl\rtos\FreeRTOS\10.0.1\Source/stream_buffer.c **** 		{
 1513              		.loc 1 720 0
 1514 0046 FFF7FEFF 		bl	vPortEnterCritical
 1515              	.LVL172:
 722:Generated_Source\PSoC6\pdl\rtos\FreeRTOS\10.0.1\Source/stream_buffer.c **** 
 1516              		.loc 1 722 0
 1517 004a 2046     		mov	r0, r4
 1518 004c FFF7FEFF 		bl	prvBytesInBuffer
 1519              	.LVL173:
 1520 0050 0546     		mov	r5, r0
 1521              	.LVL174:
 729:Generated_Source\PSoC6\pdl\rtos\FreeRTOS\10.0.1\Source/stream_buffer.c **** 			{
 1522              		.loc 1 729 0
 1523 0052 8642     		cmp	r6, r0
 1524 0054 10D3     		bcc	.L114
 732:Generated_Source\PSoC6\pdl\rtos\FreeRTOS\10.0.1\Source/stream_buffer.c **** 
 1525              		.loc 1 732 0
 1526 0056 0020     		movs	r0, #0
 1527              	.LVL175:
 1528 0058 FFF7FEFF 		bl	xTaskNotifyStateClear
 1529              	.LVL176:
 735:Generated_Source\PSoC6\pdl\rtos\FreeRTOS\10.0.1\Source/stream_buffer.c **** 				pxStreamBuffer->xTaskWaitingToReceive = xTaskGetCurrentTaskHandle();
 1530              		.loc 1 735 0
 1531 005c 2369     		ldr	r3, [r4, #16]
 1532 005e 43B1     		cbz	r3, .L115
 1533              	.LBB125:
 1534              	.LBB126:
 156:Generated_Source\PSoC6\pdl\rtos/FreeRTOS/10.0.1/Source/portable/GCC/CM4F/portmacro.h **** 	(
 1535              		.loc 2 156 0
 1536              		.syntax unified
 1537              	@ 156 "Generated_Source\PSoC6\pdl\rtos/FreeRTOS/10.0.1/Source/portable/GCC/CM4F/portmacro.h" 1
 1538 0060 4FF03F03 			mov r3, #63												
 1539 0064 83F31188 		msr basepri, r3											
 1540 0068 BFF36F8F 		isb														
 1541 006c BFF34F8F 		dsb														
 1542              	
 1543              	@ 0 "" 2
 1544              	.LVL177:
 1545              		.thumb
 1546              		.syntax unified
 1547              	.L116:
 1548 0070 FEE7     		b	.L116
 1549              	.L115:
 1550              	.LBE126:
 1551              	.LBE125:
 736:Generated_Source\PSoC6\pdl\rtos\FreeRTOS\10.0.1\Source/stream_buffer.c **** 			}
 1552              		.loc 1 736 0
 1553 0072 FFF7FEFF 		bl	xTaskGetCurrentTaskHandle
ARM GAS  C:\Users\adris\AppData\Local\Temp\ccnf5SFB.s 			page 55


 1554              	.LVL178:
 1555 0076 2061     		str	r0, [r4, #16]
 1556              	.L114:
 743:Generated_Source\PSoC6\pdl\rtos\FreeRTOS\10.0.1\Source/stream_buffer.c **** 
 1557              		.loc 1 743 0
 1558 0078 FFF7FEFF 		bl	vPortExitCritical
 1559              	.LVL179:
 745:Generated_Source\PSoC6\pdl\rtos\FreeRTOS\10.0.1\Source/stream_buffer.c **** 		{
 1560              		.loc 1 745 0
 1561 007c AE42     		cmp	r6, r5
 1562 007e 10D3     		bcc	.L117
 749:Generated_Source\PSoC6\pdl\rtos\FreeRTOS\10.0.1\Source/stream_buffer.c **** 			pxStreamBuffer->xTaskWaitingToReceive = NULL;
 1563              		.loc 1 749 0
 1564 0080 3B46     		mov	r3, r7
 1565 0082 0022     		movs	r2, #0
 1566 0084 4FF0FF31 		mov	r1, #-1
 1567 0088 1046     		mov	r0, r2
 1568 008a FFF7FEFF 		bl	xTaskNotifyWait
 1569              	.LVL180:
 750:Generated_Source\PSoC6\pdl\rtos\FreeRTOS\10.0.1\Source/stream_buffer.c **** 
 1570              		.loc 1 750 0
 1571 008e 0023     		movs	r3, #0
 1572 0090 2361     		str	r3, [r4, #16]
 753:Generated_Source\PSoC6\pdl\rtos\FreeRTOS\10.0.1\Source/stream_buffer.c **** 		}
 1573              		.loc 1 753 0
 1574 0092 2046     		mov	r0, r4
 1575 0094 FFF7FEFF 		bl	prvBytesInBuffer
 1576              	.LVL181:
 1577 0098 0546     		mov	r5, r0
 1578              	.LVL182:
 1579 009a 02E0     		b	.L117
 1580              	.LVL183:
 1581              	.L113:
 762:Generated_Source\PSoC6\pdl\rtos\FreeRTOS\10.0.1\Source/stream_buffer.c **** 	}
 1582              		.loc 1 762 0
 1583 009c FFF7FEFF 		bl	prvBytesInBuffer
 1584              	.LVL184:
 1585 00a0 0546     		mov	r5, r0
 1586              	.LVL185:
 1587              	.L117:
 770:Generated_Source\PSoC6\pdl\rtos\FreeRTOS\10.0.1\Source/stream_buffer.c **** 	{
 1588              		.loc 1 770 0
 1589 00a2 B542     		cmp	r5, r6
 1590 00a4 17D9     		bls	.L121
 772:Generated_Source\PSoC6\pdl\rtos\FreeRTOS\10.0.1\Source/stream_buffer.c **** 
 1591              		.loc 1 772 0
 1592 00a6 0096     		str	r6, [sp]
 1593 00a8 2B46     		mov	r3, r5
 1594 00aa 4A46     		mov	r2, r9
 1595 00ac 4146     		mov	r1, r8
 1596 00ae 2046     		mov	r0, r4
 1597 00b0 FFF7FEFF 		bl	prvReadMessageFromBuffer
 1598              	.LVL186:
 775:Generated_Source\PSoC6\pdl\rtos\FreeRTOS\10.0.1\Source/stream_buffer.c **** 		{
 1599              		.loc 1 775 0
 1600 00b4 0546     		mov	r5, r0
 1601              	.LVL187:
ARM GAS  C:\Users\adris\AppData\Local\Temp\ccnf5SFB.s 			page 56


 1602 00b6 78B1     		cbz	r0, .L118
 778:Generated_Source\PSoC6\pdl\rtos\FreeRTOS\10.0.1\Source/stream_buffer.c **** 		}
 1603              		.loc 1 778 0
 1604 00b8 FFF7FEFF 		bl	vTaskSuspendAll
 1605              	.LVL188:
 1606 00bc 6369     		ldr	r3, [r4, #20]
 1607 00be 3BB1     		cbz	r3, .L119
 778:Generated_Source\PSoC6\pdl\rtos\FreeRTOS\10.0.1\Source/stream_buffer.c **** 		}
 1608              		.loc 1 778 0 is_stmt 0 discriminator 1
 1609 00c0 6069     		ldr	r0, [r4, #20]
 1610 00c2 0023     		movs	r3, #0
 1611 00c4 1A46     		mov	r2, r3
 1612 00c6 1946     		mov	r1, r3
 1613 00c8 FFF7FEFF 		bl	xTaskGenericNotify
 1614              	.LVL189:
 1615 00cc 0023     		movs	r3, #0
 1616 00ce 6361     		str	r3, [r4, #20]
 1617              	.L119:
 778:Generated_Source\PSoC6\pdl\rtos\FreeRTOS\10.0.1\Source/stream_buffer.c **** 		}
 1618              		.loc 1 778 0 discriminator 3
 1619 00d0 FFF7FEFF 		bl	xTaskResumeAll
 1620              	.LVL190:
 1621 00d4 00E0     		b	.L118
 1622              	.LVL191:
 1623              	.L121:
 697:Generated_Source\PSoC6\pdl\rtos\FreeRTOS\10.0.1\Source/stream_buffer.c **** 
 1624              		.loc 1 697 0 is_stmt 1
 1625 00d6 0025     		movs	r5, #0
 1626              	.LVL192:
 1627              	.L118:
 792:Generated_Source\PSoC6\pdl\rtos\FreeRTOS\10.0.1\Source/stream_buffer.c **** /*-----------------------------------------------------------*/
 1628              		.loc 1 792 0
 1629 00d8 2846     		mov	r0, r5
 1630 00da 03B0     		add	sp, sp, #12
 1631              		.cfi_def_cfa_offset 28
 1632              		@ sp needed
 1633 00dc BDE8F083 		pop	{r4, r5, r6, r7, r8, r9, pc}
 1634              		.cfi_endproc
 1635              	.LFE145:
 1636              		.size	xStreamBufferReceive, .-xStreamBufferReceive
 1637              		.section	.text.xStreamBufferReceiveFromISR,"ax",%progbits
 1638              		.align	2
 1639              		.global	xStreamBufferReceiveFromISR
 1640              		.thumb
 1641              		.thumb_func
 1642              		.type	xStreamBufferReceiveFromISR, %function
 1643              	xStreamBufferReceiveFromISR:
 1644              	.LFB146:
 799:Generated_Source\PSoC6\pdl\rtos\FreeRTOS\10.0.1\Source/stream_buffer.c **** StreamBuffer_t * const pxStreamBuffer = ( StreamBuffer_t * ) xStreamBuffer; /*lint !e9087 !e9079 Sa
 1645              		.loc 1 799 0
 1646              		.cfi_startproc
 1647              		@ args = 0, pretend = 0, frame = 0
 1648              		@ frame_needed = 0, uses_anonymous_args = 0
 1649              	.LVL193:
 803:Generated_Source\PSoC6\pdl\rtos\FreeRTOS\10.0.1\Source/stream_buffer.c **** 	configASSERT( pxStreamBuffer );
 1650              		.loc 1 803 0
 1651 0000 41B9     		cbnz	r1, .L124
ARM GAS  C:\Users\adris\AppData\Local\Temp\ccnf5SFB.s 			page 57


 1652              	.LBB127:
 1653              	.LBB128:
 156:Generated_Source\PSoC6\pdl\rtos/FreeRTOS/10.0.1/Source/portable/GCC/CM4F/portmacro.h **** 	(
 1654              		.loc 2 156 0
 1655              		.syntax unified
 1656              	@ 156 "Generated_Source\PSoC6\pdl\rtos/FreeRTOS/10.0.1/Source/portable/GCC/CM4F/portmacro.h" 1
 1657 0002 4FF03F03 			mov r3, #63												
 1658 0006 83F31188 		msr basepri, r3											
 1659 000a BFF36F8F 		isb														
 1660 000e BFF34F8F 		dsb														
 1661              	
 1662              	@ 0 "" 2
 1663              	.LVL194:
 1664              		.thumb
 1665              		.syntax unified
 1666              	.L125:
 1667 0012 FEE7     		b	.L125
 1668              	.LVL195:
 1669              	.L124:
 1670              	.LBE128:
 1671              	.LBE127:
 799:Generated_Source\PSoC6\pdl\rtos\FreeRTOS\10.0.1\Source/stream_buffer.c **** StreamBuffer_t * const pxStreamBuffer = ( StreamBuffer_t * ) xStreamBuffer; /*lint !e9087 !e9079 Sa
 1672              		.loc 1 799 0
 1673 0014 2DE9F041 		push	{r4, r5, r6, r7, r8, lr}
 1674              		.cfi_def_cfa_offset 24
 1675              		.cfi_offset 4, -24
 1676              		.cfi_offset 5, -20
 1677              		.cfi_offset 6, -16
 1678              		.cfi_offset 7, -12
 1679              		.cfi_offset 8, -8
 1680              		.cfi_offset 14, -4
 1681 0018 82B0     		sub	sp, sp, #8
 1682              		.cfi_def_cfa_offset 32
 1683 001a 0D46     		mov	r5, r1
 804:Generated_Source\PSoC6\pdl\rtos\FreeRTOS\10.0.1\Source/stream_buffer.c **** 
 1684              		.loc 1 804 0
 1685 001c 40B9     		cbnz	r0, .L126
 1686              	.LBB129:
 1687              	.LBB130:
 156:Generated_Source\PSoC6\pdl\rtos/FreeRTOS/10.0.1/Source/portable/GCC/CM4F/portmacro.h **** 	(
 1688              		.loc 2 156 0
 1689              		.syntax unified
 1690              	@ 156 "Generated_Source\PSoC6\pdl\rtos/FreeRTOS/10.0.1/Source/portable/GCC/CM4F/portmacro.h" 1
 1691 001e 4FF03F03 			mov r3, #63												
 1692 0022 83F31188 		msr basepri, r3											
 1693 0026 BFF36F8F 		isb														
 1694 002a BFF34F8F 		dsb														
 1695              	
 1696              	@ 0 "" 2
 1697              	.LVL196:
 1698              		.thumb
 1699              		.syntax unified
 1700              	.L127:
 1701 002e FEE7     		b	.L127
 1702              	.LVL197:
 1703              	.L126:
 1704              	.LBE130:
ARM GAS  C:\Users\adris\AppData\Local\Temp\ccnf5SFB.s 			page 58


 1705              	.LBE129:
 811:Generated_Source\PSoC6\pdl\rtos\FreeRTOS\10.0.1\Source/stream_buffer.c **** 	{
 1706              		.loc 1 811 0
 1707 0030 017F     		ldrb	r1, [r0, #28]	@ zero_extendqisi2
 1708              	.LVL198:
 1709 0032 11F0010F 		tst	r1, #1
 1710 0036 01D0     		beq	.L131
 813:Generated_Source\PSoC6\pdl\rtos\FreeRTOS\10.0.1\Source/stream_buffer.c **** 	}
 1711              		.loc 1 813 0
 1712 0038 0427     		movs	r7, #4
 1713 003a 00E0     		b	.L128
 1714              	.L131:
 817:Generated_Source\PSoC6\pdl\rtos\FreeRTOS\10.0.1\Source/stream_buffer.c **** 	}
 1715              		.loc 1 817 0
 1716 003c 0027     		movs	r7, #0
 1717              	.L128:
 1718 003e 9846     		mov	r8, r3
 1719 0040 1646     		mov	r6, r2
 1720 0042 0446     		mov	r4, r0
 1721              	.LVL199:
 820:Generated_Source\PSoC6\pdl\rtos\FreeRTOS\10.0.1\Source/stream_buffer.c **** 
 1722              		.loc 1 820 0
 1723 0044 FFF7FEFF 		bl	prvBytesInBuffer
 1724              	.LVL200:
 1725 0048 0346     		mov	r3, r0
 1726              	.LVL201:
 827:Generated_Source\PSoC6\pdl\rtos\FreeRTOS\10.0.1\Source/stream_buffer.c **** 	{
 1727              		.loc 1 827 0
 1728 004a 8742     		cmp	r7, r0
 1729 004c 20D2     		bcs	.L132
 829:Generated_Source\PSoC6\pdl\rtos\FreeRTOS\10.0.1\Source/stream_buffer.c **** 
 1730              		.loc 1 829 0
 1731 004e 0097     		str	r7, [sp]
 1732 0050 3246     		mov	r2, r6
 1733 0052 2946     		mov	r1, r5
 1734 0054 2046     		mov	r0, r4
 1735              	.LVL202:
 1736 0056 FFF7FEFF 		bl	prvReadMessageFromBuffer
 1737              	.LVL203:
 832:Generated_Source\PSoC6\pdl\rtos\FreeRTOS\10.0.1\Source/stream_buffer.c **** 		{
 1738              		.loc 1 832 0
 1739 005a 0546     		mov	r5, r0
 1740              	.LVL204:
 1741 005c C8B1     		cbz	r0, .L129
 1742              	.LBB131:
 1743              	.LBB132:
 1744              	.LBB133:
 172:Generated_Source\PSoC6\pdl\rtos/FreeRTOS/10.0.1/Source/portable/GCC/CM4F/portmacro.h **** 	(
 1745              		.loc 2 172 0
 1746              		.syntax unified
 1747              	@ 172 "Generated_Source\PSoC6\pdl\rtos/FreeRTOS/10.0.1/Source/portable/GCC/CM4F/portmacro.h" 1
 1748 005e EFF31186 			mrs r6, basepri											
 1749 0062 4FF03F03 		mov r3, #63												
 1750 0066 83F31188 		msr basepri, r3											
 1751 006a BFF36F8F 		isb														
 1752 006e BFF34F8F 		dsb														
 1753              	
ARM GAS  C:\Users\adris\AppData\Local\Temp\ccnf5SFB.s 			page 59


 1754              	@ 0 "" 2
 1755              	.LVL205:
 1756              		.thumb
 1757              		.syntax unified
 1758              	.LBE133:
 1759              	.LBE132:
 834:Generated_Source\PSoC6\pdl\rtos\FreeRTOS\10.0.1\Source/stream_buffer.c **** 		}
 1760              		.loc 1 834 0
 1761 0072 6369     		ldr	r3, [r4, #20]
 1762 0074 4BB1     		cbz	r3, .L130
 834:Generated_Source\PSoC6\pdl\rtos\FreeRTOS\10.0.1\Source/stream_buffer.c **** 		}
 1763              		.loc 1 834 0 is_stmt 0 discriminator 1
 1764 0076 6069     		ldr	r0, [r4, #20]
 1765              	.LVL206:
 1766 0078 CDF80080 		str	r8, [sp]
 1767 007c 0023     		movs	r3, #0
 1768 007e 1A46     		mov	r2, r3
 1769 0080 1946     		mov	r1, r3
 1770 0082 FFF7FEFF 		bl	xTaskGenericNotifyFromISR
 1771              	.LVL207:
 1772 0086 0023     		movs	r3, #0
 1773 0088 6361     		str	r3, [r4, #20]
 1774              	.L130:
 1775              	.LVL208:
 1776              	.LBB134:
 1777              	.LBB135:
 1778              		.loc 2 190 0 is_stmt 1 discriminator 3
 1779              		.syntax unified
 1780              	@ 190 "Generated_Source\PSoC6\pdl\rtos/FreeRTOS/10.0.1/Source/portable/GCC/CM4F/portmacro.h" 1
 1781 008a 86F31188 			msr basepri, r6	
 1782              	@ 0 "" 2
 1783              		.thumb
 1784              		.syntax unified
 1785 008e 00E0     		b	.L129
 1786              	.LVL209:
 1787              	.L132:
 1788              	.LBE135:
 1789              	.LBE134:
 1790              	.LBE131:
 801:Generated_Source\PSoC6\pdl\rtos\FreeRTOS\10.0.1\Source/stream_buffer.c **** 
 1791              		.loc 1 801 0
 1792 0090 0025     		movs	r5, #0
 1793              	.LVL210:
 1794              	.L129:
 849:Generated_Source\PSoC6\pdl\rtos\FreeRTOS\10.0.1\Source/stream_buffer.c **** /*-----------------------------------------------------------*/
 1795              		.loc 1 849 0
 1796 0092 2846     		mov	r0, r5
 1797 0094 02B0     		add	sp, sp, #8
 1798              		.cfi_def_cfa_offset 24
 1799              		@ sp needed
 1800 0096 BDE8F081 		pop	{r4, r5, r6, r7, r8, pc}
 1801              		.cfi_endproc
 1802              	.LFE146:
 1803              		.size	xStreamBufferReceiveFromISR, .-xStreamBufferReceiveFromISR
 1804 009a 00BF     		.section	.text.xStreamBufferIsEmpty,"ax",%progbits
 1805              		.align	2
 1806              		.global	xStreamBufferIsEmpty
ARM GAS  C:\Users\adris\AppData\Local\Temp\ccnf5SFB.s 			page 60


 1807              		.thumb
 1808              		.thumb_func
 1809              		.type	xStreamBufferIsEmpty, %function
 1810              	xStreamBufferIsEmpty:
 1811              	.LFB148:
 903:Generated_Source\PSoC6\pdl\rtos\FreeRTOS\10.0.1\Source/stream_buffer.c **** const StreamBuffer_t * const pxStreamBuffer = ( StreamBuffer_t * ) xStreamBuffer; /*lint !e9087 !e9
 1812              		.loc 1 903 0
 1813              		.cfi_startproc
 1814              		@ args = 0, pretend = 0, frame = 0
 1815              		@ frame_needed = 0, uses_anonymous_args = 0
 1816              		@ link register save eliminated.
 1817              	.LVL211:
 908:Generated_Source\PSoC6\pdl\rtos\FreeRTOS\10.0.1\Source/stream_buffer.c **** 
 1818              		.loc 1 908 0
 1819 0000 40B9     		cbnz	r0, .L135
 1820              	.LBB136:
 1821              	.LBB137:
 156:Generated_Source\PSoC6\pdl\rtos/FreeRTOS/10.0.1/Source/portable/GCC/CM4F/portmacro.h **** 	(
 1822              		.loc 2 156 0
 1823              		.syntax unified
 1824              	@ 156 "Generated_Source\PSoC6\pdl\rtos/FreeRTOS/10.0.1/Source/portable/GCC/CM4F/portmacro.h" 1
 1825 0002 4FF03F03 			mov r3, #63												
 1826 0006 83F31188 		msr basepri, r3											
 1827 000a BFF36F8F 		isb														
 1828 000e BFF34F8F 		dsb														
 1829              	
 1830              	@ 0 "" 2
 1831              	.LVL212:
 1832              		.thumb
 1833              		.syntax unified
 1834              	.L136:
 1835 0012 FEE7     		b	.L136
 1836              	.L135:
 1837              	.LBE137:
 1838              	.LBE136:
 911:Generated_Source\PSoC6\pdl\rtos\FreeRTOS\10.0.1\Source/stream_buffer.c **** 	if( pxStreamBuffer->xHead == xTail )
 1839              		.loc 1 911 0
 1840 0014 0268     		ldr	r2, [r0]
 1841              	.LVL213:
 912:Generated_Source\PSoC6\pdl\rtos\FreeRTOS\10.0.1\Source/stream_buffer.c **** 	{
 1842              		.loc 1 912 0
 1843 0016 4368     		ldr	r3, [r0, #4]
 1844 0018 9A42     		cmp	r2, r3
 1845 001a 01D1     		bne	.L138
 914:Generated_Source\PSoC6\pdl\rtos\FreeRTOS\10.0.1\Source/stream_buffer.c **** 	}
 1846              		.loc 1 914 0
 1847 001c 0120     		movs	r0, #1
 1848              	.LVL214:
 1849 001e 7047     		bx	lr
 1850              	.LVL215:
 1851              	.L138:
 918:Generated_Source\PSoC6\pdl\rtos\FreeRTOS\10.0.1\Source/stream_buffer.c **** 	}
 1852              		.loc 1 918 0
 1853 0020 0020     		movs	r0, #0
 1854              	.LVL216:
 922:Generated_Source\PSoC6\pdl\rtos\FreeRTOS\10.0.1\Source/stream_buffer.c **** /*-----------------------------------------------------------*/
 1855              		.loc 1 922 0
ARM GAS  C:\Users\adris\AppData\Local\Temp\ccnf5SFB.s 			page 61


 1856 0022 7047     		bx	lr
 1857              		.cfi_endproc
 1858              	.LFE148:
 1859              		.size	xStreamBufferIsEmpty, .-xStreamBufferIsEmpty
 1860              		.section	.text.xStreamBufferIsFull,"ax",%progbits
 1861              		.align	2
 1862              		.global	xStreamBufferIsFull
 1863              		.thumb
 1864              		.thumb_func
 1865              		.type	xStreamBufferIsFull, %function
 1866              	xStreamBufferIsFull:
 1867              	.LFB149:
 926:Generated_Source\PSoC6\pdl\rtos\FreeRTOS\10.0.1\Source/stream_buffer.c **** BaseType_t xReturn;
 1868              		.loc 1 926 0
 1869              		.cfi_startproc
 1870              		@ args = 0, pretend = 0, frame = 0
 1871              		@ frame_needed = 0, uses_anonymous_args = 0
 1872              	.LVL217:
 931:Generated_Source\PSoC6\pdl\rtos\FreeRTOS\10.0.1\Source/stream_buffer.c **** 
 1873              		.loc 1 931 0
 1874 0000 40B9     		cbnz	r0, .L140
 1875              	.LBB138:
 1876              	.LBB139:
 156:Generated_Source\PSoC6\pdl\rtos/FreeRTOS/10.0.1/Source/portable/GCC/CM4F/portmacro.h **** 	(
 1877              		.loc 2 156 0
 1878              		.syntax unified
 1879              	@ 156 "Generated_Source\PSoC6\pdl\rtos/FreeRTOS/10.0.1/Source/portable/GCC/CM4F/portmacro.h" 1
 1880 0002 4FF03F03 			mov r3, #63												
 1881 0006 83F31188 		msr basepri, r3											
 1882 000a BFF36F8F 		isb														
 1883 000e BFF34F8F 		dsb														
 1884              	
 1885              	@ 0 "" 2
 1886              	.LVL218:
 1887              		.thumb
 1888              		.syntax unified
 1889              	.L141:
 1890 0012 FEE7     		b	.L141
 1891              	.L140:
 1892              	.LBE139:
 1893              	.LBE138:
 926:Generated_Source\PSoC6\pdl\rtos\FreeRTOS\10.0.1\Source/stream_buffer.c **** BaseType_t xReturn;
 1894              		.loc 1 926 0
 1895 0014 10B5     		push	{r4, lr}
 1896              		.cfi_def_cfa_offset 8
 1897              		.cfi_offset 4, -8
 1898              		.cfi_offset 14, -4
 1899 0016 0346     		mov	r3, r0
 937:Generated_Source\PSoC6\pdl\rtos\FreeRTOS\10.0.1\Source/stream_buffer.c **** 	{
 1900              		.loc 1 937 0
 1901 0018 027F     		ldrb	r2, [r0, #28]	@ zero_extendqisi2
 1902 001a 12F0010F 		tst	r2, #1
 1903 001e 01D0     		beq	.L144
 939:Generated_Source\PSoC6\pdl\rtos\FreeRTOS\10.0.1\Source/stream_buffer.c **** 	}
 1904              		.loc 1 939 0
 1905 0020 0424     		movs	r4, #4
 1906 0022 00E0     		b	.L142
ARM GAS  C:\Users\adris\AppData\Local\Temp\ccnf5SFB.s 			page 62


 1907              	.L144:
 943:Generated_Source\PSoC6\pdl\rtos\FreeRTOS\10.0.1\Source/stream_buffer.c **** 	}
 1908              		.loc 1 943 0
 1909 0024 0024     		movs	r4, #0
 1910              	.L142:
 1911 0026 1846     		mov	r0, r3
 1912              	.LVL219:
 947:Generated_Source\PSoC6\pdl\rtos\FreeRTOS\10.0.1\Source/stream_buffer.c **** 	{
 1913              		.loc 1 947 0
 1914 0028 FFF7FEFF 		bl	xStreamBufferSpacesAvailable
 1915              	.LVL220:
 1916 002c 8442     		cmp	r4, r0
 1917 002e 01D3     		bcc	.L145
 949:Generated_Source\PSoC6\pdl\rtos\FreeRTOS\10.0.1\Source/stream_buffer.c **** 	}
 1918              		.loc 1 949 0
 1919 0030 0120     		movs	r0, #1
 1920 0032 10BD     		pop	{r4, pc}
 1921              	.LVL221:
 1922              	.L145:
 953:Generated_Source\PSoC6\pdl\rtos\FreeRTOS\10.0.1\Source/stream_buffer.c **** 	}
 1923              		.loc 1 953 0
 1924 0034 0020     		movs	r0, #0
 1925              	.LVL222:
 957:Generated_Source\PSoC6\pdl\rtos\FreeRTOS\10.0.1\Source/stream_buffer.c **** /*-----------------------------------------------------------*/
 1926              		.loc 1 957 0
 1927 0036 10BD     		pop	{r4, pc}
 1928              		.cfi_endproc
 1929              	.LFE149:
 1930              		.size	xStreamBufferIsFull, .-xStreamBufferIsFull
 1931              		.section	.text.xStreamBufferSendCompletedFromISR,"ax",%progbits
 1932              		.align	2
 1933              		.global	xStreamBufferSendCompletedFromISR
 1934              		.thumb
 1935              		.thumb_func
 1936              		.type	xStreamBufferSendCompletedFromISR, %function
 1937              	xStreamBufferSendCompletedFromISR:
 1938              	.LFB150:
 961:Generated_Source\PSoC6\pdl\rtos\FreeRTOS\10.0.1\Source/stream_buffer.c **** StreamBuffer_t * const pxStreamBuffer = ( StreamBuffer_t * ) xStreamBuffer; /*lint !e9087 !e9079 Sa
 1939              		.loc 1 961 0
 1940              		.cfi_startproc
 1941              		@ args = 0, pretend = 0, frame = 0
 1942              		@ frame_needed = 0, uses_anonymous_args = 0
 1943              	.LVL223:
 966:Generated_Source\PSoC6\pdl\rtos\FreeRTOS\10.0.1\Source/stream_buffer.c **** 
 1944              		.loc 1 966 0
 1945 0000 40B9     		cbnz	r0, .L148
 1946              	.LBB140:
 1947              	.LBB141:
 156:Generated_Source\PSoC6\pdl\rtos/FreeRTOS/10.0.1/Source/portable/GCC/CM4F/portmacro.h **** 	(
 1948              		.loc 2 156 0
 1949              		.syntax unified
 1950              	@ 156 "Generated_Source\PSoC6\pdl\rtos/FreeRTOS/10.0.1/Source/portable/GCC/CM4F/portmacro.h" 1
 1951 0002 4FF03F03 			mov r3, #63												
 1952 0006 83F31188 		msr basepri, r3											
 1953 000a BFF36F8F 		isb														
 1954 000e BFF34F8F 		dsb														
 1955              	
ARM GAS  C:\Users\adris\AppData\Local\Temp\ccnf5SFB.s 			page 63


 1956              	@ 0 "" 2
 1957              	.LVL224:
 1958              		.thumb
 1959              		.syntax unified
 1960              	.L149:
 1961 0012 FEE7     		b	.L149
 1962              	.L148:
 1963              	.LBE141:
 1964              	.LBE140:
 961:Generated_Source\PSoC6\pdl\rtos\FreeRTOS\10.0.1\Source/stream_buffer.c **** StreamBuffer_t * const pxStreamBuffer = ( StreamBuffer_t * ) xStreamBuffer; /*lint !e9087 !e9079 Sa
 1965              		.loc 1 961 0
 1966 0014 30B5     		push	{r4, r5, lr}
 1967              		.cfi_def_cfa_offset 12
 1968              		.cfi_offset 4, -12
 1969              		.cfi_offset 5, -8
 1970              		.cfi_offset 14, -4
 1971 0016 83B0     		sub	sp, sp, #12
 1972              		.cfi_def_cfa_offset 24
 1973 0018 0446     		mov	r4, r0
 1974              	.LBB142:
 1975              	.LBB143:
 172:Generated_Source\PSoC6\pdl\rtos/FreeRTOS/10.0.1/Source/portable/GCC/CM4F/portmacro.h **** 	(
 1976              		.loc 2 172 0
 1977              		.syntax unified
 1978              	@ 172 "Generated_Source\PSoC6\pdl\rtos/FreeRTOS/10.0.1/Source/portable/GCC/CM4F/portmacro.h" 1
 1979 001a EFF31185 			mrs r5, basepri											
 1980 001e 4FF03F03 		mov r3, #63												
 1981 0022 83F31188 		msr basepri, r3											
 1982 0026 BFF36F8F 		isb														
 1983 002a BFF34F8F 		dsb														
 1984              	
 1985              	@ 0 "" 2
 1986              		.thumb
 1987              		.syntax unified
 1988              	.LBE143:
 1989              	.LBE142:
 970:Generated_Source\PSoC6\pdl\rtos\FreeRTOS\10.0.1\Source/stream_buffer.c **** 		{
 1990              		.loc 1 970 0
 1991 002e 0369     		ldr	r3, [r0, #16]
 1992 0030 53B1     		cbz	r3, .L151
 972:Generated_Source\PSoC6\pdl\rtos\FreeRTOS\10.0.1\Source/stream_buffer.c **** 										 ( uint32_t ) 0,
 1993              		.loc 1 972 0
 1994 0032 0069     		ldr	r0, [r0, #16]
 1995              	.LVL225:
 1996 0034 0091     		str	r1, [sp]
 1997 0036 0023     		movs	r3, #0
 1998 0038 1A46     		mov	r2, r3
 1999 003a 1946     		mov	r1, r3
 2000              	.LVL226:
 2001 003c FFF7FEFF 		bl	xTaskGenericNotifyFromISR
 2002              	.LVL227:
 976:Generated_Source\PSoC6\pdl\rtos\FreeRTOS\10.0.1\Source/stream_buffer.c **** 			xReturn = pdTRUE;
 2003              		.loc 1 976 0
 2004 0040 0023     		movs	r3, #0
 2005 0042 2361     		str	r3, [r4, #16]
 2006              	.LVL228:
 977:Generated_Source\PSoC6\pdl\rtos\FreeRTOS\10.0.1\Source/stream_buffer.c **** 		}
ARM GAS  C:\Users\adris\AppData\Local\Temp\ccnf5SFB.s 			page 64


 2007              		.loc 1 977 0
 2008 0044 0120     		movs	r0, #1
 2009 0046 00E0     		b	.L150
 2010              	.LVL229:
 2011              	.L151:
 981:Generated_Source\PSoC6\pdl\rtos\FreeRTOS\10.0.1\Source/stream_buffer.c **** 		}
 2012              		.loc 1 981 0
 2013 0048 0020     		movs	r0, #0
 2014              	.LVL230:
 2015              	.L150:
 2016              	.LBB144:
 2017              	.LBB145:
 2018              		.loc 2 190 0
 2019              		.syntax unified
 2020              	@ 190 "Generated_Source\PSoC6\pdl\rtos/FreeRTOS/10.0.1/Source/portable/GCC/CM4F/portmacro.h" 1
 2021 004a 85F31188 			msr basepri, r5	
 2022              	@ 0 "" 2
 2023              	.LVL231:
 2024              		.thumb
 2025              		.syntax unified
 2026              	.LBE145:
 2027              	.LBE144:
 987:Generated_Source\PSoC6\pdl\rtos\FreeRTOS\10.0.1\Source/stream_buffer.c **** /*-----------------------------------------------------------*/
 2028              		.loc 1 987 0
 2029 004e 03B0     		add	sp, sp, #12
 2030              		.cfi_def_cfa_offset 12
 2031              		@ sp needed
 2032 0050 30BD     		pop	{r4, r5, pc}
 2033              		.cfi_endproc
 2034              	.LFE150:
 2035              		.size	xStreamBufferSendCompletedFromISR, .-xStreamBufferSendCompletedFromISR
 2036 0052 00BF     		.section	.text.xStreamBufferReceiveCompletedFromISR,"ax",%progbits
 2037              		.align	2
 2038              		.global	xStreamBufferReceiveCompletedFromISR
 2039              		.thumb
 2040              		.thumb_func
 2041              		.type	xStreamBufferReceiveCompletedFromISR, %function
 2042              	xStreamBufferReceiveCompletedFromISR:
 2043              	.LFB151:
 991:Generated_Source\PSoC6\pdl\rtos\FreeRTOS\10.0.1\Source/stream_buffer.c **** StreamBuffer_t * const pxStreamBuffer = ( StreamBuffer_t * ) xStreamBuffer; /*lint !e9087 !e9079 Sa
 2044              		.loc 1 991 0
 2045              		.cfi_startproc
 2046              		@ args = 0, pretend = 0, frame = 0
 2047              		@ frame_needed = 0, uses_anonymous_args = 0
 2048              	.LVL232:
 996:Generated_Source\PSoC6\pdl\rtos\FreeRTOS\10.0.1\Source/stream_buffer.c **** 
 2049              		.loc 1 996 0
 2050 0000 40B9     		cbnz	r0, .L154
 2051              	.LBB146:
 2052              	.LBB147:
 156:Generated_Source\PSoC6\pdl\rtos/FreeRTOS/10.0.1/Source/portable/GCC/CM4F/portmacro.h **** 	(
 2053              		.loc 2 156 0
 2054              		.syntax unified
 2055              	@ 156 "Generated_Source\PSoC6\pdl\rtos/FreeRTOS/10.0.1/Source/portable/GCC/CM4F/portmacro.h" 1
 2056 0002 4FF03F03 			mov r3, #63												
 2057 0006 83F31188 		msr basepri, r3											
 2058 000a BFF36F8F 		isb														
ARM GAS  C:\Users\adris\AppData\Local\Temp\ccnf5SFB.s 			page 65


 2059 000e BFF34F8F 		dsb														
 2060              	
 2061              	@ 0 "" 2
 2062              	.LVL233:
 2063              		.thumb
 2064              		.syntax unified
 2065              	.L155:
 2066 0012 FEE7     		b	.L155
 2067              	.L154:
 2068              	.LBE147:
 2069              	.LBE146:
 991:Generated_Source\PSoC6\pdl\rtos\FreeRTOS\10.0.1\Source/stream_buffer.c **** StreamBuffer_t * const pxStreamBuffer = ( StreamBuffer_t * ) xStreamBuffer; /*lint !e9087 !e9079 Sa
 2070              		.loc 1 991 0
 2071 0014 30B5     		push	{r4, r5, lr}
 2072              		.cfi_def_cfa_offset 12
 2073              		.cfi_offset 4, -12
 2074              		.cfi_offset 5, -8
 2075              		.cfi_offset 14, -4
 2076 0016 83B0     		sub	sp, sp, #12
 2077              		.cfi_def_cfa_offset 24
 2078 0018 0446     		mov	r4, r0
 2079              	.LBB148:
 2080              	.LBB149:
 172:Generated_Source\PSoC6\pdl\rtos/FreeRTOS/10.0.1/Source/portable/GCC/CM4F/portmacro.h **** 	(
 2081              		.loc 2 172 0
 2082              		.syntax unified
 2083              	@ 172 "Generated_Source\PSoC6\pdl\rtos/FreeRTOS/10.0.1/Source/portable/GCC/CM4F/portmacro.h" 1
 2084 001a EFF31185 			mrs r5, basepri											
 2085 001e 4FF03F03 		mov r3, #63												
 2086 0022 83F31188 		msr basepri, r3											
 2087 0026 BFF36F8F 		isb														
 2088 002a BFF34F8F 		dsb														
 2089              	
 2090              	@ 0 "" 2
 2091              		.thumb
 2092              		.syntax unified
 2093              	.LBE149:
 2094              	.LBE148:
1000:Generated_Source\PSoC6\pdl\rtos\FreeRTOS\10.0.1\Source/stream_buffer.c **** 		{
 2095              		.loc 1 1000 0
 2096 002e 4369     		ldr	r3, [r0, #20]
 2097 0030 53B1     		cbz	r3, .L157
1002:Generated_Source\PSoC6\pdl\rtos\FreeRTOS\10.0.1\Source/stream_buffer.c **** 										 ( uint32_t ) 0,
 2098              		.loc 1 1002 0
 2099 0032 4069     		ldr	r0, [r0, #20]
 2100              	.LVL234:
 2101 0034 0091     		str	r1, [sp]
 2102 0036 0023     		movs	r3, #0
 2103 0038 1A46     		mov	r2, r3
 2104 003a 1946     		mov	r1, r3
 2105              	.LVL235:
 2106 003c FFF7FEFF 		bl	xTaskGenericNotifyFromISR
 2107              	.LVL236:
1006:Generated_Source\PSoC6\pdl\rtos\FreeRTOS\10.0.1\Source/stream_buffer.c **** 			xReturn = pdTRUE;
 2108              		.loc 1 1006 0
 2109 0040 0023     		movs	r3, #0
 2110 0042 6361     		str	r3, [r4, #20]
ARM GAS  C:\Users\adris\AppData\Local\Temp\ccnf5SFB.s 			page 66


 2111              	.LVL237:
1007:Generated_Source\PSoC6\pdl\rtos\FreeRTOS\10.0.1\Source/stream_buffer.c **** 		}
 2112              		.loc 1 1007 0
 2113 0044 0120     		movs	r0, #1
 2114 0046 00E0     		b	.L156
 2115              	.LVL238:
 2116              	.L157:
1011:Generated_Source\PSoC6\pdl\rtos\FreeRTOS\10.0.1\Source/stream_buffer.c **** 		}
 2117              		.loc 1 1011 0
 2118 0048 0020     		movs	r0, #0
 2119              	.LVL239:
 2120              	.L156:
 2121              	.LBB150:
 2122              	.LBB151:
 2123              		.loc 2 190 0
 2124              		.syntax unified
 2125              	@ 190 "Generated_Source\PSoC6\pdl\rtos/FreeRTOS/10.0.1/Source/portable/GCC/CM4F/portmacro.h" 1
 2126 004a 85F31188 			msr basepri, r5	
 2127              	@ 0 "" 2
 2128              	.LVL240:
 2129              		.thumb
 2130              		.syntax unified
 2131              	.LBE151:
 2132              	.LBE150:
1017:Generated_Source\PSoC6\pdl\rtos\FreeRTOS\10.0.1\Source/stream_buffer.c **** /*-----------------------------------------------------------*/
 2133              		.loc 1 1017 0
 2134 004e 03B0     		add	sp, sp, #12
 2135              		.cfi_def_cfa_offset 12
 2136              		@ sp needed
 2137 0050 30BD     		pop	{r4, r5, pc}
 2138              		.cfi_endproc
 2139              	.LFE151:
 2140              		.size	xStreamBufferReceiveCompletedFromISR, .-xStreamBufferReceiveCompletedFromISR
 2141 0052 00BF     		.section	.text.uxStreamBufferGetStreamBufferNumber,"ax",%progbits
 2142              		.align	2
 2143              		.global	uxStreamBufferGetStreamBufferNumber
 2144              		.thumb
 2145              		.thumb_func
 2146              		.type	uxStreamBufferGetStreamBufferNumber, %function
 2147              	uxStreamBufferGetStreamBufferNumber:
 2148              	.LFB156:
1168:Generated_Source\PSoC6\pdl\rtos\FreeRTOS\10.0.1\Source/stream_buffer.c **** 	}
1169:Generated_Source\PSoC6\pdl\rtos\FreeRTOS\10.0.1\Source/stream_buffer.c **** }
1170:Generated_Source\PSoC6\pdl\rtos\FreeRTOS\10.0.1\Source/stream_buffer.c **** 
1171:Generated_Source\PSoC6\pdl\rtos\FreeRTOS\10.0.1\Source/stream_buffer.c **** #if ( configUSE_TRACE_FACILITY == 1 )
1172:Generated_Source\PSoC6\pdl\rtos\FreeRTOS\10.0.1\Source/stream_buffer.c **** 
1173:Generated_Source\PSoC6\pdl\rtos\FreeRTOS\10.0.1\Source/stream_buffer.c **** 	UBaseType_t uxStreamBufferGetStreamBufferNumber( StreamBufferHandle_t xStreamBuffer )
1174:Generated_Source\PSoC6\pdl\rtos\FreeRTOS\10.0.1\Source/stream_buffer.c **** 	{
 2149              		.loc 1 1174 0
 2150              		.cfi_startproc
 2151              		@ args = 0, pretend = 0, frame = 0
 2152              		@ frame_needed = 0, uses_anonymous_args = 0
 2153              		@ link register save eliminated.
 2154              	.LVL241:
1175:Generated_Source\PSoC6\pdl\rtos\FreeRTOS\10.0.1\Source/stream_buffer.c **** 		return ( ( StreamBuffer_t * ) xStreamBuffer )->uxStreamBufferNumber;
1176:Generated_Source\PSoC6\pdl\rtos\FreeRTOS\10.0.1\Source/stream_buffer.c **** 	}
 2155              		.loc 1 1176 0
ARM GAS  C:\Users\adris\AppData\Local\Temp\ccnf5SFB.s 			page 67


 2156 0000 006A     		ldr	r0, [r0, #32]
 2157              	.LVL242:
 2158 0002 7047     		bx	lr
 2159              		.cfi_endproc
 2160              	.LFE156:
 2161              		.size	uxStreamBufferGetStreamBufferNumber, .-uxStreamBufferGetStreamBufferNumber
 2162              		.section	.text.vStreamBufferSetStreamBufferNumber,"ax",%progbits
 2163              		.align	2
 2164              		.global	vStreamBufferSetStreamBufferNumber
 2165              		.thumb
 2166              		.thumb_func
 2167              		.type	vStreamBufferSetStreamBufferNumber, %function
 2168              	vStreamBufferSetStreamBufferNumber:
 2169              	.LFB157:
1177:Generated_Source\PSoC6\pdl\rtos\FreeRTOS\10.0.1\Source/stream_buffer.c **** 
1178:Generated_Source\PSoC6\pdl\rtos\FreeRTOS\10.0.1\Source/stream_buffer.c **** #endif /* configUSE_TRACE_FACILITY */
1179:Generated_Source\PSoC6\pdl\rtos\FreeRTOS\10.0.1\Source/stream_buffer.c **** /*-----------------------------------------------------------*/
1180:Generated_Source\PSoC6\pdl\rtos\FreeRTOS\10.0.1\Source/stream_buffer.c **** 
1181:Generated_Source\PSoC6\pdl\rtos\FreeRTOS\10.0.1\Source/stream_buffer.c **** #if ( configUSE_TRACE_FACILITY == 1 )
1182:Generated_Source\PSoC6\pdl\rtos\FreeRTOS\10.0.1\Source/stream_buffer.c **** 
1183:Generated_Source\PSoC6\pdl\rtos\FreeRTOS\10.0.1\Source/stream_buffer.c **** 	void vStreamBufferSetStreamBufferNumber( StreamBufferHandle_t xStreamBuffer, UBaseType_t uxStreamB
1184:Generated_Source\PSoC6\pdl\rtos\FreeRTOS\10.0.1\Source/stream_buffer.c **** 	{
 2170              		.loc 1 1184 0
 2171              		.cfi_startproc
 2172              		@ args = 0, pretend = 0, frame = 0
 2173              		@ frame_needed = 0, uses_anonymous_args = 0
 2174              		@ link register save eliminated.
 2175              	.LVL243:
1185:Generated_Source\PSoC6\pdl\rtos\FreeRTOS\10.0.1\Source/stream_buffer.c **** 		( ( StreamBuffer_t * ) xStreamBuffer )->uxStreamBufferNumber = uxStreamBufferNumber;
 2176              		.loc 1 1185 0
 2177 0000 0162     		str	r1, [r0, #32]
 2178 0002 7047     		bx	lr
 2179              		.cfi_endproc
 2180              	.LFE157:
 2181              		.size	vStreamBufferSetStreamBufferNumber, .-vStreamBufferSetStreamBufferNumber
 2182              		.section	.text.ucStreamBufferGetStreamBufferType,"ax",%progbits
 2183              		.align	2
 2184              		.global	ucStreamBufferGetStreamBufferType
 2185              		.thumb
 2186              		.thumb_func
 2187              		.type	ucStreamBufferGetStreamBufferType, %function
 2188              	ucStreamBufferGetStreamBufferType:
 2189              	.LFB158:
1186:Generated_Source\PSoC6\pdl\rtos\FreeRTOS\10.0.1\Source/stream_buffer.c **** 	}
1187:Generated_Source\PSoC6\pdl\rtos\FreeRTOS\10.0.1\Source/stream_buffer.c **** 
1188:Generated_Source\PSoC6\pdl\rtos\FreeRTOS\10.0.1\Source/stream_buffer.c **** #endif /* configUSE_TRACE_FACILITY */
1189:Generated_Source\PSoC6\pdl\rtos\FreeRTOS\10.0.1\Source/stream_buffer.c **** /*-----------------------------------------------------------*/
1190:Generated_Source\PSoC6\pdl\rtos\FreeRTOS\10.0.1\Source/stream_buffer.c **** 
1191:Generated_Source\PSoC6\pdl\rtos\FreeRTOS\10.0.1\Source/stream_buffer.c **** #if ( configUSE_TRACE_FACILITY == 1 )
1192:Generated_Source\PSoC6\pdl\rtos\FreeRTOS\10.0.1\Source/stream_buffer.c **** 
1193:Generated_Source\PSoC6\pdl\rtos\FreeRTOS\10.0.1\Source/stream_buffer.c **** 	uint8_t ucStreamBufferGetStreamBufferType( StreamBufferHandle_t xStreamBuffer )
1194:Generated_Source\PSoC6\pdl\rtos\FreeRTOS\10.0.1\Source/stream_buffer.c **** 	{
 2190              		.loc 1 1194 0
 2191              		.cfi_startproc
 2192              		@ args = 0, pretend = 0, frame = 0
 2193              		@ frame_needed = 0, uses_anonymous_args = 0
 2194              		@ link register save eliminated.
ARM GAS  C:\Users\adris\AppData\Local\Temp\ccnf5SFB.s 			page 68


 2195              	.LVL244:
1195:Generated_Source\PSoC6\pdl\rtos\FreeRTOS\10.0.1\Source/stream_buffer.c **** 		return ( ( StreamBuffer_t * )xStreamBuffer )->ucFlags | sbFLAGS_IS_MESSAGE_BUFFER;
 2196              		.loc 1 1195 0
 2197 0000 007F     		ldrb	r0, [r0, #28]	@ zero_extendqisi2
 2198              	.LVL245:
1196:Generated_Source\PSoC6\pdl\rtos\FreeRTOS\10.0.1\Source/stream_buffer.c **** 	}
 2199              		.loc 1 1196 0
 2200 0002 40F00100 		orr	r0, r0, #1
 2201 0006 7047     		bx	lr
 2202              		.cfi_endproc
 2203              	.LFE158:
 2204              		.size	ucStreamBufferGetStreamBufferType, .-ucStreamBufferGetStreamBufferType
 2205              		.text
 2206              	.Letext0:
 2207              		.file 3 "c:\\program files (x86)\\cypress\\psoc creator\\4.4\\psoc creator\\import\\gnu\\arm\\5.4.
 2208              		.file 4 "c:\\program files (x86)\\cypress\\psoc creator\\4.4\\psoc creator\\import\\gnu\\arm\\5.4.
 2209              		.file 5 "c:\\program files (x86)\\cypress\\psoc creator\\4.4\\psoc creator\\import\\gnu\\arm\\5.4.
 2210              		.file 6 "Generated_Source\\PSoC6\\pdl\\rtos/FreeRTOS/10.0.1/Source/include/task.h"
 2211              		.file 7 "Generated_Source\\PSoC6\\pdl\\rtos/FreeRTOS/10.0.1/Source/include/stream_buffer.h"
 2212              		.file 8 "c:\\program files (x86)\\cypress\\psoc creator\\4.4\\psoc creator\\import\\gnu\\arm\\5.4.
 2213              		.file 9 "Generated_Source\\PSoC6\\pdl\\rtos/FreeRTOS/10.0.1/Source/include/portable.h"
 2214              		.file 10 "Generated_Source\\PSoC6\\pdl\\cmsis/include/core_cm4.h"
 2215              		.section	.debug_info,"",%progbits
 2216              	.Ldebug_info0:
 2217 0000 5B160000 		.4byte	0x165b
 2218 0004 0400     		.2byte	0x4
 2219 0006 00000000 		.4byte	.Ldebug_abbrev0
 2220 000a 04       		.byte	0x4
 2221 000b 01       		.uleb128 0x1
 2222 000c 38070000 		.4byte	.LASF117
 2223 0010 0C       		.byte	0xc
 2224 0011 EA040000 		.4byte	.LASF118
 2225 0015 A5080000 		.4byte	.LASF119
 2226 0019 00000000 		.4byte	.Ldebug_ranges0+0
 2227 001d 00000000 		.4byte	0
 2228 0021 00000000 		.4byte	.Ldebug_line0
 2229 0025 02       		.uleb128 0x2
 2230 0026 01       		.byte	0x1
 2231 0027 06       		.byte	0x6
 2232 0028 E7030000 		.4byte	.LASF0
 2233 002c 03       		.uleb128 0x3
 2234 002d E3020000 		.4byte	.LASF4
 2235 0031 03       		.byte	0x3
 2236 0032 1D       		.byte	0x1d
 2237 0033 37000000 		.4byte	0x37
 2238 0037 02       		.uleb128 0x2
 2239 0038 01       		.byte	0x1
 2240 0039 08       		.byte	0x8
 2241 003a 73030000 		.4byte	.LASF1
 2242 003e 02       		.uleb128 0x2
 2243 003f 02       		.byte	0x2
 2244 0040 05       		.byte	0x5
 2245 0041 92000000 		.4byte	.LASF2
 2246 0045 02       		.uleb128 0x2
 2247 0046 02       		.byte	0x2
 2248 0047 07       		.byte	0x7
 2249 0048 A4040000 		.4byte	.LASF3
ARM GAS  C:\Users\adris\AppData\Local\Temp\ccnf5SFB.s 			page 69


 2250 004c 03       		.uleb128 0x3
 2251 004d 9C060000 		.4byte	.LASF5
 2252 0051 03       		.byte	0x3
 2253 0052 3F       		.byte	0x3f
 2254 0053 57000000 		.4byte	0x57
 2255 0057 02       		.uleb128 0x2
 2256 0058 04       		.byte	0x4
 2257 0059 05       		.byte	0x5
 2258 005a A8020000 		.4byte	.LASF6
 2259 005e 03       		.uleb128 0x3
 2260 005f 7B060000 		.4byte	.LASF7
 2261 0063 03       		.byte	0x3
 2262 0064 41       		.byte	0x41
 2263 0065 69000000 		.4byte	0x69
 2264 0069 02       		.uleb128 0x2
 2265 006a 04       		.byte	0x4
 2266 006b 07       		.byte	0x7
 2267 006c FF050000 		.4byte	.LASF8
 2268 0070 02       		.uleb128 0x2
 2269 0071 08       		.byte	0x8
 2270 0072 05       		.byte	0x5
 2271 0073 5C020000 		.4byte	.LASF9
 2272 0077 02       		.uleb128 0x2
 2273 0078 08       		.byte	0x8
 2274 0079 07       		.byte	0x7
 2275 007a 10040000 		.4byte	.LASF10
 2276 007e 04       		.uleb128 0x4
 2277 007f 04       		.byte	0x4
 2278 0080 05       		.byte	0x5
 2279 0081 696E7400 		.ascii	"int\000"
 2280 0085 02       		.uleb128 0x2
 2281 0086 04       		.byte	0x4
 2282 0087 07       		.byte	0x7
 2283 0088 58040000 		.4byte	.LASF11
 2284 008c 03       		.uleb128 0x3
 2285 008d B4010000 		.4byte	.LASF12
 2286 0091 04       		.byte	0x4
 2287 0092 18       		.byte	0x18
 2288 0093 2C000000 		.4byte	0x2c
 2289 0097 03       		.uleb128 0x3
 2290 0098 53050000 		.4byte	.LASF13
 2291 009c 04       		.byte	0x4
 2292 009d 2C       		.byte	0x2c
 2293 009e 4C000000 		.4byte	0x4c
 2294 00a2 03       		.uleb128 0x3
 2295 00a3 36040000 		.4byte	.LASF14
 2296 00a7 04       		.byte	0x4
 2297 00a8 30       		.byte	0x30
 2298 00a9 5E000000 		.4byte	0x5e
 2299 00ad 03       		.uleb128 0x3
 2300 00ae 9C000000 		.4byte	.LASF15
 2301 00b2 05       		.byte	0x5
 2302 00b3 D8       		.byte	0xd8
 2303 00b4 85000000 		.4byte	0x85
 2304 00b8 02       		.uleb128 0x2
 2305 00b9 08       		.byte	0x8
 2306 00ba 04       		.byte	0x4
ARM GAS  C:\Users\adris\AppData\Local\Temp\ccnf5SFB.s 			page 70


 2307 00bb 5F030000 		.4byte	.LASF16
 2308 00bf 02       		.uleb128 0x2
 2309 00c0 04       		.byte	0x4
 2310 00c1 07       		.byte	0x7
 2311 00c2 A3000000 		.4byte	.LASF17
 2312 00c6 05       		.uleb128 0x5
 2313 00c7 04       		.byte	0x4
 2314 00c8 02       		.uleb128 0x2
 2315 00c9 01       		.byte	0x1
 2316 00ca 08       		.byte	0x8
 2317 00cb 5F080000 		.4byte	.LASF18
 2318 00cf 02       		.uleb128 0x2
 2319 00d0 04       		.byte	0x4
 2320 00d1 04       		.byte	0x4
 2321 00d2 39020000 		.4byte	.LASF19
 2322 00d6 02       		.uleb128 0x2
 2323 00d7 08       		.byte	0x8
 2324 00d8 04       		.byte	0x4
 2325 00d9 2C060000 		.4byte	.LASF20
 2326 00dd 03       		.uleb128 0x3
 2327 00de 65040000 		.4byte	.LASF21
 2328 00e2 02       		.byte	0x2
 2329 00e3 38       		.byte	0x38
 2330 00e4 57000000 		.4byte	0x57
 2331 00e8 03       		.uleb128 0x3
 2332 00e9 81050000 		.4byte	.LASF22
 2333 00ed 02       		.byte	0x2
 2334 00ee 39       		.byte	0x39
 2335 00ef 69000000 		.4byte	0x69
 2336 00f3 03       		.uleb128 0x3
 2337 00f4 8A040000 		.4byte	.LASF23
 2338 00f8 02       		.byte	0x2
 2339 00f9 3F       		.byte	0x3f
 2340 00fa A2000000 		.4byte	0xa2
 2341 00fe 06       		.uleb128 0x6
 2342 00ff 04       		.byte	0x4
 2343 0100 8C000000 		.4byte	0x8c
 2344 0104 03       		.uleb128 0x3
 2345 0105 C3000000 		.4byte	.LASF24
 2346 0109 06       		.byte	0x6
 2347 010a 3D       		.byte	0x3d
 2348 010b C6000000 		.4byte	0xc6
 2349 010f 07       		.uleb128 0x7
 2350 0110 01       		.byte	0x1
 2351 0111 37000000 		.4byte	0x37
 2352 0115 06       		.byte	0x6
 2353 0116 52       		.byte	0x52
 2354 0117 3A010000 		.4byte	0x13a
 2355 011b 08       		.uleb128 0x8
 2356 011c 20000000 		.4byte	.LASF25
 2357 0120 00       		.byte	0
 2358 0121 08       		.uleb128 0x8
 2359 0122 22020000 		.4byte	.LASF26
 2360 0126 01       		.byte	0x1
 2361 0127 08       		.uleb128 0x8
 2362 0128 CE060000 		.4byte	.LASF27
 2363 012c 02       		.byte	0x2
ARM GAS  C:\Users\adris\AppData\Local\Temp\ccnf5SFB.s 			page 71


 2364 012d 08       		.uleb128 0x8
 2365 012e 0B020000 		.4byte	.LASF28
 2366 0132 03       		.byte	0x3
 2367 0133 08       		.uleb128 0x8
 2368 0134 6B010000 		.4byte	.LASF29
 2369 0138 04       		.byte	0x4
 2370 0139 00       		.byte	0
 2371 013a 09       		.uleb128 0x9
 2372 013b 60000000 		.4byte	.LASF34
 2373 013f 08       		.byte	0x8
 2374 0140 06       		.byte	0x6
 2375 0141 5D       		.byte	0x5d
 2376 0142 5F010000 		.4byte	0x15f
 2377 0146 0A       		.uleb128 0xa
 2378 0147 27040000 		.4byte	.LASF30
 2379 014b 06       		.byte	0x6
 2380 014c 5F       		.byte	0x5f
 2381 014d DD000000 		.4byte	0xdd
 2382 0151 00       		.byte	0
 2383 0152 0A       		.uleb128 0xa
 2384 0153 81030000 		.4byte	.LASF31
 2385 0157 06       		.byte	0x6
 2386 0158 60       		.byte	0x60
 2387 0159 F3000000 		.4byte	0xf3
 2388 015d 04       		.byte	0x4
 2389 015e 00       		.byte	0
 2390 015f 03       		.uleb128 0x3
 2391 0160 88000000 		.4byte	.LASF32
 2392 0164 06       		.byte	0x6
 2393 0165 61       		.byte	0x61
 2394 0166 3A010000 		.4byte	0x13a
 2395 016a 03       		.uleb128 0x3
 2396 016b B9060000 		.4byte	.LASF33
 2397 016f 07       		.byte	0x7
 2398 0170 40       		.byte	0x40
 2399 0171 C6000000 		.4byte	0xc6
 2400 0175 09       		.uleb128 0x9
 2401 0176 CC050000 		.4byte	.LASF35
 2402 017a 24       		.byte	0x24
 2403 017b 01       		.byte	0x1
 2404 017c 8D       		.byte	0x8d
 2405 017d EE010000 		.4byte	0x1ee
 2406 0181 0A       		.uleb128 0xa
 2407 0182 E4040000 		.4byte	.LASF36
 2408 0186 01       		.byte	0x1
 2409 0187 8F       		.byte	0x8f
 2410 0188 EE010000 		.4byte	0x1ee
 2411 018c 00       		.byte	0
 2412 018d 0A       		.uleb128 0xa
 2413 018e EB070000 		.4byte	.LASF37
 2414 0192 01       		.byte	0x1
 2415 0193 90       		.byte	0x90
 2416 0194 EE010000 		.4byte	0x1ee
 2417 0198 04       		.byte	0x4
 2418 0199 0A       		.uleb128 0xa
 2419 019a 6B030000 		.4byte	.LASF38
 2420 019e 01       		.byte	0x1
ARM GAS  C:\Users\adris\AppData\Local\Temp\ccnf5SFB.s 			page 72


 2421 019f 91       		.byte	0x91
 2422 01a0 AD000000 		.4byte	0xad
 2423 01a4 08       		.byte	0x8
 2424 01a5 0A       		.uleb128 0xa
 2425 01a6 B9050000 		.4byte	.LASF39
 2426 01aa 01       		.byte	0x1
 2427 01ab 92       		.byte	0x92
 2428 01ac AD000000 		.4byte	0xad
 2429 01b0 0C       		.byte	0xc
 2430 01b1 0A       		.uleb128 0xa
 2431 01b2 D1030000 		.4byte	.LASF40
 2432 01b6 01       		.byte	0x1
 2433 01b7 93       		.byte	0x93
 2434 01b8 F3010000 		.4byte	0x1f3
 2435 01bc 10       		.byte	0x10
 2436 01bd 0A       		.uleb128 0xa
 2437 01be A6060000 		.4byte	.LASF41
 2438 01c2 01       		.byte	0x1
 2439 01c3 94       		.byte	0x94
 2440 01c4 F3010000 		.4byte	0x1f3
 2441 01c8 14       		.byte	0x14
 2442 01c9 0A       		.uleb128 0xa
 2443 01ca 3A010000 		.4byte	.LASF42
 2444 01ce 01       		.byte	0x1
 2445 01cf 95       		.byte	0x95
 2446 01d0 FE000000 		.4byte	0xfe
 2447 01d4 18       		.byte	0x18
 2448 01d5 0A       		.uleb128 0xa
 2449 01d6 70040000 		.4byte	.LASF43
 2450 01da 01       		.byte	0x1
 2451 01db 96       		.byte	0x96
 2452 01dc 8C000000 		.4byte	0x8c
 2453 01e0 1C       		.byte	0x1c
 2454 01e1 0A       		.uleb128 0xa
 2455 01e2 6C050000 		.4byte	.LASF44
 2456 01e6 01       		.byte	0x1
 2457 01e7 99       		.byte	0x99
 2458 01e8 E8000000 		.4byte	0xe8
 2459 01ec 20       		.byte	0x20
 2460 01ed 00       		.byte	0
 2461 01ee 0B       		.uleb128 0xb
 2462 01ef AD000000 		.4byte	0xad
 2463 01f3 0B       		.uleb128 0xb
 2464 01f4 04010000 		.4byte	0x104
 2465 01f8 03       		.uleb128 0x3
 2466 01f9 BF020000 		.4byte	.LASF45
 2467 01fd 01       		.byte	0x1
 2468 01fe 9B       		.byte	0x9b
 2469 01ff 75010000 		.4byte	0x175
 2470 0203 0C       		.uleb128 0xc
 2471 0204 F1070000 		.4byte	.LASF48
 2472 0208 02       		.byte	0x2
 2473 0209 98       		.byte	0x98
 2474 020a 03       		.byte	0x3
 2475 020b 1B020000 		.4byte	0x21b
 2476 020f 0D       		.uleb128 0xd
 2477 0210 22090000 		.4byte	.LASF46
ARM GAS  C:\Users\adris\AppData\Local\Temp\ccnf5SFB.s 			page 73


 2478 0214 02       		.byte	0x2
 2479 0215 9A       		.byte	0x9a
 2480 0216 A2000000 		.4byte	0xa2
 2481 021a 00       		.byte	0
 2482 021b 0E       		.uleb128 0xe
 2483 021c E5010000 		.4byte	.LASF120
 2484 0220 02       		.byte	0x2
 2485 0221 A8       		.byte	0xa8
 2486 0222 A2000000 		.4byte	0xa2
 2487 0226 03       		.byte	0x3
 2488 0227 42020000 		.4byte	0x242
 2489 022b 0D       		.uleb128 0xd
 2490 022c A2030000 		.4byte	.LASF47
 2491 0230 02       		.byte	0x2
 2492 0231 AA       		.byte	0xaa
 2493 0232 A2000000 		.4byte	0xa2
 2494 0236 0D       		.uleb128 0xd
 2495 0237 22090000 		.4byte	.LASF46
 2496 023b 02       		.byte	0x2
 2497 023c AA       		.byte	0xaa
 2498 023d A2000000 		.4byte	0xa2
 2499 0241 00       		.byte	0
 2500 0242 0C       		.uleb128 0xc
 2501 0243 D4040000 		.4byte	.LASF49
 2502 0247 02       		.byte	0x2
 2503 0248 BC       		.byte	0xbc
 2504 0249 03       		.byte	0x3
 2505 024a 5A020000 		.4byte	0x25a
 2506 024e 0F       		.uleb128 0xf
 2507 024f 49060000 		.4byte	.LASF121
 2508 0253 02       		.byte	0x2
 2509 0254 BC       		.byte	0xbc
 2510 0255 A2000000 		.4byte	0xa2
 2511 0259 00       		.byte	0
 2512 025a 10       		.uleb128 0x10
 2513 025b A3010000 		.4byte	.LASF55
 2514 025f 01       		.byte	0x1
 2515 0260 6104     		.2byte	0x461
 2516 0262 AD000000 		.4byte	0xad
 2517 0266 00000000 		.4byte	.LFB154
 2518 026a 12000000 		.4byte	.LFE154-.LFB154
 2519 026e 01       		.uleb128 0x1
 2520 026f 9C       		.byte	0x9c
 2521 0270 95020000 		.4byte	0x295
 2522 0274 11       		.uleb128 0x11
 2523 0275 15030000 		.4byte	.LASF50
 2524 0279 01       		.byte	0x1
 2525 027a 6104     		.2byte	0x461
 2526 027c A0020000 		.4byte	0x2a0
 2527 0280 00000000 		.4byte	.LLST0
 2528 0284 12       		.uleb128 0x12
 2529 0285 45000000 		.4byte	.LASF53
 2530 0289 01       		.byte	0x1
 2531 028a 6404     		.2byte	0x464
 2532 028c AD000000 		.4byte	0xad
 2533 0290 21000000 		.4byte	.LLST1
 2534 0294 00       		.byte	0
ARM GAS  C:\Users\adris\AppData\Local\Temp\ccnf5SFB.s 			page 74


 2535 0295 06       		.uleb128 0x6
 2536 0296 04       		.byte	0x4
 2537 0297 9B020000 		.4byte	0x29b
 2538 029b 13       		.uleb128 0x13
 2539 029c F8010000 		.4byte	0x1f8
 2540 02a0 13       		.uleb128 0x13
 2541 02a1 95020000 		.4byte	0x295
 2542 02a5 14       		.uleb128 0x14
 2543 02a6 42080000 		.4byte	.LASF122
 2544 02aa 01       		.byte	0x1
 2545 02ab 7504     		.2byte	0x475
 2546 02ad 00000000 		.4byte	.LFB155
 2547 02b1 46000000 		.4byte	.LFE155-.LFB155
 2548 02b5 01       		.uleb128 0x1
 2549 02b6 9C       		.byte	0x9c
 2550 02b7 81030000 		.4byte	0x381
 2551 02bb 11       		.uleb128 0x11
 2552 02bc 15030000 		.4byte	.LASF50
 2553 02c0 01       		.byte	0x1
 2554 02c1 7504     		.2byte	0x475
 2555 02c3 87030000 		.4byte	0x387
 2556 02c7 3F000000 		.4byte	.LLST2
 2557 02cb 11       		.uleb128 0x11
 2558 02cc 3A010000 		.4byte	.LASF42
 2559 02d0 01       		.byte	0x1
 2560 02d1 7604     		.2byte	0x476
 2561 02d3 8C030000 		.4byte	0x38c
 2562 02d7 5D000000 		.4byte	.LLST3
 2563 02db 11       		.uleb128 0x11
 2564 02dc 91030000 		.4byte	.LASF51
 2565 02e0 01       		.byte	0x1
 2566 02e1 7704     		.2byte	0x477
 2567 02e3 AD000000 		.4byte	0xad
 2568 02e7 7B000000 		.4byte	.LLST4
 2569 02eb 11       		.uleb128 0x11
 2570 02ec B9050000 		.4byte	.LASF39
 2571 02f0 01       		.byte	0x1
 2572 02f1 7804     		.2byte	0x478
 2573 02f3 AD000000 		.4byte	0xad
 2574 02f7 99000000 		.4byte	.LLST5
 2575 02fb 15       		.uleb128 0x15
 2576 02fc 5B050000 		.4byte	.LASF52
 2577 0300 01       		.byte	0x1
 2578 0301 7904     		.2byte	0x479
 2579 0303 DD000000 		.4byte	0xdd
 2580 0307 02       		.uleb128 0x2
 2581 0308 91       		.byte	0x91
 2582 0309 00       		.sleb128 0
 2583 030a 16       		.uleb128 0x16
 2584 030b 0A000000 		.4byte	.LBB77
 2585 030f 1E000000 		.4byte	.LBE77-.LBB77
 2586 0313 65030000 		.4byte	0x365
 2587 0317 17       		.uleb128 0x17
 2588 0318 9C020000 		.4byte	.LASF54
 2589 031c 01       		.byte	0x1
 2590 031d 8304     		.2byte	0x483
 2591 031f 91030000 		.4byte	0x391
ARM GAS  C:\Users\adris\AppData\Local\Temp\ccnf5SFB.s 			page 75


 2592 0323 55       		.byte	0x55
 2593 0324 18       		.uleb128 0x18
 2594 0325 03020000 		.4byte	0x203
 2595 0329 16000000 		.4byte	.LBB78
 2596 032d 12000000 		.4byte	.LBE78-.LBB78
 2597 0331 01       		.byte	0x1
 2598 0332 8404     		.2byte	0x484
 2599 0334 48030000 		.4byte	0x348
 2600 0338 19       		.uleb128 0x19
 2601 0339 16000000 		.4byte	.LBB79
 2602 033d 12000000 		.4byte	.LBE79-.LBB79
 2603 0341 1A       		.uleb128 0x1a
 2604 0342 0F020000 		.4byte	0x20f
 2605 0346 00       		.byte	0
 2606 0347 00       		.byte	0
 2607 0348 1B       		.uleb128 0x1b
 2608 0349 12000000 		.4byte	.LVL9
 2609 034d A9150000 		.4byte	0x15a9
 2610 0351 1C       		.uleb128 0x1c
 2611 0352 01       		.uleb128 0x1
 2612 0353 50       		.byte	0x50
 2613 0354 02       		.uleb128 0x2
 2614 0355 75       		.byte	0x75
 2615 0356 00       		.sleb128 0
 2616 0357 1C       		.uleb128 0x1c
 2617 0358 01       		.uleb128 0x1
 2618 0359 51       		.byte	0x51
 2619 035a 02       		.uleb128 0x2
 2620 035b 08       		.byte	0x8
 2621 035c 55       		.byte	0x55
 2622 035d 1C       		.uleb128 0x1c
 2623 035e 01       		.uleb128 0x1
 2624 035f 52       		.byte	0x52
 2625 0360 02       		.uleb128 0x2
 2626 0361 76       		.byte	0x76
 2627 0362 00       		.sleb128 0
 2628 0363 00       		.byte	0
 2629 0364 00       		.byte	0
 2630 0365 1B       		.uleb128 0x1b
 2631 0366 32000000 		.4byte	.LVL11
 2632 036a B4150000 		.4byte	0x15b4
 2633 036e 1C       		.uleb128 0x1c
 2634 036f 01       		.uleb128 0x1
 2635 0370 50       		.byte	0x50
 2636 0371 02       		.uleb128 0x2
 2637 0372 74       		.byte	0x74
 2638 0373 00       		.sleb128 0
 2639 0374 1C       		.uleb128 0x1c
 2640 0375 01       		.uleb128 0x1
 2641 0376 51       		.byte	0x51
 2642 0377 01       		.uleb128 0x1
 2643 0378 30       		.byte	0x30
 2644 0379 1C       		.uleb128 0x1c
 2645 037a 01       		.uleb128 0x1
 2646 037b 52       		.byte	0x52
 2647 037c 02       		.uleb128 0x2
 2648 037d 08       		.byte	0x8
ARM GAS  C:\Users\adris\AppData\Local\Temp\ccnf5SFB.s 			page 76


 2649 037e 24       		.byte	0x24
 2650 037f 00       		.byte	0
 2651 0380 00       		.byte	0
 2652 0381 06       		.uleb128 0x6
 2653 0382 04       		.byte	0x4
 2654 0383 F8010000 		.4byte	0x1f8
 2655 0387 13       		.uleb128 0x13
 2656 0388 81030000 		.4byte	0x381
 2657 038c 13       		.uleb128 0x13
 2658 038d FE000000 		.4byte	0xfe
 2659 0391 13       		.uleb128 0x13
 2660 0392 DD000000 		.4byte	0xdd
 2661 0396 10       		.uleb128 0x10
 2662 0397 33060000 		.4byte	.LASF56
 2663 039b 01       		.byte	0x1
 2664 039c FC03     		.2byte	0x3fc
 2665 039e AD000000 		.4byte	0xad
 2666 03a2 00000000 		.4byte	.LFB152
 2667 03a6 8C000000 		.4byte	.LFE152-.LFB152
 2668 03aa 01       		.uleb128 0x1
 2669 03ab 9C       		.byte	0x9c
 2670 03ac 98040000 		.4byte	0x498
 2671 03b0 11       		.uleb128 0x11
 2672 03b1 15030000 		.4byte	.LASF50
 2673 03b5 01       		.byte	0x1
 2674 03b6 FC03     		.2byte	0x3fc
 2675 03b8 87030000 		.4byte	0x387
 2676 03bc B7000000 		.4byte	.LLST6
 2677 03c0 11       		.uleb128 0x11
 2678 03c1 80080000 		.4byte	.LASF57
 2679 03c5 01       		.byte	0x1
 2680 03c6 FC03     		.2byte	0x3fc
 2681 03c8 98040000 		.4byte	0x498
 2682 03cc D5000000 		.4byte	.LLST7
 2683 03d0 11       		.uleb128 0x11
 2684 03d1 45000000 		.4byte	.LASF53
 2685 03d5 01       		.byte	0x1
 2686 03d6 FC03     		.2byte	0x3fc
 2687 03d8 AD000000 		.4byte	0xad
 2688 03dc F3000000 		.4byte	.LLST8
 2689 03e0 12       		.uleb128 0x12
 2690 03e1 18010000 		.4byte	.LASF58
 2691 03e5 01       		.byte	0x1
 2692 03e6 FE03     		.2byte	0x3fe
 2693 03e8 AD000000 		.4byte	0xad
 2694 03ec 11010000 		.4byte	.LLST9
 2695 03f0 1D       		.uleb128 0x1d
 2696 03f1 5E010000 		.4byte	.LASF59
 2697 03f5 01       		.byte	0x1
 2698 03f6 FE03     		.2byte	0x3fe
 2699 03f8 AD000000 		.4byte	0xad
 2700 03fc 01       		.uleb128 0x1
 2701 03fd 58       		.byte	0x58
 2702 03fe 18       		.uleb128 0x18
 2703 03ff 03020000 		.4byte	0x203
 2704 0403 02000000 		.4byte	.LBB80
 2705 0407 12000000 		.4byte	.LBE80-.LBB80
ARM GAS  C:\Users\adris\AppData\Local\Temp\ccnf5SFB.s 			page 77


 2706 040b 01       		.byte	0x1
 2707 040c 0004     		.2byte	0x400
 2708 040e 22040000 		.4byte	0x422
 2709 0412 19       		.uleb128 0x19
 2710 0413 02000000 		.4byte	.LBB81
 2711 0417 12000000 		.4byte	.LBE81-.LBB81
 2712 041b 1A       		.uleb128 0x1a
 2713 041c 0F020000 		.4byte	0x20f
 2714 0420 00       		.byte	0
 2715 0421 00       		.byte	0
 2716 0422 18       		.uleb128 0x18
 2717 0423 03020000 		.4byte	0x203
 2718 0427 30000000 		.4byte	.LBB82
 2719 042b 16000000 		.4byte	.LBE82-.LBB82
 2720 042f 01       		.byte	0x1
 2721 0430 0A04     		.2byte	0x40a
 2722 0432 46040000 		.4byte	0x446
 2723 0436 19       		.uleb128 0x19
 2724 0437 30000000 		.4byte	.LBB83
 2725 043b 16000000 		.4byte	.LBE83-.LBB83
 2726 043f 1A       		.uleb128 0x1a
 2727 0440 0F020000 		.4byte	0x20f
 2728 0444 00       		.byte	0
 2729 0445 00       		.byte	0
 2730 0446 18       		.uleb128 0x18
 2731 0447 03020000 		.4byte	0x203
 2732 044b 5E000000 		.4byte	.LBB84
 2733 044f 12000000 		.4byte	.LBE84-.LBB84
 2734 0453 01       		.byte	0x1
 2735 0454 1204     		.2byte	0x412
 2736 0456 6A040000 		.4byte	0x46a
 2737 045a 19       		.uleb128 0x19
 2738 045b 5E000000 		.4byte	.LBB85
 2739 045f 12000000 		.4byte	.LBE85-.LBB85
 2740 0463 1A       		.uleb128 0x1a
 2741 0464 0F020000 		.4byte	0x20f
 2742 0468 00       		.byte	0
 2743 0469 00       		.byte	0
 2744 046a 1E       		.uleb128 0x1e
 2745 046b 50000000 		.4byte	.LVL19
 2746 046f BD150000 		.4byte	0x15bd
 2747 0473 84040000 		.4byte	0x484
 2748 0477 1C       		.uleb128 0x1c
 2749 0478 01       		.uleb128 0x1
 2750 0479 51       		.byte	0x51
 2751 047a 02       		.uleb128 0x2
 2752 047b 75       		.byte	0x75
 2753 047c 00       		.sleb128 0
 2754 047d 1C       		.uleb128 0x1c
 2755 047e 01       		.uleb128 0x1
 2756 047f 52       		.byte	0x52
 2757 0480 02       		.uleb128 0x2
 2758 0481 78       		.byte	0x78
 2759 0482 00       		.sleb128 0
 2760 0483 00       		.byte	0
 2761 0484 1B       		.uleb128 0x1b
 2762 0485 7A000000 		.4byte	.LVL21
ARM GAS  C:\Users\adris\AppData\Local\Temp\ccnf5SFB.s 			page 78


 2763 0489 BD150000 		.4byte	0x15bd
 2764 048d 1C       		.uleb128 0x1c
 2765 048e 01       		.uleb128 0x1
 2766 048f 51       		.byte	0x51
 2767 0490 05       		.uleb128 0x5
 2768 0491 75       		.byte	0x75
 2769 0492 00       		.sleb128 0
 2770 0493 78       		.byte	0x78
 2771 0494 00       		.sleb128 0
 2772 0495 22       		.byte	0x22
 2773 0496 00       		.byte	0
 2774 0497 00       		.byte	0
 2775 0498 06       		.uleb128 0x6
 2776 0499 04       		.byte	0x4
 2777 049a 9E040000 		.4byte	0x49e
 2778 049e 13       		.uleb128 0x13
 2779 049f 8C000000 		.4byte	0x8c
 2780 04a3 10       		.uleb128 0x10
 2781 04a4 24030000 		.4byte	.LASF60
 2782 04a8 01       		.byte	0x1
 2783 04a9 7F02     		.2byte	0x27f
 2784 04ab AD000000 		.4byte	0xad
 2785 04af 00000000 		.4byte	.LFB144
 2786 04b3 52000000 		.4byte	.LFE144-.LFB144
 2787 04b7 01       		.uleb128 0x1
 2788 04b8 9C       		.byte	0x9c
 2789 04b9 5C050000 		.4byte	0x55c
 2790 04bd 11       		.uleb128 0x11
 2791 04be 15030000 		.4byte	.LASF50
 2792 04c2 01       		.byte	0x1
 2793 04c3 7F02     		.2byte	0x27f
 2794 04c5 87030000 		.4byte	0x387
 2795 04c9 2F010000 		.4byte	.LLST10
 2796 04cd 11       		.uleb128 0x11
 2797 04ce 7F000000 		.4byte	.LASF61
 2798 04d2 01       		.byte	0x1
 2799 04d3 8002     		.2byte	0x280
 2800 04d5 5C050000 		.4byte	0x55c
 2801 04d9 63010000 		.4byte	.LLST11
 2802 04dd 11       		.uleb128 0x11
 2803 04de 29010000 		.4byte	.LASF62
 2804 04e2 01       		.byte	0x1
 2805 04e3 8102     		.2byte	0x281
 2806 04e5 AD000000 		.4byte	0xad
 2807 04e9 97010000 		.4byte	.LLST12
 2808 04ed 11       		.uleb128 0x11
 2809 04ee 8D050000 		.4byte	.LASF63
 2810 04f2 01       		.byte	0x1
 2811 04f3 8202     		.2byte	0x282
 2812 04f5 AD000000 		.4byte	0xad
 2813 04f9 F2010000 		.4byte	.LLST13
 2814 04fd 15       		.uleb128 0x15
 2815 04fe 6A020000 		.4byte	.LASF64
 2816 0502 01       		.byte	0x1
 2817 0503 8302     		.2byte	0x283
 2818 0505 AD000000 		.4byte	0xad
 2819 0509 02       		.uleb128 0x2
ARM GAS  C:\Users\adris\AppData\Local\Temp\ccnf5SFB.s 			page 79


 2820 050a 91       		.byte	0x91
 2821 050b 00       		.sleb128 0
 2822 050c 12       		.uleb128 0x12
 2823 050d 00000000 		.4byte	.LASF65
 2824 0511 01       		.byte	0x1
 2825 0512 8502     		.2byte	0x285
 2826 0514 DD000000 		.4byte	0xdd
 2827 0518 69020000 		.4byte	.LLST14
 2828 051c 12       		.uleb128 0x12
 2829 051d 04070000 		.4byte	.LASF66
 2830 0521 01       		.byte	0x1
 2831 0522 8602     		.2byte	0x286
 2832 0524 AD000000 		.4byte	0xad
 2833 0528 9F020000 		.4byte	.LLST15
 2834 052c 1E       		.uleb128 0x1e
 2835 052d 34000000 		.4byte	.LVL35
 2836 0531 96030000 		.4byte	0x396
 2837 0535 45050000 		.4byte	0x545
 2838 0539 1C       		.uleb128 0x1c
 2839 053a 01       		.uleb128 0x1
 2840 053b 51       		.byte	0x51
 2841 053c 02       		.uleb128 0x2
 2842 053d 91       		.byte	0x91
 2843 053e 6C       		.sleb128 -20
 2844 053f 1C       		.uleb128 0x1c
 2845 0540 01       		.uleb128 0x1
 2846 0541 52       		.byte	0x52
 2847 0542 01       		.uleb128 0x1
 2848 0543 34       		.byte	0x34
 2849 0544 00       		.byte	0
 2850 0545 1B       		.uleb128 0x1b
 2851 0546 4A000000 		.4byte	.LVL40
 2852 054a 96030000 		.4byte	0x396
 2853 054e 1C       		.uleb128 0x1c
 2854 054f 01       		.uleb128 0x1
 2855 0550 50       		.byte	0x50
 2856 0551 02       		.uleb128 0x2
 2857 0552 74       		.byte	0x74
 2858 0553 00       		.sleb128 0
 2859 0554 1C       		.uleb128 0x1c
 2860 0555 01       		.uleb128 0x1
 2861 0556 51       		.byte	0x51
 2862 0557 02       		.uleb128 0x2
 2863 0558 75       		.byte	0x75
 2864 0559 00       		.sleb128 0
 2865 055a 00       		.byte	0
 2866 055b 00       		.byte	0
 2867 055c 06       		.uleb128 0x6
 2868 055d 04       		.byte	0x4
 2869 055e 62050000 		.4byte	0x562
 2870 0562 1F       		.uleb128 0x1f
 2871 0563 10       		.uleb128 0x10
 2872 0564 AC000000 		.4byte	.LASF67
 2873 0568 01       		.byte	0x1
 2874 0569 2A04     		.2byte	0x42a
 2875 056b AD000000 		.4byte	0xad
 2876 056f 00000000 		.4byte	.LFB153
ARM GAS  C:\Users\adris\AppData\Local\Temp\ccnf5SFB.s 			page 80


 2877 0573 96000000 		.4byte	.LFE153-.LFB153
 2878 0577 01       		.uleb128 0x1
 2879 0578 9C       		.byte	0x9c
 2880 0579 8E060000 		.4byte	0x68e
 2881 057d 11       		.uleb128 0x11
 2882 057e 15030000 		.4byte	.LASF50
 2883 0582 01       		.byte	0x1
 2884 0583 2A04     		.2byte	0x42a
 2885 0585 81030000 		.4byte	0x381
 2886 0589 BD020000 		.4byte	.LLST16
 2887 058d 11       		.uleb128 0x11
 2888 058e 80080000 		.4byte	.LASF57
 2889 0592 01       		.byte	0x1
 2890 0593 2A04     		.2byte	0x42a
 2891 0595 FE000000 		.4byte	0xfe
 2892 0599 E9020000 		.4byte	.LLST17
 2893 059d 11       		.uleb128 0x11
 2894 059e F5050000 		.4byte	.LASF68
 2895 05a2 01       		.byte	0x1
 2896 05a3 2A04     		.2byte	0x42a
 2897 05a5 AD000000 		.4byte	0xad
 2898 05a9 15030000 		.4byte	.LLST18
 2899 05ad 11       		.uleb128 0x11
 2900 05ae F5000000 		.4byte	.LASF69
 2901 05b2 01       		.byte	0x1
 2902 05b3 2A04     		.2byte	0x42a
 2903 05b5 AD000000 		.4byte	0xad
 2904 05b9 41030000 		.4byte	.LLST19
 2905 05bd 1D       		.uleb128 0x1d
 2906 05be 45000000 		.4byte	.LASF53
 2907 05c2 01       		.byte	0x1
 2908 05c3 2C04     		.2byte	0x42c
 2909 05c5 AD000000 		.4byte	0xad
 2910 05c9 01       		.uleb128 0x1
 2911 05ca 58       		.byte	0x58
 2912 05cb 12       		.uleb128 0x12
 2913 05cc 5E010000 		.4byte	.LASF59
 2914 05d0 01       		.byte	0x1
 2915 05d1 2C04     		.2byte	0x42c
 2916 05d3 AD000000 		.4byte	0xad
 2917 05d7 62030000 		.4byte	.LLST20
 2918 05db 12       		.uleb128 0x12
 2919 05dc 2E070000 		.4byte	.LASF70
 2920 05e0 01       		.byte	0x1
 2921 05e1 2C04     		.2byte	0x42c
 2922 05e3 AD000000 		.4byte	0xad
 2923 05e7 75030000 		.4byte	.LLST21
 2924 05eb 18       		.uleb128 0x18
 2925 05ec 03020000 		.4byte	0x203
 2926 05f0 22000000 		.4byte	.LBB86
 2927 05f4 12000000 		.4byte	.LBE86-.LBB86
 2928 05f8 01       		.byte	0x1
 2929 05f9 3C04     		.2byte	0x43c
 2930 05fb 0F060000 		.4byte	0x60f
 2931 05ff 19       		.uleb128 0x19
 2932 0600 22000000 		.4byte	.LBB87
 2933 0604 12000000 		.4byte	.LBE87-.LBB87
ARM GAS  C:\Users\adris\AppData\Local\Temp\ccnf5SFB.s 			page 81


 2934 0608 1A       		.uleb128 0x1a
 2935 0609 0F020000 		.4byte	0x20f
 2936 060d 00       		.byte	0
 2937 060e 00       		.byte	0
 2938 060f 18       		.uleb128 0x18
 2939 0610 03020000 		.4byte	0x203
 2940 0614 3A000000 		.4byte	.LBB88
 2941 0618 18000000 		.4byte	.LBE88-.LBB88
 2942 061c 01       		.byte	0x1
 2943 061d 3D04     		.2byte	0x43d
 2944 061f 33060000 		.4byte	0x633
 2945 0623 19       		.uleb128 0x19
 2946 0624 3A000000 		.4byte	.LBB89
 2947 0628 18000000 		.4byte	.LBE89-.LBB89
 2948 062c 1A       		.uleb128 0x1a
 2949 062d 0F020000 		.4byte	0x20f
 2950 0631 00       		.byte	0
 2951 0632 00       		.byte	0
 2952 0633 18       		.uleb128 0x18
 2953 0634 03020000 		.4byte	0x203
 2954 0638 66000000 		.4byte	.LBB90
 2955 063c 12000000 		.4byte	.LBE90-.LBB90
 2956 0640 01       		.byte	0x1
 2957 0641 4504     		.2byte	0x445
 2958 0643 57060000 		.4byte	0x657
 2959 0647 19       		.uleb128 0x19
 2960 0648 66000000 		.4byte	.LBB91
 2961 064c 12000000 		.4byte	.LBE91-.LBB91
 2962 0650 1A       		.uleb128 0x1a
 2963 0651 0F020000 		.4byte	0x20f
 2964 0655 00       		.byte	0
 2965 0656 00       		.byte	0
 2966 0657 1E       		.uleb128 0x1e
 2967 0658 5E000000 		.4byte	.LVL53
 2968 065c BD150000 		.4byte	0x15bd
 2969 0660 71060000 		.4byte	0x671
 2970 0664 1C       		.uleb128 0x1c
 2971 0665 01       		.uleb128 0x1
 2972 0666 50       		.byte	0x50
 2973 0667 02       		.uleb128 0x2
 2974 0668 76       		.byte	0x76
 2975 0669 00       		.sleb128 0
 2976 066a 1C       		.uleb128 0x1c
 2977 066b 01       		.uleb128 0x1
 2978 066c 52       		.byte	0x52
 2979 066d 02       		.uleb128 0x2
 2980 066e 77       		.byte	0x77
 2981 066f 00       		.sleb128 0
 2982 0670 00       		.byte	0
 2983 0671 1B       		.uleb128 0x1b
 2984 0672 84000000 		.4byte	.LVL55
 2985 0676 BD150000 		.4byte	0x15bd
 2986 067a 1C       		.uleb128 0x1c
 2987 067b 01       		.uleb128 0x1
 2988 067c 50       		.byte	0x50
 2989 067d 05       		.uleb128 0x5
 2990 067e 76       		.byte	0x76
ARM GAS  C:\Users\adris\AppData\Local\Temp\ccnf5SFB.s 			page 82


 2991 067f 00       		.sleb128 0
 2992 0680 77       		.byte	0x77
 2993 0681 00       		.sleb128 0
 2994 0682 22       		.byte	0x22
 2995 0683 1C       		.uleb128 0x1c
 2996 0684 01       		.uleb128 0x1
 2997 0685 52       		.byte	0x52
 2998 0686 05       		.uleb128 0x5
 2999 0687 78       		.byte	0x78
 3000 0688 00       		.sleb128 0
 3001 0689 77       		.byte	0x77
 3002 068a 00       		.sleb128 0
 3003 068b 1C       		.byte	0x1c
 3004 068c 00       		.byte	0
 3005 068d 00       		.byte	0
 3006 068e 10       		.uleb128 0x10
 3007 068f BC010000 		.4byte	.LASF71
 3008 0693 01       		.byte	0x1
 3009 0694 5403     		.2byte	0x354
 3010 0696 AD000000 		.4byte	0xad
 3011 069a 00000000 		.4byte	.LFB147
 3012 069e 44000000 		.4byte	.LFE147-.LFB147
 3013 06a2 01       		.uleb128 0x1
 3014 06a3 9C       		.byte	0x9c
 3015 06a4 67070000 		.4byte	0x767
 3016 06a8 11       		.uleb128 0x11
 3017 06a9 15030000 		.4byte	.LASF50
 3018 06ad 01       		.byte	0x1
 3019 06ae 5403     		.2byte	0x354
 3020 06b0 81030000 		.4byte	0x381
 3021 06b4 88030000 		.4byte	.LLST22
 3022 06b8 11       		.uleb128 0x11
 3023 06b9 56030000 		.4byte	.LASF72
 3024 06bd 01       		.byte	0x1
 3025 06be 5503     		.2byte	0x355
 3026 06c0 C6000000 		.4byte	0xc6
 3027 06c4 BC030000 		.4byte	.LLST23
 3028 06c8 11       		.uleb128 0x11
 3029 06c9 0D000000 		.4byte	.LASF73
 3030 06cd 01       		.byte	0x1
 3031 06ce 5603     		.2byte	0x356
 3032 06d0 AD000000 		.4byte	0xad
 3033 06d4 F0030000 		.4byte	.LLST24
 3034 06d8 11       		.uleb128 0x11
 3035 06d9 F5000000 		.4byte	.LASF69
 3036 06dd 01       		.byte	0x1
 3037 06de 5703     		.2byte	0x357
 3038 06e0 AD000000 		.4byte	0xad
 3039 06e4 24040000 		.4byte	.LLST25
 3040 06e8 15       		.uleb128 0x15
 3041 06e9 11060000 		.4byte	.LASF74
 3042 06ed 01       		.byte	0x1
 3043 06ee 5803     		.2byte	0x358
 3044 06f0 AD000000 		.4byte	0xad
 3045 06f4 02       		.uleb128 0x2
 3046 06f5 91       		.byte	0x91
 3047 06f6 00       		.sleb128 0
ARM GAS  C:\Users\adris\AppData\Local\Temp\ccnf5SFB.s 			page 83


 3048 06f7 12       		.uleb128 0x12
 3049 06f8 27080000 		.4byte	.LASF75
 3050 06fc 01       		.byte	0x1
 3051 06fd 5A03     		.2byte	0x35a
 3052 06ff AD000000 		.4byte	0xad
 3053 0703 58040000 		.4byte	.LLST26
 3054 0707 1D       		.uleb128 0x1d
 3055 0708 D5010000 		.4byte	.LASF76
 3056 070c 01       		.byte	0x1
 3057 070d 5A03     		.2byte	0x35a
 3058 070f AD000000 		.4byte	0xad
 3059 0713 01       		.uleb128 0x1
 3060 0714 50       		.byte	0x50
 3061 0715 1D       		.uleb128 0x1d
 3062 0716 05010000 		.4byte	.LASF77
 3063 071a 01       		.byte	0x1
 3064 071b 5A03     		.2byte	0x35a
 3065 071d AD000000 		.4byte	0xad
 3066 0721 02       		.uleb128 0x2
 3067 0722 91       		.byte	0x91
 3068 0723 5C       		.sleb128 -36
 3069 0724 1E       		.uleb128 0x1e
 3070 0725 1E000000 		.4byte	.LVL63
 3071 0729 63050000 		.4byte	0x563
 3072 072d 4A070000 		.4byte	0x74a
 3073 0731 1C       		.uleb128 0x1c
 3074 0732 01       		.uleb128 0x1
 3075 0733 50       		.byte	0x50
 3076 0734 02       		.uleb128 0x2
 3077 0735 75       		.byte	0x75
 3078 0736 00       		.sleb128 0
 3079 0737 1C       		.uleb128 0x1c
 3080 0738 01       		.uleb128 0x1
 3081 0739 51       		.byte	0x51
 3082 073a 02       		.uleb128 0x2
 3083 073b 91       		.byte	0x91
 3084 073c 5C       		.sleb128 -36
 3085 073d 1C       		.uleb128 0x1c
 3086 073e 01       		.uleb128 0x1
 3087 073f 52       		.byte	0x52
 3088 0740 02       		.uleb128 0x2
 3089 0741 76       		.byte	0x76
 3090 0742 00       		.sleb128 0
 3091 0743 1C       		.uleb128 0x1c
 3092 0744 01       		.uleb128 0x1
 3093 0745 53       		.byte	0x53
 3094 0746 02       		.uleb128 0x2
 3095 0747 74       		.byte	0x74
 3096 0748 00       		.sleb128 0
 3097 0749 00       		.byte	0
 3098 074a 1B       		.uleb128 0x1b
 3099 074b 3E000000 		.4byte	.LVL67
 3100 074f 63050000 		.4byte	0x563
 3101 0753 1C       		.uleb128 0x1c
 3102 0754 01       		.uleb128 0x1
 3103 0755 50       		.byte	0x50
 3104 0756 02       		.uleb128 0x2
ARM GAS  C:\Users\adris\AppData\Local\Temp\ccnf5SFB.s 			page 84


 3105 0757 75       		.byte	0x75
 3106 0758 00       		.sleb128 0
 3107 0759 1C       		.uleb128 0x1c
 3108 075a 01       		.uleb128 0x1
 3109 075b 51       		.byte	0x51
 3110 075c 02       		.uleb128 0x2
 3111 075d 77       		.byte	0x77
 3112 075e 00       		.sleb128 0
 3113 075f 1C       		.uleb128 0x1c
 3114 0760 01       		.uleb128 0x1
 3115 0761 53       		.byte	0x53
 3116 0762 02       		.uleb128 0x2
 3117 0763 74       		.byte	0x74
 3118 0764 00       		.sleb128 0
 3119 0765 00       		.byte	0
 3120 0766 00       		.byte	0
 3121 0767 20       		.uleb128 0x20
 3122 0768 2A000000 		.4byte	.LASF80
 3123 076c 01       		.byte	0x1
 3124 076d DB       		.byte	0xdb
 3125 076e 6A010000 		.4byte	0x16a
 3126 0772 00000000 		.4byte	.LFB136
 3127 0776 58000000 		.4byte	.LFE136-.LFB136
 3128 077a 01       		.uleb128 0x1
 3129 077b 9C       		.byte	0x9c
 3130 077c 40080000 		.4byte	0x840
 3131 0780 21       		.uleb128 0x21
 3132 0781 91030000 		.4byte	.LASF51
 3133 0785 01       		.byte	0x1
 3134 0786 DB       		.byte	0xdb
 3135 0787 AD000000 		.4byte	0xad
 3136 078b 6B040000 		.4byte	.LLST27
 3137 078f 21       		.uleb128 0x21
 3138 0790 B9050000 		.4byte	.LASF39
 3139 0794 01       		.byte	0x1
 3140 0795 DB       		.byte	0xdb
 3141 0796 AD000000 		.4byte	0xad
 3142 079a 89040000 		.4byte	.LLST28
 3143 079e 21       		.uleb128 0x21
 3144 079f 5B050000 		.4byte	.LASF52
 3145 07a3 01       		.byte	0x1
 3146 07a4 DB       		.byte	0xdb
 3147 07a5 DD000000 		.4byte	0xdd
 3148 07a9 A7040000 		.4byte	.LLST29
 3149 07ad 22       		.uleb128 0x22
 3150 07ae 02030000 		.4byte	.LASF78
 3151 07b2 01       		.byte	0x1
 3152 07b3 DD       		.byte	0xdd
 3153 07b4 FE000000 		.4byte	0xfe
 3154 07b8 C5040000 		.4byte	.LLST30
 3155 07bc 23       		.uleb128 0x23
 3156 07bd 03020000 		.4byte	0x203
 3157 07c1 04000000 		.4byte	.LBB92
 3158 07c5 12000000 		.4byte	.LBE92-.LBB92
 3159 07c9 01       		.byte	0x1
 3160 07ca E3       		.byte	0xe3
 3161 07cb DF070000 		.4byte	0x7df
ARM GAS  C:\Users\adris\AppData\Local\Temp\ccnf5SFB.s 			page 85


 3162 07cf 19       		.uleb128 0x19
 3163 07d0 04000000 		.4byte	.LBB93
 3164 07d4 12000000 		.4byte	.LBE93-.LBB93
 3165 07d8 1A       		.uleb128 0x1a
 3166 07d9 0F020000 		.4byte	0x20f
 3167 07dd 00       		.byte	0
 3168 07de 00       		.byte	0
 3169 07df 23       		.uleb128 0x23
 3170 07e0 03020000 		.4byte	0x203
 3171 07e4 22000000 		.4byte	.LBB94
 3172 07e8 12000000 		.4byte	.LBE94-.LBB94
 3173 07ec 01       		.byte	0x1
 3174 07ed E4       		.byte	0xe4
 3175 07ee 02080000 		.4byte	0x802
 3176 07f2 19       		.uleb128 0x19
 3177 07f3 22000000 		.4byte	.LBB95
 3178 07f7 12000000 		.4byte	.LBE95-.LBB95
 3179 07fb 1A       		.uleb128 0x1a
 3180 07fc 0F020000 		.4byte	0x20f
 3181 0800 00       		.byte	0
 3182 0801 00       		.byte	0
 3183 0802 1E       		.uleb128 0x1e
 3184 0803 40000000 		.4byte	.LVL73
 3185 0807 C6150000 		.4byte	0x15c6
 3186 080b 16080000 		.4byte	0x816
 3187 080f 1C       		.uleb128 0x1c
 3188 0810 01       		.uleb128 0x1
 3189 0811 50       		.byte	0x50
 3190 0812 02       		.uleb128 0x2
 3191 0813 76       		.byte	0x76
 3192 0814 24       		.sleb128 36
 3193 0815 00       		.byte	0
 3194 0816 1B       		.uleb128 0x1b
 3195 0817 52000000 		.4byte	.LVL74
 3196 081b A5020000 		.4byte	0x2a5
 3197 081f 1C       		.uleb128 0x1c
 3198 0820 01       		.uleb128 0x1
 3199 0821 50       		.byte	0x50
 3200 0822 02       		.uleb128 0x2
 3201 0823 75       		.byte	0x75
 3202 0824 00       		.sleb128 0
 3203 0825 1C       		.uleb128 0x1c
 3204 0826 01       		.uleb128 0x1
 3205 0827 51       		.byte	0x51
 3206 0828 02       		.uleb128 0x2
 3207 0829 75       		.byte	0x75
 3208 082a 24       		.sleb128 36
 3209 082b 1C       		.uleb128 0x1c
 3210 082c 01       		.uleb128 0x1
 3211 082d 52       		.byte	0x52
 3212 082e 02       		.uleb128 0x2
 3213 082f 76       		.byte	0x76
 3214 0830 00       		.sleb128 0
 3215 0831 1C       		.uleb128 0x1c
 3216 0832 01       		.uleb128 0x1
 3217 0833 53       		.byte	0x53
 3218 0834 02       		.uleb128 0x2
ARM GAS  C:\Users\adris\AppData\Local\Temp\ccnf5SFB.s 			page 86


 3219 0835 74       		.byte	0x74
 3220 0836 00       		.sleb128 0
 3221 0837 1C       		.uleb128 0x1c
 3222 0838 02       		.uleb128 0x2
 3223 0839 7D       		.byte	0x7d
 3224 083a 00       		.sleb128 0
 3225 083b 02       		.uleb128 0x2
 3226 083c 77       		.byte	0x77
 3227 083d 00       		.sleb128 0
 3228 083e 00       		.byte	0
 3229 083f 00       		.byte	0
 3230 0840 24       		.uleb128 0x24
 3231 0841 4C000000 		.4byte	.LASF99
 3232 0845 01       		.byte	0x1
 3233 0846 4F01     		.2byte	0x14f
 3234 0848 00000000 		.4byte	.LFB137
 3235 084c 2E000000 		.4byte	.LFE137-.LFB137
 3236 0850 01       		.uleb128 0x1
 3237 0851 9C       		.byte	0x9c
 3238 0852 C5080000 		.4byte	0x8c5
 3239 0856 11       		.uleb128 0x11
 3240 0857 2B020000 		.4byte	.LASF79
 3241 085b 01       		.byte	0x1
 3242 085c 4F01     		.2byte	0x14f
 3243 085e 6A010000 		.4byte	0x16a
 3244 0862 E3040000 		.4byte	.LLST31
 3245 0866 12       		.uleb128 0x12
 3246 0867 15030000 		.4byte	.LASF50
 3247 086b 01       		.byte	0x1
 3248 086c 5101     		.2byte	0x151
 3249 086e 81030000 		.4byte	0x381
 3250 0872 1D050000 		.4byte	.LLST32
 3251 0876 18       		.uleb128 0x18
 3252 0877 03020000 		.4byte	0x203
 3253 087b 04000000 		.4byte	.LBB96
 3254 087f 12000000 		.4byte	.LBE96-.LBB96
 3255 0883 01       		.byte	0x1
 3256 0884 5301     		.2byte	0x153
 3257 0886 9A080000 		.4byte	0x89a
 3258 088a 19       		.uleb128 0x19
 3259 088b 04000000 		.4byte	.LBB97
 3260 088f 12000000 		.4byte	.LBE97-.LBB97
 3261 0893 1A       		.uleb128 0x1a
 3262 0894 0F020000 		.4byte	0x20f
 3263 0898 00       		.byte	0
 3264 0899 00       		.byte	0
 3265 089a 1E       		.uleb128 0x1e
 3266 089b 22000000 		.4byte	.LVL78
 3267 089f D1150000 		.4byte	0x15d1
 3268 08a3 AF080000 		.4byte	0x8af
 3269 08a7 1C       		.uleb128 0x1c
 3270 08a8 01       		.uleb128 0x1
 3271 08a9 50       		.byte	0x50
 3272 08aa 03       		.uleb128 0x3
 3273 08ab F3       		.byte	0xf3
 3274 08ac 01       		.uleb128 0x1
 3275 08ad 50       		.byte	0x50
ARM GAS  C:\Users\adris\AppData\Local\Temp\ccnf5SFB.s 			page 87


 3276 08ae 00       		.byte	0
 3277 08af 1B       		.uleb128 0x1b
 3278 08b0 2C000000 		.4byte	.LVL80
 3279 08b4 B4150000 		.4byte	0x15b4
 3280 08b8 1C       		.uleb128 0x1c
 3281 08b9 01       		.uleb128 0x1
 3282 08ba 51       		.byte	0x51
 3283 08bb 01       		.uleb128 0x1
 3284 08bc 30       		.byte	0x30
 3285 08bd 1C       		.uleb128 0x1c
 3286 08be 01       		.uleb128 0x1
 3287 08bf 52       		.byte	0x52
 3288 08c0 02       		.uleb128 0x2
 3289 08c1 08       		.byte	0x8
 3290 08c2 24       		.byte	0x24
 3291 08c3 00       		.byte	0
 3292 08c4 00       		.byte	0
 3293 08c5 25       		.uleb128 0x25
 3294 08c6 F8010000 		.4byte	.LASF81
 3295 08ca 01       		.byte	0x1
 3296 08cb 7001     		.2byte	0x170
 3297 08cd DD000000 		.4byte	0xdd
 3298 08d1 00000000 		.4byte	.LFB138
 3299 08d5 50000000 		.4byte	.LFE138-.LFB138
 3300 08d9 01       		.uleb128 0x1
 3301 08da 9C       		.byte	0x9c
 3302 08db 62090000 		.4byte	0x962
 3303 08df 11       		.uleb128 0x11
 3304 08e0 2B020000 		.4byte	.LASF79
 3305 08e4 01       		.byte	0x1
 3306 08e5 7001     		.2byte	0x170
 3307 08e7 6A010000 		.4byte	0x16a
 3308 08eb 57050000 		.4byte	.LLST33
 3309 08ef 12       		.uleb128 0x12
 3310 08f0 15030000 		.4byte	.LASF50
 3311 08f4 01       		.byte	0x1
 3312 08f5 7201     		.2byte	0x172
 3313 08f7 87030000 		.4byte	0x387
 3314 08fb 57050000 		.4byte	.LLST33
 3315 08ff 12       		.uleb128 0x12
 3316 0900 04070000 		.4byte	.LASF66
 3317 0904 01       		.byte	0x1
 3318 0905 7301     		.2byte	0x173
 3319 0907 DD000000 		.4byte	0xdd
 3320 090b B7050000 		.4byte	.LLST35
 3321 090f 12       		.uleb128 0x12
 3322 0910 5B050000 		.4byte	.LASF52
 3323 0914 01       		.byte	0x1
 3324 0915 7301     		.2byte	0x173
 3325 0917 DD000000 		.4byte	0xdd
 3326 091b EE050000 		.4byte	.LLST36
 3327 091f 1D       		.uleb128 0x1d
 3328 0920 6C050000 		.4byte	.LASF44
 3329 0924 01       		.byte	0x1
 3330 0925 7601     		.2byte	0x176
 3331 0927 E8000000 		.4byte	0xe8
 3332 092b 01       		.uleb128 0x1
ARM GAS  C:\Users\adris\AppData\Local\Temp\ccnf5SFB.s 			page 88


 3333 092c 55       		.byte	0x55
 3334 092d 18       		.uleb128 0x18
 3335 092e 03020000 		.4byte	0x203
 3336 0932 02000000 		.4byte	.LBB98
 3337 0936 12000000 		.4byte	.LBE98-.LBB98
 3338 093a 01       		.byte	0x1
 3339 093b 7901     		.2byte	0x179
 3340 093d 51090000 		.4byte	0x951
 3341 0941 19       		.uleb128 0x19
 3342 0942 02000000 		.4byte	.LBB99
 3343 0946 12000000 		.4byte	.LBE99-.LBB99
 3344 094a 1A       		.uleb128 0x1a
 3345 094b 0F020000 		.4byte	0x20f
 3346 094f 00       		.byte	0
 3347 0950 00       		.byte	0
 3348 0951 1B       		.uleb128 0x1b
 3349 0952 40000000 		.4byte	.LVL88
 3350 0956 A5020000 		.4byte	0x2a5
 3351 095a 1C       		.uleb128 0x1c
 3352 095b 01       		.uleb128 0x1
 3353 095c 50       		.byte	0x50
 3354 095d 02       		.uleb128 0x2
 3355 095e 74       		.byte	0x74
 3356 095f 00       		.sleb128 0
 3357 0960 00       		.byte	0
 3358 0961 00       		.byte	0
 3359 0962 25       		.uleb128 0x25
 3360 0963 B4030000 		.4byte	.LASF82
 3361 0967 01       		.byte	0x1
 3362 0968 A601     		.2byte	0x1a6
 3363 096a DD000000 		.4byte	0xdd
 3364 096e 00000000 		.4byte	.LFB139
 3365 0972 2A000000 		.4byte	.LFE139-.LFB139
 3366 0976 01       		.uleb128 0x1
 3367 0977 9C       		.byte	0x9c
 3368 0978 DD090000 		.4byte	0x9dd
 3369 097c 11       		.uleb128 0x11
 3370 097d 2B020000 		.4byte	.LASF79
 3371 0981 01       		.byte	0x1
 3372 0982 A601     		.2byte	0x1a6
 3373 0984 6A010000 		.4byte	0x16a
 3374 0988 0D060000 		.4byte	.LLST37
 3375 098c 11       		.uleb128 0x11
 3376 098d B1020000 		.4byte	.LASF83
 3377 0991 01       		.byte	0x1
 3378 0992 A601     		.2byte	0x1a6
 3379 0994 AD000000 		.4byte	0xad
 3380 0998 41060000 		.4byte	.LLST38
 3381 099c 12       		.uleb128 0x12
 3382 099d 15030000 		.4byte	.LASF50
 3383 09a1 01       		.byte	0x1
 3384 09a2 A801     		.2byte	0x1a8
 3385 09a4 87030000 		.4byte	0x387
 3386 09a8 0D060000 		.4byte	.LLST37
 3387 09ac 12       		.uleb128 0x12
 3388 09ad 04070000 		.4byte	.LASF66
 3389 09b1 01       		.byte	0x1
ARM GAS  C:\Users\adris\AppData\Local\Temp\ccnf5SFB.s 			page 89


 3390 09b2 A901     		.2byte	0x1a9
 3391 09b4 DD000000 		.4byte	0xdd
 3392 09b8 5F060000 		.4byte	.LLST40
 3393 09bc 26       		.uleb128 0x26
 3394 09bd 03020000 		.4byte	0x203
 3395 09c1 04000000 		.4byte	.LBB100
 3396 09c5 12000000 		.4byte	.LBE100-.LBB100
 3397 09c9 01       		.byte	0x1
 3398 09ca AB01     		.2byte	0x1ab
 3399 09cc 19       		.uleb128 0x19
 3400 09cd 04000000 		.4byte	.LBB101
 3401 09d1 12000000 		.4byte	.LBE101-.LBB101
 3402 09d5 1A       		.uleb128 0x1a
 3403 09d6 0F020000 		.4byte	0x20f
 3404 09da 00       		.byte	0
 3405 09db 00       		.byte	0
 3406 09dc 00       		.byte	0
 3407 09dd 25       		.uleb128 0x25
 3408 09de F3030000 		.4byte	.LASF84
 3409 09e2 01       		.byte	0x1
 3410 09e3 C301     		.2byte	0x1c3
 3411 09e5 AD000000 		.4byte	0xad
 3412 09e9 00000000 		.4byte	.LFB140
 3413 09ed 28000000 		.4byte	.LFE140-.LFB140
 3414 09f1 01       		.uleb128 0x1
 3415 09f2 9C       		.byte	0x9c
 3416 09f3 480A0000 		.4byte	0xa48
 3417 09f7 11       		.uleb128 0x11
 3418 09f8 2B020000 		.4byte	.LASF79
 3419 09fc 01       		.byte	0x1
 3420 09fd C301     		.2byte	0x1c3
 3421 09ff 6A010000 		.4byte	0x16a
 3422 0a03 7E060000 		.4byte	.LLST41
 3423 0a07 12       		.uleb128 0x12
 3424 0a08 15030000 		.4byte	.LASF50
 3425 0a0c 01       		.byte	0x1
 3426 0a0d C501     		.2byte	0x1c5
 3427 0a0f A0020000 		.4byte	0x2a0
 3428 0a13 9F060000 		.4byte	.LLST42
 3429 0a17 12       		.uleb128 0x12
 3430 0a18 8D050000 		.4byte	.LASF63
 3431 0a1c 01       		.byte	0x1
 3432 0a1d C601     		.2byte	0x1c6
 3433 0a1f AD000000 		.4byte	0xad
 3434 0a23 C0060000 		.4byte	.LLST43
 3435 0a27 26       		.uleb128 0x26
 3436 0a28 03020000 		.4byte	0x203
 3437 0a2c 02000000 		.4byte	.LBB102
 3438 0a30 12000000 		.4byte	.LBE102-.LBB102
 3439 0a34 01       		.byte	0x1
 3440 0a35 C801     		.2byte	0x1c8
 3441 0a37 19       		.uleb128 0x19
 3442 0a38 02000000 		.4byte	.LBB103
 3443 0a3c 12000000 		.4byte	.LBE103-.LBB103
 3444 0a40 1A       		.uleb128 0x1a
 3445 0a41 0F020000 		.4byte	0x20f
 3446 0a45 00       		.byte	0
ARM GAS  C:\Users\adris\AppData\Local\Temp\ccnf5SFB.s 			page 90


 3447 0a46 00       		.byte	0
 3448 0a47 00       		.byte	0
 3449 0a48 25       		.uleb128 0x25
 3450 0a49 64080000 		.4byte	.LASF85
 3451 0a4d 01       		.byte	0x1
 3452 0a4e DB01     		.2byte	0x1db
 3453 0a50 AD000000 		.4byte	0xad
 3454 0a54 00000000 		.4byte	.LFB141
 3455 0a58 1C000000 		.4byte	.LFE141-.LFB141
 3456 0a5c 01       		.uleb128 0x1
 3457 0a5d 9C       		.byte	0x9c
 3458 0a5e BE0A0000 		.4byte	0xabe
 3459 0a62 11       		.uleb128 0x11
 3460 0a63 2B020000 		.4byte	.LASF79
 3461 0a67 01       		.byte	0x1
 3462 0a68 DB01     		.2byte	0x1db
 3463 0a6a 6A010000 		.4byte	0x16a
 3464 0a6e DE060000 		.4byte	.LLST44
 3465 0a72 12       		.uleb128 0x12
 3466 0a73 15030000 		.4byte	.LASF50
 3467 0a77 01       		.byte	0x1
 3468 0a78 DD01     		.2byte	0x1dd
 3469 0a7a A0020000 		.4byte	0x2a0
 3470 0a7e FF060000 		.4byte	.LLST45
 3471 0a82 1D       		.uleb128 0x1d
 3472 0a83 04070000 		.4byte	.LASF66
 3473 0a87 01       		.byte	0x1
 3474 0a88 DE01     		.2byte	0x1de
 3475 0a8a AD000000 		.4byte	0xad
 3476 0a8e 01       		.uleb128 0x1
 3477 0a8f 50       		.byte	0x50
 3478 0a90 18       		.uleb128 0x18
 3479 0a91 03020000 		.4byte	0x203
 3480 0a95 04000000 		.4byte	.LBB104
 3481 0a99 12000000 		.4byte	.LBE104-.LBB104
 3482 0a9d 01       		.byte	0x1
 3483 0a9e E001     		.2byte	0x1e0
 3484 0aa0 B40A0000 		.4byte	0xab4
 3485 0aa4 19       		.uleb128 0x19
 3486 0aa5 04000000 		.4byte	.LBB105
 3487 0aa9 12000000 		.4byte	.LBE105-.LBB105
 3488 0aad 1A       		.uleb128 0x1a
 3489 0aae 0F020000 		.4byte	0x20f
 3490 0ab2 00       		.byte	0
 3491 0ab3 00       		.byte	0
 3492 0ab4 27       		.uleb128 0x27
 3493 0ab5 1A000000 		.4byte	.LVL110
 3494 0ab9 5A020000 		.4byte	0x25a
 3495 0abd 00       		.byte	0
 3496 0abe 25       		.uleb128 0x25
 3497 0abf 78040000 		.4byte	.LASF86
 3498 0ac3 01       		.byte	0x1
 3499 0ac4 E701     		.2byte	0x1e7
 3500 0ac6 AD000000 		.4byte	0xad
 3501 0aca 00000000 		.4byte	.LFB142
 3502 0ace 02010000 		.4byte	.LFE142-.LFB142
 3503 0ad2 01       		.uleb128 0x1
ARM GAS  C:\Users\adris\AppData\Local\Temp\ccnf5SFB.s 			page 91


 3504 0ad3 9C       		.byte	0x9c
 3505 0ad4 EF0C0000 		.4byte	0xcef
 3506 0ad8 11       		.uleb128 0x11
 3507 0ad9 2B020000 		.4byte	.LASF79
 3508 0add 01       		.byte	0x1
 3509 0ade E701     		.2byte	0x1e7
 3510 0ae0 6A010000 		.4byte	0x16a
 3511 0ae4 20070000 		.4byte	.LLST46
 3512 0ae8 11       		.uleb128 0x11
 3513 0ae9 7F000000 		.4byte	.LASF61
 3514 0aed 01       		.byte	0x1
 3515 0aee E801     		.2byte	0x1e8
 3516 0af0 5C050000 		.4byte	0x55c
 3517 0af4 54070000 		.4byte	.LLST47
 3518 0af8 11       		.uleb128 0x11
 3519 0af9 29010000 		.4byte	.LASF62
 3520 0afd 01       		.byte	0x1
 3521 0afe E901     		.2byte	0x1e9
 3522 0b00 AD000000 		.4byte	0xad
 3523 0b04 88070000 		.4byte	.LLST48
 3524 0b08 11       		.uleb128 0x11
 3525 0b09 4F020000 		.4byte	.LASF87
 3526 0b0d 01       		.byte	0x1
 3527 0b0e EA01     		.2byte	0x1ea
 3528 0b10 F3000000 		.4byte	0xf3
 3529 0b14 BC070000 		.4byte	.LLST49
 3530 0b18 12       		.uleb128 0x12
 3531 0b19 15030000 		.4byte	.LASF50
 3532 0b1d 01       		.byte	0x1
 3533 0b1e EC01     		.2byte	0x1ec
 3534 0b20 87030000 		.4byte	0x387
 3535 0b24 09080000 		.4byte	.LLST50
 3536 0b28 12       		.uleb128 0x12
 3537 0b29 04070000 		.4byte	.LASF66
 3538 0b2d 01       		.byte	0x1
 3539 0b2e ED01     		.2byte	0x1ed
 3540 0b30 AD000000 		.4byte	0xad
 3541 0b34 3D080000 		.4byte	.LLST51
 3542 0b38 12       		.uleb128 0x12
 3543 0b39 8D050000 		.4byte	.LASF63
 3544 0b3d 01       		.byte	0x1
 3545 0b3e ED01     		.2byte	0x1ed
 3546 0b40 AD000000 		.4byte	0xad
 3547 0b44 5B080000 		.4byte	.LLST52
 3548 0b48 12       		.uleb128 0x12
 3549 0b49 6A020000 		.4byte	.LASF64
 3550 0b4d 01       		.byte	0x1
 3551 0b4e EE01     		.2byte	0x1ee
 3552 0b50 AD000000 		.4byte	0xad
 3553 0b54 B2080000 		.4byte	.LLST53
 3554 0b58 1D       		.uleb128 0x1d
 3555 0b59 85010000 		.4byte	.LASF88
 3556 0b5d 01       		.byte	0x1
 3557 0b5e EF01     		.2byte	0x1ef
 3558 0b60 5F010000 		.4byte	0x15f
 3559 0b64 02       		.uleb128 0x2
 3560 0b65 91       		.byte	0x91
ARM GAS  C:\Users\adris\AppData\Local\Temp\ccnf5SFB.s 			page 92


 3561 0b66 58       		.sleb128 -40
 3562 0b67 18       		.uleb128 0x18
 3563 0b68 03020000 		.4byte	0x203
 3564 0b6c 0A000000 		.4byte	.LBB106
 3565 0b70 14000000 		.4byte	.LBE106-.LBB106
 3566 0b74 01       		.byte	0x1
 3567 0b75 F101     		.2byte	0x1f1
 3568 0b77 8B0B0000 		.4byte	0xb8b
 3569 0b7b 19       		.uleb128 0x19
 3570 0b7c 0A000000 		.4byte	.LBB107
 3571 0b80 14000000 		.4byte	.LBE107-.LBB107
 3572 0b84 1A       		.uleb128 0x1a
 3573 0b85 0F020000 		.4byte	0x20f
 3574 0b89 00       		.byte	0
 3575 0b8a 00       		.byte	0
 3576 0b8b 18       		.uleb128 0x18
 3577 0b8c 03020000 		.4byte	0x203
 3578 0b90 20000000 		.4byte	.LBB108
 3579 0b94 12000000 		.4byte	.LBE108-.LBB108
 3580 0b98 01       		.byte	0x1
 3581 0b99 F201     		.2byte	0x1f2
 3582 0b9b AF0B0000 		.4byte	0xbaf
 3583 0b9f 19       		.uleb128 0x19
 3584 0ba0 20000000 		.4byte	.LBB109
 3585 0ba4 12000000 		.4byte	.LBE109-.LBB109
 3586 0ba8 1A       		.uleb128 0x1a
 3587 0ba9 0F020000 		.4byte	0x20f
 3588 0bad 00       		.byte	0
 3589 0bae 00       		.byte	0
 3590 0baf 18       		.uleb128 0x18
 3591 0bb0 03020000 		.4byte	0x203
 3592 0bb4 6A000000 		.4byte	.LBB110
 3593 0bb8 12000000 		.4byte	.LBE110-.LBB110
 3594 0bbc 01       		.byte	0x1
 3595 0bbd 1302     		.2byte	0x213
 3596 0bbf D30B0000 		.4byte	0xbd3
 3597 0bc3 19       		.uleb128 0x19
 3598 0bc4 6A000000 		.4byte	.LBB111
 3599 0bc8 12000000 		.4byte	.LBE111-.LBB111
 3600 0bcc 1A       		.uleb128 0x1a
 3601 0bcd 0F020000 		.4byte	0x20f
 3602 0bd1 00       		.byte	0
 3603 0bd2 00       		.byte	0
 3604 0bd3 1E       		.uleb128 0x1e
 3605 0bd4 50000000 		.4byte	.LVL122
 3606 0bd8 DC150000 		.4byte	0x15dc
 3607 0bdc E70B0000 		.4byte	0xbe7
 3608 0be0 1C       		.uleb128 0x1c
 3609 0be1 01       		.uleb128 0x1
 3610 0be2 50       		.byte	0x50
 3611 0be3 02       		.uleb128 0x2
 3612 0be4 91       		.byte	0x91
 3613 0be5 58       		.sleb128 -40
 3614 0be6 00       		.byte	0
 3615 0be7 27       		.uleb128 0x27
 3616 0be8 54000000 		.4byte	.LVL123
 3617 0bec E8150000 		.4byte	0x15e8
ARM GAS  C:\Users\adris\AppData\Local\Temp\ccnf5SFB.s 			page 93


 3618 0bf0 1E       		.uleb128 0x1e
 3619 0bf1 5A000000 		.4byte	.LVL124
 3620 0bf5 DD090000 		.4byte	0x9dd
 3621 0bf9 040C0000 		.4byte	0xc04
 3622 0bfd 1C       		.uleb128 0x1c
 3623 0bfe 01       		.uleb128 0x1
 3624 0bff 50       		.byte	0x50
 3625 0c00 02       		.uleb128 0x2
 3626 0c01 74       		.byte	0x74
 3627 0c02 00       		.sleb128 0
 3628 0c03 00       		.byte	0
 3629 0c04 1E       		.uleb128 0x1e
 3630 0c05 66000000 		.4byte	.LVL127
 3631 0c09 F3150000 		.4byte	0x15f3
 3632 0c0d 170C0000 		.4byte	0xc17
 3633 0c11 1C       		.uleb128 0x1c
 3634 0c12 01       		.uleb128 0x1
 3635 0c13 50       		.byte	0x50
 3636 0c14 01       		.uleb128 0x1
 3637 0c15 30       		.byte	0x30
 3638 0c16 00       		.byte	0
 3639 0c17 27       		.uleb128 0x27
 3640 0c18 80000000 		.4byte	.LVL129
 3641 0c1c FF150000 		.4byte	0x15ff
 3642 0c20 27       		.uleb128 0x27
 3643 0c21 86000000 		.4byte	.LVL130
 3644 0c25 0B160000 		.4byte	0x160b
 3645 0c29 1E       		.uleb128 0x1e
 3646 0c2a 9A000000 		.4byte	.LVL131
 3647 0c2e 16160000 		.4byte	0x1616
 3648 0c32 470C0000 		.4byte	0xc47
 3649 0c36 1C       		.uleb128 0x1c
 3650 0c37 01       		.uleb128 0x1
 3651 0c38 50       		.byte	0x50
 3652 0c39 01       		.uleb128 0x1
 3653 0c3a 30       		.byte	0x30
 3654 0c3b 1C       		.uleb128 0x1c
 3655 0c3c 01       		.uleb128 0x1
 3656 0c3d 51       		.byte	0x51
 3657 0c3e 02       		.uleb128 0x2
 3658 0c3f 09       		.byte	0x9
 3659 0c40 FF       		.byte	0xff
 3660 0c41 1C       		.uleb128 0x1c
 3661 0c42 01       		.uleb128 0x1
 3662 0c43 52       		.byte	0x52
 3663 0c44 01       		.uleb128 0x1
 3664 0c45 30       		.byte	0x30
 3665 0c46 00       		.byte	0
 3666 0c47 1E       		.uleb128 0x1e
 3667 0c48 A6000000 		.4byte	.LVL132
 3668 0c4c 22160000 		.4byte	0x1622
 3669 0c50 610C0000 		.4byte	0xc61
 3670 0c54 1C       		.uleb128 0x1c
 3671 0c55 01       		.uleb128 0x1
 3672 0c56 50       		.byte	0x50
 3673 0c57 02       		.uleb128 0x2
 3674 0c58 91       		.byte	0x91
ARM GAS  C:\Users\adris\AppData\Local\Temp\ccnf5SFB.s 			page 94


 3675 0c59 58       		.sleb128 -40
 3676 0c5a 1C       		.uleb128 0x1c
 3677 0c5b 01       		.uleb128 0x1
 3678 0c5c 51       		.byte	0x51
 3679 0c5d 02       		.uleb128 0x2
 3680 0c5e 79       		.byte	0x79
 3681 0c5f 00       		.sleb128 0
 3682 0c60 00       		.byte	0
 3683 0c61 27       		.uleb128 0x27
 3684 0c62 B0000000 		.4byte	.LVL134
 3685 0c66 0B160000 		.4byte	0x160b
 3686 0c6a 1E       		.uleb128 0x1e
 3687 0c6b BC000000 		.4byte	.LVL137
 3688 0c6f DD090000 		.4byte	0x9dd
 3689 0c73 7E0C0000 		.4byte	0xc7e
 3690 0c77 1C       		.uleb128 0x1c
 3691 0c78 01       		.uleb128 0x1
 3692 0c79 50       		.byte	0x50
 3693 0c7a 02       		.uleb128 0x2
 3694 0c7b 74       		.byte	0x74
 3695 0c7c 00       		.sleb128 0
 3696 0c7d 00       		.byte	0
 3697 0c7e 1E       		.uleb128 0x1e
 3698 0c7f CE000000 		.4byte	.LVL139
 3699 0c83 A3040000 		.4byte	0x4a3
 3700 0c87 AB0C0000 		.4byte	0xcab
 3701 0c8b 1C       		.uleb128 0x1c
 3702 0c8c 01       		.uleb128 0x1
 3703 0c8d 50       		.byte	0x50
 3704 0c8e 02       		.uleb128 0x2
 3705 0c8f 74       		.byte	0x74
 3706 0c90 00       		.sleb128 0
 3707 0c91 1C       		.uleb128 0x1c
 3708 0c92 01       		.uleb128 0x1
 3709 0c93 51       		.byte	0x51
 3710 0c94 02       		.uleb128 0x2
 3711 0c95 77       		.byte	0x77
 3712 0c96 00       		.sleb128 0
 3713 0c97 1C       		.uleb128 0x1c
 3714 0c98 01       		.uleb128 0x1
 3715 0c99 52       		.byte	0x52
 3716 0c9a 02       		.uleb128 0x2
 3717 0c9b 76       		.byte	0x76
 3718 0c9c 00       		.sleb128 0
 3719 0c9d 1C       		.uleb128 0x1c
 3720 0c9e 01       		.uleb128 0x1
 3721 0c9f 53       		.byte	0x53
 3722 0ca0 02       		.uleb128 0x2
 3723 0ca1 75       		.byte	0x75
 3724 0ca2 00       		.sleb128 0
 3725 0ca3 1C       		.uleb128 0x1c
 3726 0ca4 02       		.uleb128 0x2
 3727 0ca5 7D       		.byte	0x7d
 3728 0ca6 00       		.sleb128 0
 3729 0ca7 02       		.uleb128 0x2
 3730 0ca8 78       		.byte	0x78
 3731 0ca9 00       		.sleb128 0
ARM GAS  C:\Users\adris\AppData\Local\Temp\ccnf5SFB.s 			page 95


 3732 0caa 00       		.byte	0
 3733 0cab 1E       		.uleb128 0x1e
 3734 0cac D8000000 		.4byte	.LVL142
 3735 0cb0 5A020000 		.4byte	0x25a
 3736 0cb4 BF0C0000 		.4byte	0xcbf
 3737 0cb8 1C       		.uleb128 0x1c
 3738 0cb9 01       		.uleb128 0x1
 3739 0cba 50       		.byte	0x50
 3740 0cbb 02       		.uleb128 0x2
 3741 0cbc 74       		.byte	0x74
 3742 0cbd 00       		.sleb128 0
 3743 0cbe 00       		.byte	0
 3744 0cbf 27       		.uleb128 0x27
 3745 0cc0 E2000000 		.4byte	.LVL143
 3746 0cc4 2E160000 		.4byte	0x162e
 3747 0cc8 1E       		.uleb128 0x1e
 3748 0cc9 F2000000 		.4byte	.LVL144
 3749 0ccd 3A160000 		.4byte	0x163a
 3750 0cd1 E50C0000 		.4byte	0xce5
 3751 0cd5 1C       		.uleb128 0x1c
 3752 0cd6 01       		.uleb128 0x1
 3753 0cd7 51       		.byte	0x51
 3754 0cd8 01       		.uleb128 0x1
 3755 0cd9 30       		.byte	0x30
 3756 0cda 1C       		.uleb128 0x1c
 3757 0cdb 01       		.uleb128 0x1
 3758 0cdc 52       		.byte	0x52
 3759 0cdd 01       		.uleb128 0x1
 3760 0cde 30       		.byte	0x30
 3761 0cdf 1C       		.uleb128 0x1c
 3762 0ce0 01       		.uleb128 0x1
 3763 0ce1 53       		.byte	0x53
 3764 0ce2 01       		.uleb128 0x1
 3765 0ce3 30       		.byte	0x30
 3766 0ce4 00       		.byte	0
 3767 0ce5 27       		.uleb128 0x27
 3768 0ce6 FA000000 		.4byte	.LVL145
 3769 0cea 46160000 		.4byte	0x1646
 3770 0cee 00       		.byte	0
 3771 0cef 25       		.uleb128 0x25
 3772 0cf0 3F040000 		.4byte	.LASF89
 3773 0cf4 01       		.byte	0x1
 3774 0cf5 4C02     		.2byte	0x24c
 3775 0cf7 AD000000 		.4byte	0xad
 3776 0cfb 00000000 		.4byte	.LFB143
 3777 0cff A0000000 		.4byte	.LFE143-.LFB143
 3778 0d03 01       		.uleb128 0x1
 3779 0d04 9C       		.byte	0x9c
 3780 0d05 9E0E0000 		.4byte	0xe9e
 3781 0d09 11       		.uleb128 0x11
 3782 0d0a 2B020000 		.4byte	.LASF79
 3783 0d0e 01       		.byte	0x1
 3784 0d0f 4C02     		.2byte	0x24c
 3785 0d11 6A010000 		.4byte	0x16a
 3786 0d15 E6080000 		.4byte	.LLST54
 3787 0d19 11       		.uleb128 0x11
 3788 0d1a 7F000000 		.4byte	.LASF61
ARM GAS  C:\Users\adris\AppData\Local\Temp\ccnf5SFB.s 			page 96


 3789 0d1e 01       		.byte	0x1
 3790 0d1f 4D02     		.2byte	0x24d
 3791 0d21 5C050000 		.4byte	0x55c
 3792 0d25 04090000 		.4byte	.LLST55
 3793 0d29 11       		.uleb128 0x11
 3794 0d2a 29010000 		.4byte	.LASF62
 3795 0d2e 01       		.byte	0x1
 3796 0d2f 4E02     		.2byte	0x24e
 3797 0d31 AD000000 		.4byte	0xad
 3798 0d35 30090000 		.4byte	.LLST56
 3799 0d39 11       		.uleb128 0x11
 3800 0d3a 3C030000 		.4byte	.LASF90
 3801 0d3e 01       		.byte	0x1
 3802 0d3f 4F02     		.2byte	0x24f
 3803 0d41 A40E0000 		.4byte	0xea4
 3804 0d45 5C090000 		.4byte	.LLST57
 3805 0d49 12       		.uleb128 0x12
 3806 0d4a 15030000 		.4byte	.LASF50
 3807 0d4e 01       		.byte	0x1
 3808 0d4f 5102     		.2byte	0x251
 3809 0d51 87030000 		.4byte	0x387
 3810 0d55 E6080000 		.4byte	.LLST54
 3811 0d59 12       		.uleb128 0x12
 3812 0d5a 04070000 		.4byte	.LASF66
 3813 0d5e 01       		.byte	0x1
 3814 0d5f 5202     		.2byte	0x252
 3815 0d61 AD000000 		.4byte	0xad
 3816 0d65 AC090000 		.4byte	.LLST59
 3817 0d69 12       		.uleb128 0x12
 3818 0d6a 8D050000 		.4byte	.LASF63
 3819 0d6e 01       		.byte	0x1
 3820 0d6f 5202     		.2byte	0x252
 3821 0d71 AD000000 		.4byte	0xad
 3822 0d75 CA090000 		.4byte	.LLST60
 3823 0d79 12       		.uleb128 0x12
 3824 0d7a 6A020000 		.4byte	.LASF64
 3825 0d7e 01       		.byte	0x1
 3826 0d7f 5302     		.2byte	0x253
 3827 0d81 AD000000 		.4byte	0xad
 3828 0d85 E8090000 		.4byte	.LLST61
 3829 0d89 18       		.uleb128 0x18
 3830 0d8a 03020000 		.4byte	0x203
 3831 0d8e 02000000 		.4byte	.LBB112
 3832 0d92 12000000 		.4byte	.LBE112-.LBB112
 3833 0d96 01       		.byte	0x1
 3834 0d97 5502     		.2byte	0x255
 3835 0d99 AD0D0000 		.4byte	0xdad
 3836 0d9d 19       		.uleb128 0x19
 3837 0d9e 02000000 		.4byte	.LBB113
 3838 0da2 12000000 		.4byte	.LBE113-.LBB113
 3839 0da6 1A       		.uleb128 0x1a
 3840 0da7 0F020000 		.4byte	0x20f
 3841 0dab 00       		.byte	0
 3842 0dac 00       		.byte	0
 3843 0dad 18       		.uleb128 0x18
 3844 0dae 03020000 		.4byte	0x203
 3845 0db2 1E000000 		.4byte	.LBB114
ARM GAS  C:\Users\adris\AppData\Local\Temp\ccnf5SFB.s 			page 97


 3846 0db6 12000000 		.4byte	.LBE114-.LBB114
 3847 0dba 01       		.byte	0x1
 3848 0dbb 5602     		.2byte	0x256
 3849 0dbd D10D0000 		.4byte	0xdd1
 3850 0dc1 19       		.uleb128 0x19
 3851 0dc2 1E000000 		.4byte	.LBB115
 3852 0dc6 12000000 		.4byte	.LBE115-.LBB115
 3853 0dca 1A       		.uleb128 0x1a
 3854 0dcb 0F020000 		.4byte	0x20f
 3855 0dcf 00       		.byte	0
 3856 0dd0 00       		.byte	0
 3857 0dd1 16       		.uleb128 0x16
 3858 0dd2 6A000000 		.4byte	.LBB116
 3859 0dd6 2E000000 		.4byte	.LBE116-.LBB116
 3860 0dda 520E0000 		.4byte	0xe52
 3861 0dde 28       		.uleb128 0x28
 3862 0ddf D9060000 		.4byte	.LASF91
 3863 0de3 01       		.byte	0x1
 3864 0de4 6D02     		.2byte	0x26d
 3865 0de6 E8000000 		.4byte	0xe8
 3866 0dea 18       		.uleb128 0x18
 3867 0deb 1B020000 		.4byte	0x21b
 3868 0def 6A000000 		.4byte	.LBB117
 3869 0df3 14000000 		.4byte	.LBE117-.LBB117
 3870 0df7 01       		.byte	0x1
 3871 0df8 6D02     		.2byte	0x26d
 3872 0dfa 130E0000 		.4byte	0xe13
 3873 0dfe 19       		.uleb128 0x19
 3874 0dff 6A000000 		.4byte	.LBB118
 3875 0e03 14000000 		.4byte	.LBE118-.LBB118
 3876 0e07 1A       		.uleb128 0x1a
 3877 0e08 2B020000 		.4byte	0x22b
 3878 0e0c 1A       		.uleb128 0x1a
 3879 0e0d 36020000 		.4byte	0x236
 3880 0e11 00       		.byte	0
 3881 0e12 00       		.byte	0
 3882 0e13 18       		.uleb128 0x18
 3883 0e14 42020000 		.4byte	0x242
 3884 0e18 94000000 		.4byte	.LBB119
 3885 0e1c 04000000 		.4byte	.LBE119-.LBB119
 3886 0e20 01       		.byte	0x1
 3887 0e21 6D02     		.2byte	0x26d
 3888 0e23 310E0000 		.4byte	0xe31
 3889 0e27 29       		.uleb128 0x29
 3890 0e28 4E020000 		.4byte	0x24e
 3891 0e2c 1C0A0000 		.4byte	.LLST62
 3892 0e30 00       		.byte	0
 3893 0e31 1B       		.uleb128 0x1b
 3894 0e32 90000000 		.4byte	.LVL162
 3895 0e36 52160000 		.4byte	0x1652
 3896 0e3a 1C       		.uleb128 0x1c
 3897 0e3b 01       		.uleb128 0x1
 3898 0e3c 51       		.byte	0x51
 3899 0e3d 01       		.uleb128 0x1
 3900 0e3e 30       		.byte	0x30
 3901 0e3f 1C       		.uleb128 0x1c
 3902 0e40 01       		.uleb128 0x1
ARM GAS  C:\Users\adris\AppData\Local\Temp\ccnf5SFB.s 			page 98


 3903 0e41 52       		.byte	0x52
 3904 0e42 01       		.uleb128 0x1
 3905 0e43 30       		.byte	0x30
 3906 0e44 1C       		.uleb128 0x1c
 3907 0e45 01       		.uleb128 0x1
 3908 0e46 53       		.byte	0x53
 3909 0e47 01       		.uleb128 0x1
 3910 0e48 30       		.byte	0x30
 3911 0e49 1C       		.uleb128 0x1c
 3912 0e4a 02       		.uleb128 0x2
 3913 0e4b 7D       		.byte	0x7d
 3914 0e4c 00       		.sleb128 0
 3915 0e4d 02       		.uleb128 0x2
 3916 0e4e 77       		.byte	0x77
 3917 0e4f 00       		.sleb128 0
 3918 0e50 00       		.byte	0
 3919 0e51 00       		.byte	0
 3920 0e52 1E       		.uleb128 0x1e
 3921 0e53 4A000000 		.4byte	.LVL155
 3922 0e57 DD090000 		.4byte	0x9dd
 3923 0e5b 660E0000 		.4byte	0xe66
 3924 0e5f 1C       		.uleb128 0x1c
 3925 0e60 01       		.uleb128 0x1
 3926 0e61 50       		.byte	0x50
 3927 0e62 02       		.uleb128 0x2
 3928 0e63 74       		.byte	0x74
 3929 0e64 00       		.sleb128 0
 3930 0e65 00       		.byte	0
 3931 0e66 1E       		.uleb128 0x1e
 3932 0e67 5A000000 		.4byte	.LVL157
 3933 0e6b A3040000 		.4byte	0x4a3
 3934 0e6f 8D0E0000 		.4byte	0xe8d
 3935 0e73 1C       		.uleb128 0x1c
 3936 0e74 01       		.uleb128 0x1
 3937 0e75 50       		.byte	0x50
 3938 0e76 02       		.uleb128 0x2
 3939 0e77 74       		.byte	0x74
 3940 0e78 00       		.sleb128 0
 3941 0e79 1C       		.uleb128 0x1c
 3942 0e7a 01       		.uleb128 0x1
 3943 0e7b 51       		.byte	0x51
 3944 0e7c 02       		.uleb128 0x2
 3945 0e7d 76       		.byte	0x76
 3946 0e7e 00       		.sleb128 0
 3947 0e7f 1C       		.uleb128 0x1c
 3948 0e80 01       		.uleb128 0x1
 3949 0e81 52       		.byte	0x52
 3950 0e82 02       		.uleb128 0x2
 3951 0e83 75       		.byte	0x75
 3952 0e84 00       		.sleb128 0
 3953 0e85 1C       		.uleb128 0x1c
 3954 0e86 02       		.uleb128 0x2
 3955 0e87 7D       		.byte	0x7d
 3956 0e88 00       		.sleb128 0
 3957 0e89 02       		.uleb128 0x2
 3958 0e8a 78       		.byte	0x78
 3959 0e8b 00       		.sleb128 0
ARM GAS  C:\Users\adris\AppData\Local\Temp\ccnf5SFB.s 			page 99


 3960 0e8c 00       		.byte	0
 3961 0e8d 1B       		.uleb128 0x1b
 3962 0e8e 64000000 		.4byte	.LVL160
 3963 0e92 5A020000 		.4byte	0x25a
 3964 0e96 1C       		.uleb128 0x1c
 3965 0e97 01       		.uleb128 0x1
 3966 0e98 50       		.byte	0x50
 3967 0e99 02       		.uleb128 0x2
 3968 0e9a 74       		.byte	0x74
 3969 0e9b 00       		.sleb128 0
 3970 0e9c 00       		.byte	0
 3971 0e9d 00       		.byte	0
 3972 0e9e 06       		.uleb128 0x6
 3973 0e9f 04       		.byte	0x4
 3974 0ea0 DD000000 		.4byte	0xdd
 3975 0ea4 13       		.uleb128 0x13
 3976 0ea5 9E0E0000 		.4byte	0xe9e
 3977 0ea9 25       		.uleb128 0x25
 3978 0eaa 6A000000 		.4byte	.LASF92
 3979 0eae 01       		.byte	0x1
 3980 0eaf B302     		.2byte	0x2b3
 3981 0eb1 AD000000 		.4byte	0xad
 3982 0eb5 00000000 		.4byte	.LFB145
 3983 0eb9 E0000000 		.4byte	.LFE145-.LFB145
 3984 0ebd 01       		.uleb128 0x1
 3985 0ebe 9C       		.byte	0x9c
 3986 0ebf 8D100000 		.4byte	0x108d
 3987 0ec3 11       		.uleb128 0x11
 3988 0ec4 2B020000 		.4byte	.LASF79
 3989 0ec8 01       		.byte	0x1
 3990 0ec9 B302     		.2byte	0x2b3
 3991 0ecb 6A010000 		.4byte	0x16a
 3992 0ecf 2F0A0000 		.4byte	.LLST63
 3993 0ed3 11       		.uleb128 0x11
 3994 0ed4 56030000 		.4byte	.LASF72
 3995 0ed8 01       		.byte	0x1
 3996 0ed9 B402     		.2byte	0x2b4
 3997 0edb C6000000 		.4byte	0xc6
 3998 0edf 630A0000 		.4byte	.LLST64
 3999 0ee3 11       		.uleb128 0x11
 4000 0ee4 0D000000 		.4byte	.LASF73
 4001 0ee8 01       		.byte	0x1
 4002 0ee9 B502     		.2byte	0x2b5
 4003 0eeb AD000000 		.4byte	0xad
 4004 0eef 810A0000 		.4byte	.LLST65
 4005 0ef3 11       		.uleb128 0x11
 4006 0ef4 4F020000 		.4byte	.LASF87
 4007 0ef8 01       		.byte	0x1
 4008 0ef9 B602     		.2byte	0x2b6
 4009 0efb F3000000 		.4byte	0xf3
 4010 0eff B50A0000 		.4byte	.LLST66
 4011 0f03 12       		.uleb128 0x12
 4012 0f04 15030000 		.4byte	.LASF50
 4013 0f08 01       		.byte	0x1
 4014 0f09 B802     		.2byte	0x2b8
 4015 0f0b 87030000 		.4byte	0x387
 4016 0f0f 2F0A0000 		.4byte	.LLST63
ARM GAS  C:\Users\adris\AppData\Local\Temp\ccnf5SFB.s 			page 100


 4017 0f13 12       		.uleb128 0x12
 4018 0f14 D5010000 		.4byte	.LASF76
 4019 0f18 01       		.byte	0x1
 4020 0f19 B902     		.2byte	0x2b9
 4021 0f1b AD000000 		.4byte	0xad
 4022 0f1f 1B0B0000 		.4byte	.LLST68
 4023 0f23 12       		.uleb128 0x12
 4024 0f24 F5000000 		.4byte	.LASF69
 4025 0f28 01       		.byte	0x1
 4026 0f29 B902     		.2byte	0x2b9
 4027 0f2b AD000000 		.4byte	0xad
 4028 0f2f 5C0B0000 		.4byte	.LLST69
 4029 0f33 1D       		.uleb128 0x1d
 4030 0f34 11060000 		.4byte	.LASF74
 4031 0f38 01       		.byte	0x1
 4032 0f39 B902     		.2byte	0x2b9
 4033 0f3b AD000000 		.4byte	0xad
 4034 0f3f 01       		.uleb128 0x1
 4035 0f40 56       		.byte	0x56
 4036 0f41 18       		.uleb128 0x18
 4037 0f42 03020000 		.4byte	0x203
 4038 0f46 02000000 		.4byte	.LBB121
 4039 0f4a 12000000 		.4byte	.LBE121-.LBB121
 4040 0f4e 01       		.byte	0x1
 4041 0f4f BB02     		.2byte	0x2bb
 4042 0f51 650F0000 		.4byte	0xf65
 4043 0f55 19       		.uleb128 0x19
 4044 0f56 02000000 		.4byte	.LBB122
 4045 0f5a 12000000 		.4byte	.LBE122-.LBB122
 4046 0f5e 1A       		.uleb128 0x1a
 4047 0f5f 0F020000 		.4byte	0x20f
 4048 0f63 00       		.byte	0
 4049 0f64 00       		.byte	0
 4050 0f65 18       		.uleb128 0x18
 4051 0f66 03020000 		.4byte	0x203
 4052 0f6a 1E000000 		.4byte	.LBB123
 4053 0f6e 12000000 		.4byte	.LBE123-.LBB123
 4054 0f72 01       		.byte	0x1
 4055 0f73 BC02     		.2byte	0x2bc
 4056 0f75 890F0000 		.4byte	0xf89
 4057 0f79 19       		.uleb128 0x19
 4058 0f7a 1E000000 		.4byte	.LBB124
 4059 0f7e 12000000 		.4byte	.LBE124-.LBB124
 4060 0f82 1A       		.uleb128 0x1a
 4061 0f83 0F020000 		.4byte	0x20f
 4062 0f87 00       		.byte	0
 4063 0f88 00       		.byte	0
 4064 0f89 18       		.uleb128 0x18
 4065 0f8a 03020000 		.4byte	0x203
 4066 0f8e 60000000 		.4byte	.LBB125
 4067 0f92 12000000 		.4byte	.LBE125-.LBB125
 4068 0f96 01       		.byte	0x1
 4069 0f97 DF02     		.2byte	0x2df
 4070 0f99 AD0F0000 		.4byte	0xfad
 4071 0f9d 19       		.uleb128 0x19
 4072 0f9e 60000000 		.4byte	.LBB126
 4073 0fa2 12000000 		.4byte	.LBE126-.LBB126
ARM GAS  C:\Users\adris\AppData\Local\Temp\ccnf5SFB.s 			page 101


 4074 0fa6 1A       		.uleb128 0x1a
 4075 0fa7 0F020000 		.4byte	0x20f
 4076 0fab 00       		.byte	0
 4077 0fac 00       		.byte	0
 4078 0fad 27       		.uleb128 0x27
 4079 0fae 4A000000 		.4byte	.LVL172
 4080 0fb2 E8150000 		.4byte	0x15e8
 4081 0fb6 1E       		.uleb128 0x1e
 4082 0fb7 50000000 		.4byte	.LVL173
 4083 0fbb 5A020000 		.4byte	0x25a
 4084 0fbf CA0F0000 		.4byte	0xfca
 4085 0fc3 1C       		.uleb128 0x1c
 4086 0fc4 01       		.uleb128 0x1
 4087 0fc5 50       		.byte	0x50
 4088 0fc6 02       		.uleb128 0x2
 4089 0fc7 74       		.byte	0x74
 4090 0fc8 00       		.sleb128 0
 4091 0fc9 00       		.byte	0
 4092 0fca 1E       		.uleb128 0x1e
 4093 0fcb 5C000000 		.4byte	.LVL176
 4094 0fcf F3150000 		.4byte	0x15f3
 4095 0fd3 DD0F0000 		.4byte	0xfdd
 4096 0fd7 1C       		.uleb128 0x1c
 4097 0fd8 01       		.uleb128 0x1
 4098 0fd9 50       		.byte	0x50
 4099 0fda 01       		.uleb128 0x1
 4100 0fdb 30       		.byte	0x30
 4101 0fdc 00       		.byte	0
 4102 0fdd 27       		.uleb128 0x27
 4103 0fde 76000000 		.4byte	.LVL178
 4104 0fe2 FF150000 		.4byte	0x15ff
 4105 0fe6 27       		.uleb128 0x27
 4106 0fe7 7C000000 		.4byte	.LVL179
 4107 0feb 0B160000 		.4byte	0x160b
 4108 0fef 1E       		.uleb128 0x1e
 4109 0ff0 8E000000 		.4byte	.LVL180
 4110 0ff4 16160000 		.4byte	0x1616
 4111 0ff8 13100000 		.4byte	0x1013
 4112 0ffc 1C       		.uleb128 0x1c
 4113 0ffd 01       		.uleb128 0x1
 4114 0ffe 50       		.byte	0x50
 4115 0fff 01       		.uleb128 0x1
 4116 1000 30       		.byte	0x30
 4117 1001 1C       		.uleb128 0x1c
 4118 1002 01       		.uleb128 0x1
 4119 1003 51       		.byte	0x51
 4120 1004 02       		.uleb128 0x2
 4121 1005 09       		.byte	0x9
 4122 1006 FF       		.byte	0xff
 4123 1007 1C       		.uleb128 0x1c
 4124 1008 01       		.uleb128 0x1
 4125 1009 52       		.byte	0x52
 4126 100a 01       		.uleb128 0x1
 4127 100b 30       		.byte	0x30
 4128 100c 1C       		.uleb128 0x1c
 4129 100d 01       		.uleb128 0x1
 4130 100e 53       		.byte	0x53
ARM GAS  C:\Users\adris\AppData\Local\Temp\ccnf5SFB.s 			page 102


 4131 100f 02       		.uleb128 0x2
 4132 1010 77       		.byte	0x77
 4133 1011 00       		.sleb128 0
 4134 1012 00       		.byte	0
 4135 1013 1E       		.uleb128 0x1e
 4136 1014 98000000 		.4byte	.LVL181
 4137 1018 5A020000 		.4byte	0x25a
 4138 101c 27100000 		.4byte	0x1027
 4139 1020 1C       		.uleb128 0x1c
 4140 1021 01       		.uleb128 0x1
 4141 1022 50       		.byte	0x50
 4142 1023 02       		.uleb128 0x2
 4143 1024 74       		.byte	0x74
 4144 1025 00       		.sleb128 0
 4145 1026 00       		.byte	0
 4146 1027 27       		.uleb128 0x27
 4147 1028 A0000000 		.4byte	.LVL184
 4148 102c 5A020000 		.4byte	0x25a
 4149 1030 1E       		.uleb128 0x1e
 4150 1031 B4000000 		.4byte	.LVL186
 4151 1035 8E060000 		.4byte	0x68e
 4152 1039 5D100000 		.4byte	0x105d
 4153 103d 1C       		.uleb128 0x1c
 4154 103e 01       		.uleb128 0x1
 4155 103f 50       		.byte	0x50
 4156 1040 02       		.uleb128 0x2
 4157 1041 74       		.byte	0x74
 4158 1042 00       		.sleb128 0
 4159 1043 1C       		.uleb128 0x1c
 4160 1044 01       		.uleb128 0x1
 4161 1045 51       		.byte	0x51
 4162 1046 02       		.uleb128 0x2
 4163 1047 78       		.byte	0x78
 4164 1048 00       		.sleb128 0
 4165 1049 1C       		.uleb128 0x1c
 4166 104a 01       		.uleb128 0x1
 4167 104b 52       		.byte	0x52
 4168 104c 02       		.uleb128 0x2
 4169 104d 79       		.byte	0x79
 4170 104e 00       		.sleb128 0
 4171 104f 1C       		.uleb128 0x1c
 4172 1050 01       		.uleb128 0x1
 4173 1051 53       		.byte	0x53
 4174 1052 02       		.uleb128 0x2
 4175 1053 75       		.byte	0x75
 4176 1054 00       		.sleb128 0
 4177 1055 1C       		.uleb128 0x1c
 4178 1056 02       		.uleb128 0x2
 4179 1057 7D       		.byte	0x7d
 4180 1058 00       		.sleb128 0
 4181 1059 02       		.uleb128 0x2
 4182 105a 76       		.byte	0x76
 4183 105b 00       		.sleb128 0
 4184 105c 00       		.byte	0
 4185 105d 27       		.uleb128 0x27
 4186 105e BC000000 		.4byte	.LVL188
 4187 1062 2E160000 		.4byte	0x162e
ARM GAS  C:\Users\adris\AppData\Local\Temp\ccnf5SFB.s 			page 103


 4188 1066 1E       		.uleb128 0x1e
 4189 1067 CC000000 		.4byte	.LVL189
 4190 106b 3A160000 		.4byte	0x163a
 4191 106f 83100000 		.4byte	0x1083
 4192 1073 1C       		.uleb128 0x1c
 4193 1074 01       		.uleb128 0x1
 4194 1075 51       		.byte	0x51
 4195 1076 01       		.uleb128 0x1
 4196 1077 30       		.byte	0x30
 4197 1078 1C       		.uleb128 0x1c
 4198 1079 01       		.uleb128 0x1
 4199 107a 52       		.byte	0x52
 4200 107b 01       		.uleb128 0x1
 4201 107c 30       		.byte	0x30
 4202 107d 1C       		.uleb128 0x1c
 4203 107e 01       		.uleb128 0x1
 4204 107f 53       		.byte	0x53
 4205 1080 01       		.uleb128 0x1
 4206 1081 30       		.byte	0x30
 4207 1082 00       		.byte	0
 4208 1083 27       		.uleb128 0x27
 4209 1084 D4000000 		.4byte	.LVL190
 4210 1088 46160000 		.4byte	0x1646
 4211 108c 00       		.byte	0
 4212 108d 25       		.uleb128 0x25
 4213 108e 79020000 		.4byte	.LASF93
 4214 1092 01       		.byte	0x1
 4215 1093 1B03     		.2byte	0x31b
 4216 1095 AD000000 		.4byte	0xad
 4217 1099 00000000 		.4byte	.LFB146
 4218 109d 9A000000 		.4byte	.LFE146-.LFB146
 4219 10a1 01       		.uleb128 0x1
 4220 10a2 9C       		.byte	0x9c
 4221 10a3 26120000 		.4byte	0x1226
 4222 10a7 11       		.uleb128 0x11
 4223 10a8 2B020000 		.4byte	.LASF79
 4224 10ac 01       		.byte	0x1
 4225 10ad 1B03     		.2byte	0x31b
 4226 10af 6A010000 		.4byte	0x16a
 4227 10b3 9B0B0000 		.4byte	.LLST70
 4228 10b7 11       		.uleb128 0x11
 4229 10b8 56030000 		.4byte	.LASF72
 4230 10bc 01       		.byte	0x1
 4231 10bd 1C03     		.2byte	0x31c
 4232 10bf C6000000 		.4byte	0xc6
 4233 10c3 B90B0000 		.4byte	.LLST71
 4234 10c7 11       		.uleb128 0x11
 4235 10c8 0D000000 		.4byte	.LASF73
 4236 10cc 01       		.byte	0x1
 4237 10cd 1D03     		.2byte	0x31d
 4238 10cf AD000000 		.4byte	0xad
 4239 10d3 FE0B0000 		.4byte	.LLST72
 4240 10d7 11       		.uleb128 0x11
 4241 10d8 3C030000 		.4byte	.LASF90
 4242 10dc 01       		.byte	0x1
 4243 10dd 1E03     		.2byte	0x31e
 4244 10df A40E0000 		.4byte	0xea4
ARM GAS  C:\Users\adris\AppData\Local\Temp\ccnf5SFB.s 			page 104


 4245 10e3 430C0000 		.4byte	.LLST73
 4246 10e7 12       		.uleb128 0x12
 4247 10e8 15030000 		.4byte	.LASF50
 4248 10ec 01       		.byte	0x1
 4249 10ed 2003     		.2byte	0x320
 4250 10ef 87030000 		.4byte	0x387
 4251 10f3 9B0B0000 		.4byte	.LLST70
 4252 10f7 12       		.uleb128 0x12
 4253 10f8 D5010000 		.4byte	.LASF76
 4254 10fc 01       		.byte	0x1
 4255 10fd 2103     		.2byte	0x321
 4256 10ff AD000000 		.4byte	0xad
 4257 1103 930C0000 		.4byte	.LLST75
 4258 1107 12       		.uleb128 0x12
 4259 1108 F5000000 		.4byte	.LASF69
 4260 110c 01       		.byte	0x1
 4261 110d 2103     		.2byte	0x321
 4262 110f AD000000 		.4byte	0xad
 4263 1113 D40C0000 		.4byte	.LLST76
 4264 1117 1D       		.uleb128 0x1d
 4265 1118 11060000 		.4byte	.LASF74
 4266 111c 01       		.byte	0x1
 4267 111d 2103     		.2byte	0x321
 4268 111f AD000000 		.4byte	0xad
 4269 1123 01       		.uleb128 0x1
 4270 1124 57       		.byte	0x57
 4271 1125 18       		.uleb128 0x18
 4272 1126 03020000 		.4byte	0x203
 4273 112a 02000000 		.4byte	.LBB127
 4274 112e 12000000 		.4byte	.LBE127-.LBB127
 4275 1132 01       		.byte	0x1
 4276 1133 2303     		.2byte	0x323
 4277 1135 49110000 		.4byte	0x1149
 4278 1139 19       		.uleb128 0x19
 4279 113a 02000000 		.4byte	.LBB128
 4280 113e 12000000 		.4byte	.LBE128-.LBB128
 4281 1142 1A       		.uleb128 0x1a
 4282 1143 0F020000 		.4byte	0x20f
 4283 1147 00       		.byte	0
 4284 1148 00       		.byte	0
 4285 1149 18       		.uleb128 0x18
 4286 114a 03020000 		.4byte	0x203
 4287 114e 1E000000 		.4byte	.LBB129
 4288 1152 12000000 		.4byte	.LBE129-.LBB129
 4289 1156 01       		.byte	0x1
 4290 1157 2403     		.2byte	0x324
 4291 1159 6D110000 		.4byte	0x116d
 4292 115d 19       		.uleb128 0x19
 4293 115e 1E000000 		.4byte	.LBB130
 4294 1162 12000000 		.4byte	.LBE130-.LBB130
 4295 1166 1A       		.uleb128 0x1a
 4296 1167 0F020000 		.4byte	0x20f
 4297 116b 00       		.byte	0
 4298 116c 00       		.byte	0
 4299 116d 16       		.uleb128 0x16
 4300 116e 5E000000 		.4byte	.LBB131
 4301 1172 32000000 		.4byte	.LBE131-.LBB131
ARM GAS  C:\Users\adris\AppData\Local\Temp\ccnf5SFB.s 			page 105


 4302 1176 EE110000 		.4byte	0x11ee
 4303 117a 28       		.uleb128 0x28
 4304 117b D9060000 		.4byte	.LASF91
 4305 117f 01       		.byte	0x1
 4306 1180 4203     		.2byte	0x342
 4307 1182 E8000000 		.4byte	0xe8
 4308 1186 18       		.uleb128 0x18
 4309 1187 1B020000 		.4byte	0x21b
 4310 118b 5E000000 		.4byte	.LBB132
 4311 118f 14000000 		.4byte	.LBE132-.LBB132
 4312 1193 01       		.byte	0x1
 4313 1194 4203     		.2byte	0x342
 4314 1196 AF110000 		.4byte	0x11af
 4315 119a 19       		.uleb128 0x19
 4316 119b 5E000000 		.4byte	.LBB133
 4317 119f 14000000 		.4byte	.LBE133-.LBB133
 4318 11a3 1A       		.uleb128 0x1a
 4319 11a4 2B020000 		.4byte	0x22b
 4320 11a8 1A       		.uleb128 0x1a
 4321 11a9 36020000 		.4byte	0x236
 4322 11ad 00       		.byte	0
 4323 11ae 00       		.byte	0
 4324 11af 18       		.uleb128 0x18
 4325 11b0 42020000 		.4byte	0x242
 4326 11b4 8A000000 		.4byte	.LBB134
 4327 11b8 06000000 		.4byte	.LBE134-.LBB134
 4328 11bc 01       		.byte	0x1
 4329 11bd 4203     		.2byte	0x342
 4330 11bf CD110000 		.4byte	0x11cd
 4331 11c3 29       		.uleb128 0x29
 4332 11c4 4E020000 		.4byte	0x24e
 4333 11c8 FD0C0000 		.4byte	.LLST77
 4334 11cc 00       		.byte	0
 4335 11cd 1B       		.uleb128 0x1b
 4336 11ce 86000000 		.4byte	.LVL207
 4337 11d2 52160000 		.4byte	0x1652
 4338 11d6 1C       		.uleb128 0x1c
 4339 11d7 01       		.uleb128 0x1
 4340 11d8 51       		.byte	0x51
 4341 11d9 01       		.uleb128 0x1
 4342 11da 30       		.byte	0x30
 4343 11db 1C       		.uleb128 0x1c
 4344 11dc 01       		.uleb128 0x1
 4345 11dd 52       		.byte	0x52
 4346 11de 01       		.uleb128 0x1
 4347 11df 30       		.byte	0x30
 4348 11e0 1C       		.uleb128 0x1c
 4349 11e1 01       		.uleb128 0x1
 4350 11e2 53       		.byte	0x53
 4351 11e3 01       		.uleb128 0x1
 4352 11e4 30       		.byte	0x30
 4353 11e5 1C       		.uleb128 0x1c
 4354 11e6 02       		.uleb128 0x2
 4355 11e7 7D       		.byte	0x7d
 4356 11e8 00       		.sleb128 0
 4357 11e9 02       		.uleb128 0x2
 4358 11ea 78       		.byte	0x78
ARM GAS  C:\Users\adris\AppData\Local\Temp\ccnf5SFB.s 			page 106


 4359 11eb 00       		.sleb128 0
 4360 11ec 00       		.byte	0
 4361 11ed 00       		.byte	0
 4362 11ee 1E       		.uleb128 0x1e
 4363 11ef 48000000 		.4byte	.LVL200
 4364 11f3 5A020000 		.4byte	0x25a
 4365 11f7 02120000 		.4byte	0x1202
 4366 11fb 1C       		.uleb128 0x1c
 4367 11fc 01       		.uleb128 0x1
 4368 11fd 50       		.byte	0x50
 4369 11fe 02       		.uleb128 0x2
 4370 11ff 74       		.byte	0x74
 4371 1200 00       		.sleb128 0
 4372 1201 00       		.byte	0
 4373 1202 1B       		.uleb128 0x1b
 4374 1203 5A000000 		.4byte	.LVL203
 4375 1207 8E060000 		.4byte	0x68e
 4376 120b 1C       		.uleb128 0x1c
 4377 120c 01       		.uleb128 0x1
 4378 120d 50       		.byte	0x50
 4379 120e 02       		.uleb128 0x2
 4380 120f 74       		.byte	0x74
 4381 1210 00       		.sleb128 0
 4382 1211 1C       		.uleb128 0x1c
 4383 1212 01       		.uleb128 0x1
 4384 1213 51       		.byte	0x51
 4385 1214 02       		.uleb128 0x2
 4386 1215 75       		.byte	0x75
 4387 1216 00       		.sleb128 0
 4388 1217 1C       		.uleb128 0x1c
 4389 1218 01       		.uleb128 0x1
 4390 1219 52       		.byte	0x52
 4391 121a 02       		.uleb128 0x2
 4392 121b 76       		.byte	0x76
 4393 121c 00       		.sleb128 0
 4394 121d 1C       		.uleb128 0x1c
 4395 121e 02       		.uleb128 0x2
 4396 121f 7D       		.byte	0x7d
 4397 1220 00       		.sleb128 0
 4398 1221 02       		.uleb128 0x2
 4399 1222 77       		.byte	0x77
 4400 1223 00       		.sleb128 0
 4401 1224 00       		.byte	0
 4402 1225 00       		.byte	0
 4403 1226 25       		.uleb128 0x25
 4404 1227 CE020000 		.4byte	.LASF94
 4405 122b 01       		.byte	0x1
 4406 122c 8603     		.2byte	0x386
 4407 122e DD000000 		.4byte	0xdd
 4408 1232 00000000 		.4byte	.LFB148
 4409 1236 24000000 		.4byte	.LFE148-.LFB148
 4410 123a 01       		.uleb128 0x1
 4411 123b 9C       		.byte	0x9c
 4412 123c 9D120000 		.4byte	0x129d
 4413 1240 11       		.uleb128 0x11
 4414 1241 2B020000 		.4byte	.LASF79
 4415 1245 01       		.byte	0x1
ARM GAS  C:\Users\adris\AppData\Local\Temp\ccnf5SFB.s 			page 107


 4416 1246 8603     		.2byte	0x386
 4417 1248 6A010000 		.4byte	0x16a
 4418 124c 100D0000 		.4byte	.LLST78
 4419 1250 12       		.uleb128 0x12
 4420 1251 15030000 		.4byte	.LASF50
 4421 1255 01       		.byte	0x1
 4422 1256 8803     		.2byte	0x388
 4423 1258 A0020000 		.4byte	0x2a0
 4424 125c 4A0D0000 		.4byte	.LLST79
 4425 1260 1D       		.uleb128 0x1d
 4426 1261 04070000 		.4byte	.LASF66
 4427 1265 01       		.byte	0x1
 4428 1266 8903     		.2byte	0x389
 4429 1268 DD000000 		.4byte	0xdd
 4430 126c 01       		.uleb128 0x1
 4431 126d 50       		.byte	0x50
 4432 126e 1D       		.uleb128 0x1d
 4433 126f E4040000 		.4byte	.LASF36
 4434 1273 01       		.byte	0x1
 4435 1274 8A03     		.2byte	0x38a
 4436 1276 AD000000 		.4byte	0xad
 4437 127a 01       		.uleb128 0x1
 4438 127b 52       		.byte	0x52
 4439 127c 26       		.uleb128 0x26
 4440 127d 03020000 		.4byte	0x203
 4441 1281 02000000 		.4byte	.LBB136
 4442 1285 12000000 		.4byte	.LBE136-.LBB136
 4443 1289 01       		.byte	0x1
 4444 128a 8C03     		.2byte	0x38c
 4445 128c 19       		.uleb128 0x19
 4446 128d 02000000 		.4byte	.LBB137
 4447 1291 12000000 		.4byte	.LBE137-.LBB137
 4448 1295 1A       		.uleb128 0x1a
 4449 1296 0F020000 		.4byte	0x20f
 4450 129a 00       		.byte	0
 4451 129b 00       		.byte	0
 4452 129c 00       		.byte	0
 4453 129d 25       		.uleb128 0x25
 4454 129e F0060000 		.4byte	.LASF95
 4455 12a2 01       		.byte	0x1
 4456 12a3 9D03     		.2byte	0x39d
 4457 12a5 DD000000 		.4byte	0xdd
 4458 12a9 00000000 		.4byte	.LFB149
 4459 12ad 38000000 		.4byte	.LFE149-.LFB149
 4460 12b1 01       		.uleb128 0x1
 4461 12b2 9C       		.byte	0x9c
 4462 12b3 29130000 		.4byte	0x1329
 4463 12b7 11       		.uleb128 0x11
 4464 12b8 2B020000 		.4byte	.LASF79
 4465 12bc 01       		.byte	0x1
 4466 12bd 9D03     		.2byte	0x39d
 4467 12bf 6A010000 		.4byte	0x16a
 4468 12c3 840D0000 		.4byte	.LLST80
 4469 12c7 1D       		.uleb128 0x1d
 4470 12c8 04070000 		.4byte	.LASF66
 4471 12cc 01       		.byte	0x1
 4472 12cd 9F03     		.2byte	0x39f
ARM GAS  C:\Users\adris\AppData\Local\Temp\ccnf5SFB.s 			page 108


 4473 12cf DD000000 		.4byte	0xdd
 4474 12d3 01       		.uleb128 0x1
 4475 12d4 50       		.byte	0x50
 4476 12d5 1D       		.uleb128 0x1d
 4477 12d6 11060000 		.4byte	.LASF74
 4478 12da 01       		.byte	0x1
 4479 12db A003     		.2byte	0x3a0
 4480 12dd AD000000 		.4byte	0xad
 4481 12e1 01       		.uleb128 0x1
 4482 12e2 54       		.byte	0x54
 4483 12e3 12       		.uleb128 0x12
 4484 12e4 15030000 		.4byte	.LASF50
 4485 12e8 01       		.byte	0x1
 4486 12e9 A103     		.2byte	0x3a1
 4487 12eb A0020000 		.4byte	0x2a0
 4488 12ef B00D0000 		.4byte	.LLST81
 4489 12f3 18       		.uleb128 0x18
 4490 12f4 03020000 		.4byte	0x203
 4491 12f8 02000000 		.4byte	.LBB138
 4492 12fc 12000000 		.4byte	.LBE138-.LBB138
 4493 1300 01       		.byte	0x1
 4494 1301 A303     		.2byte	0x3a3
 4495 1303 17130000 		.4byte	0x1317
 4496 1307 19       		.uleb128 0x19
 4497 1308 02000000 		.4byte	.LBB139
 4498 130c 12000000 		.4byte	.LBE139-.LBB139
 4499 1310 1A       		.uleb128 0x1a
 4500 1311 0F020000 		.4byte	0x20f
 4501 1315 00       		.byte	0
 4502 1316 00       		.byte	0
 4503 1317 1B       		.uleb128 0x1b
 4504 1318 2C000000 		.4byte	.LVL220
 4505 131c DD090000 		.4byte	0x9dd
 4506 1320 1C       		.uleb128 0x1c
 4507 1321 01       		.uleb128 0x1
 4508 1322 50       		.byte	0x50
 4509 1323 03       		.uleb128 0x3
 4510 1324 F3       		.byte	0xf3
 4511 1325 01       		.uleb128 0x1
 4512 1326 50       		.byte	0x50
 4513 1327 00       		.byte	0
 4514 1328 00       		.byte	0
 4515 1329 25       		.uleb128 0x25
 4516 132a 0C070000 		.4byte	.LASF96
 4517 132e 01       		.byte	0x1
 4518 132f C003     		.2byte	0x3c0
 4519 1331 DD000000 		.4byte	0xdd
 4520 1335 00000000 		.4byte	.LFB150
 4521 1339 52000000 		.4byte	.LFE150-.LFB150
 4522 133d 01       		.uleb128 0x1
 4523 133e 9C       		.byte	0x9c
 4524 133f 1C140000 		.4byte	0x141c
 4525 1343 11       		.uleb128 0x11
 4526 1344 2B020000 		.4byte	.LASF79
 4527 1348 01       		.byte	0x1
 4528 1349 C003     		.2byte	0x3c0
 4529 134b 6A010000 		.4byte	0x16a
ARM GAS  C:\Users\adris\AppData\Local\Temp\ccnf5SFB.s 			page 109


 4530 134f DC0D0000 		.4byte	.LLST82
 4531 1353 11       		.uleb128 0x11
 4532 1354 3C030000 		.4byte	.LASF90
 4533 1358 01       		.byte	0x1
 4534 1359 C003     		.2byte	0x3c0
 4535 135b 9E0E0000 		.4byte	0xe9e
 4536 135f 100E0000 		.4byte	.LLST83
 4537 1363 12       		.uleb128 0x12
 4538 1364 15030000 		.4byte	.LASF50
 4539 1368 01       		.byte	0x1
 4540 1369 C203     		.2byte	0x3c2
 4541 136b 87030000 		.4byte	0x387
 4542 136f DC0D0000 		.4byte	.LLST82
 4543 1373 12       		.uleb128 0x12
 4544 1374 04070000 		.4byte	.LASF66
 4545 1378 01       		.byte	0x1
 4546 1379 C303     		.2byte	0x3c3
 4547 137b DD000000 		.4byte	0xdd
 4548 137f 560E0000 		.4byte	.LLST85
 4549 1383 28       		.uleb128 0x28
 4550 1384 D9060000 		.4byte	.LASF91
 4551 1388 01       		.byte	0x1
 4552 1389 C403     		.2byte	0x3c4
 4553 138b E8000000 		.4byte	0xe8
 4554 138f 18       		.uleb128 0x18
 4555 1390 03020000 		.4byte	0x203
 4556 1394 02000000 		.4byte	.LBB140
 4557 1398 12000000 		.4byte	.LBE140-.LBB140
 4558 139c 01       		.byte	0x1
 4559 139d C603     		.2byte	0x3c6
 4560 139f B3130000 		.4byte	0x13b3
 4561 13a3 19       		.uleb128 0x19
 4562 13a4 02000000 		.4byte	.LBB141
 4563 13a8 12000000 		.4byte	.LBE141-.LBB141
 4564 13ac 1A       		.uleb128 0x1a
 4565 13ad 0F020000 		.4byte	0x20f
 4566 13b1 00       		.byte	0
 4567 13b2 00       		.byte	0
 4568 13b3 18       		.uleb128 0x18
 4569 13b4 1B020000 		.4byte	0x21b
 4570 13b8 1A000000 		.4byte	.LBB142
 4571 13bc 14000000 		.4byte	.LBE142-.LBB142
 4572 13c0 01       		.byte	0x1
 4573 13c1 C803     		.2byte	0x3c8
 4574 13c3 DC130000 		.4byte	0x13dc
 4575 13c7 19       		.uleb128 0x19
 4576 13c8 1A000000 		.4byte	.LBB143
 4577 13cc 14000000 		.4byte	.LBE143-.LBB143
 4578 13d0 1A       		.uleb128 0x1a
 4579 13d1 2B020000 		.4byte	0x22b
 4580 13d5 1A       		.uleb128 0x1a
 4581 13d6 36020000 		.4byte	0x236
 4582 13da 00       		.byte	0
 4583 13db 00       		.byte	0
 4584 13dc 18       		.uleb128 0x18
 4585 13dd 42020000 		.4byte	0x242
 4586 13e1 4A000000 		.4byte	.LBB144
ARM GAS  C:\Users\adris\AppData\Local\Temp\ccnf5SFB.s 			page 110


 4587 13e5 04000000 		.4byte	.LBE144-.LBB144
 4588 13e9 01       		.byte	0x1
 4589 13ea D803     		.2byte	0x3d8
 4590 13ec FA130000 		.4byte	0x13fa
 4591 13f0 29       		.uleb128 0x29
 4592 13f1 4E020000 		.4byte	0x24e
 4593 13f5 750E0000 		.4byte	.LLST86
 4594 13f9 00       		.byte	0
 4595 13fa 1B       		.uleb128 0x1b
 4596 13fb 40000000 		.4byte	.LVL227
 4597 13ff 52160000 		.4byte	0x1652
 4598 1403 1C       		.uleb128 0x1c
 4599 1404 01       		.uleb128 0x1
 4600 1405 51       		.byte	0x51
 4601 1406 01       		.uleb128 0x1
 4602 1407 30       		.byte	0x30
 4603 1408 1C       		.uleb128 0x1c
 4604 1409 01       		.uleb128 0x1
 4605 140a 52       		.byte	0x52
 4606 140b 01       		.uleb128 0x1
 4607 140c 30       		.byte	0x30
 4608 140d 1C       		.uleb128 0x1c
 4609 140e 01       		.uleb128 0x1
 4610 140f 53       		.byte	0x53
 4611 1410 01       		.uleb128 0x1
 4612 1411 30       		.byte	0x30
 4613 1412 1C       		.uleb128 0x1c
 4614 1413 02       		.uleb128 0x2
 4615 1414 7D       		.byte	0x7d
 4616 1415 00       		.sleb128 0
 4617 1416 03       		.uleb128 0x3
 4618 1417 F3       		.byte	0xf3
 4619 1418 01       		.uleb128 0x1
 4620 1419 51       		.byte	0x51
 4621 141a 00       		.byte	0
 4622 141b 00       		.byte	0
 4623 141c 25       		.uleb128 0x25
 4624 141d D0000000 		.4byte	.LASF97
 4625 1421 01       		.byte	0x1
 4626 1422 DE03     		.2byte	0x3de
 4627 1424 DD000000 		.4byte	0xdd
 4628 1428 00000000 		.4byte	.LFB151
 4629 142c 52000000 		.4byte	.LFE151-.LFB151
 4630 1430 01       		.uleb128 0x1
 4631 1431 9C       		.byte	0x9c
 4632 1432 0F150000 		.4byte	0x150f
 4633 1436 11       		.uleb128 0x11
 4634 1437 2B020000 		.4byte	.LASF79
 4635 143b 01       		.byte	0x1
 4636 143c DE03     		.2byte	0x3de
 4637 143e 6A010000 		.4byte	0x16a
 4638 1442 880E0000 		.4byte	.LLST87
 4639 1446 11       		.uleb128 0x11
 4640 1447 3C030000 		.4byte	.LASF90
 4641 144b 01       		.byte	0x1
 4642 144c DE03     		.2byte	0x3de
 4643 144e 9E0E0000 		.4byte	0xe9e
ARM GAS  C:\Users\adris\AppData\Local\Temp\ccnf5SFB.s 			page 111


 4644 1452 BC0E0000 		.4byte	.LLST88
 4645 1456 12       		.uleb128 0x12
 4646 1457 15030000 		.4byte	.LASF50
 4647 145b 01       		.byte	0x1
 4648 145c E003     		.2byte	0x3e0
 4649 145e 87030000 		.4byte	0x387
 4650 1462 880E0000 		.4byte	.LLST87
 4651 1466 12       		.uleb128 0x12
 4652 1467 04070000 		.4byte	.LASF66
 4653 146b 01       		.byte	0x1
 4654 146c E103     		.2byte	0x3e1
 4655 146e DD000000 		.4byte	0xdd
 4656 1472 020F0000 		.4byte	.LLST90
 4657 1476 28       		.uleb128 0x28
 4658 1477 D9060000 		.4byte	.LASF91
 4659 147b 01       		.byte	0x1
 4660 147c E203     		.2byte	0x3e2
 4661 147e E8000000 		.4byte	0xe8
 4662 1482 18       		.uleb128 0x18
 4663 1483 03020000 		.4byte	0x203
 4664 1487 02000000 		.4byte	.LBB146
 4665 148b 12000000 		.4byte	.LBE146-.LBB146
 4666 148f 01       		.byte	0x1
 4667 1490 E403     		.2byte	0x3e4
 4668 1492 A6140000 		.4byte	0x14a6
 4669 1496 19       		.uleb128 0x19
 4670 1497 02000000 		.4byte	.LBB147
 4671 149b 12000000 		.4byte	.LBE147-.LBB147
 4672 149f 1A       		.uleb128 0x1a
 4673 14a0 0F020000 		.4byte	0x20f
 4674 14a4 00       		.byte	0
 4675 14a5 00       		.byte	0
 4676 14a6 18       		.uleb128 0x18
 4677 14a7 1B020000 		.4byte	0x21b
 4678 14ab 1A000000 		.4byte	.LBB148
 4679 14af 14000000 		.4byte	.LBE148-.LBB148
 4680 14b3 01       		.byte	0x1
 4681 14b4 E603     		.2byte	0x3e6
 4682 14b6 CF140000 		.4byte	0x14cf
 4683 14ba 19       		.uleb128 0x19
 4684 14bb 1A000000 		.4byte	.LBB149
 4685 14bf 14000000 		.4byte	.LBE149-.LBB149
 4686 14c3 1A       		.uleb128 0x1a
 4687 14c4 2B020000 		.4byte	0x22b
 4688 14c8 1A       		.uleb128 0x1a
 4689 14c9 36020000 		.4byte	0x236
 4690 14cd 00       		.byte	0
 4691 14ce 00       		.byte	0
 4692 14cf 18       		.uleb128 0x18
 4693 14d0 42020000 		.4byte	0x242
 4694 14d4 4A000000 		.4byte	.LBB150
 4695 14d8 04000000 		.4byte	.LBE150-.LBB150
 4696 14dc 01       		.byte	0x1
 4697 14dd F603     		.2byte	0x3f6
 4698 14df ED140000 		.4byte	0x14ed
 4699 14e3 29       		.uleb128 0x29
 4700 14e4 4E020000 		.4byte	0x24e
ARM GAS  C:\Users\adris\AppData\Local\Temp\ccnf5SFB.s 			page 112


 4701 14e8 210F0000 		.4byte	.LLST91
 4702 14ec 00       		.byte	0
 4703 14ed 1B       		.uleb128 0x1b
 4704 14ee 40000000 		.4byte	.LVL236
 4705 14f2 52160000 		.4byte	0x1652
 4706 14f6 1C       		.uleb128 0x1c
 4707 14f7 01       		.uleb128 0x1
 4708 14f8 51       		.byte	0x51
 4709 14f9 01       		.uleb128 0x1
 4710 14fa 30       		.byte	0x30
 4711 14fb 1C       		.uleb128 0x1c
 4712 14fc 01       		.uleb128 0x1
 4713 14fd 52       		.byte	0x52
 4714 14fe 01       		.uleb128 0x1
 4715 14ff 30       		.byte	0x30
 4716 1500 1C       		.uleb128 0x1c
 4717 1501 01       		.uleb128 0x1
 4718 1502 53       		.byte	0x53
 4719 1503 01       		.uleb128 0x1
 4720 1504 30       		.byte	0x30
 4721 1505 1C       		.uleb128 0x1c
 4722 1506 02       		.uleb128 0x2
 4723 1507 7D       		.byte	0x7d
 4724 1508 00       		.sleb128 0
 4725 1509 03       		.uleb128 0x3
 4726 150a F3       		.byte	0xf3
 4727 150b 01       		.uleb128 0x1
 4728 150c 51       		.byte	0x51
 4729 150d 00       		.byte	0
 4730 150e 00       		.byte	0
 4731 150f 25       		.uleb128 0x25
 4732 1510 03080000 		.4byte	.LASF98
 4733 1514 01       		.byte	0x1
 4734 1515 9504     		.2byte	0x495
 4735 1517 E8000000 		.4byte	0xe8
 4736 151b 00000000 		.4byte	.LFB156
 4737 151f 04000000 		.4byte	.LFE156-.LFB156
 4738 1523 01       		.uleb128 0x1
 4739 1524 9C       		.byte	0x9c
 4740 1525 3A150000 		.4byte	0x153a
 4741 1529 11       		.uleb128 0x11
 4742 152a 2B020000 		.4byte	.LASF79
 4743 152e 01       		.byte	0x1
 4744 152f 9504     		.2byte	0x495
 4745 1531 6A010000 		.4byte	0x16a
 4746 1535 340F0000 		.4byte	.LLST92
 4747 1539 00       		.byte	0
 4748 153a 24       		.uleb128 0x24
 4749 153b 58060000 		.4byte	.LASF100
 4750 153f 01       		.byte	0x1
 4751 1540 9F04     		.2byte	0x49f
 4752 1542 00000000 		.4byte	.LFB157
 4753 1546 04000000 		.4byte	.LFE157-.LFB157
 4754 154a 01       		.uleb128 0x1
 4755 154b 9C       		.byte	0x9c
 4756 154c 6D150000 		.4byte	0x156d
 4757 1550 15       		.uleb128 0x15
ARM GAS  C:\Users\adris\AppData\Local\Temp\ccnf5SFB.s 			page 113


 4758 1551 2B020000 		.4byte	.LASF79
 4759 1555 01       		.byte	0x1
 4760 1556 9F04     		.2byte	0x49f
 4761 1558 6A010000 		.4byte	0x16a
 4762 155c 01       		.uleb128 0x1
 4763 155d 50       		.byte	0x50
 4764 155e 15       		.uleb128 0x15
 4765 155f 6C050000 		.4byte	.LASF44
 4766 1563 01       		.byte	0x1
 4767 1564 9F04     		.2byte	0x49f
 4768 1566 E8000000 		.4byte	0xe8
 4769 156a 01       		.uleb128 0x1
 4770 156b 51       		.byte	0x51
 4771 156c 00       		.byte	0
 4772 156d 25       		.uleb128 0x25
 4773 156e 31050000 		.4byte	.LASF101
 4774 1572 01       		.byte	0x1
 4775 1573 A904     		.2byte	0x4a9
 4776 1575 8C000000 		.4byte	0x8c
 4777 1579 00000000 		.4byte	.LFB158
 4778 157d 08000000 		.4byte	.LFE158-.LFB158
 4779 1581 01       		.uleb128 0x1
 4780 1582 9C       		.byte	0x9c
 4781 1583 98150000 		.4byte	0x1598
 4782 1587 11       		.uleb128 0x11
 4783 1588 2B020000 		.4byte	.LASF79
 4784 158c 01       		.byte	0x1
 4785 158d A904     		.2byte	0x4a9
 4786 158f 6A010000 		.4byte	0x16a
 4787 1593 550F0000 		.4byte	.LLST93
 4788 1597 00       		.byte	0
 4789 1598 2A       		.uleb128 0x2a
 4790 1599 35080000 		.4byte	.LASF123
 4791 159d 0A       		.byte	0xa
 4792 159e F907     		.2byte	0x7f9
 4793 15a0 A4150000 		.4byte	0x15a4
 4794 15a4 0B       		.uleb128 0xb
 4795 15a5 97000000 		.4byte	0x97
 4796 15a9 2B       		.uleb128 0x2b
 4797 15aa 95020000 		.4byte	.LASF102
 4798 15ae 95020000 		.4byte	.LASF102
 4799 15b2 08       		.byte	0x8
 4800 15b3 19       		.byte	0x19
 4801 15b4 2C       		.uleb128 0x2c
 4802 15b5 95020000 		.4byte	.LASF102
 4803 15b9 95020000 		.4byte	.LASF102
 4804 15bd 2C       		.uleb128 0x2c
 4805 15be 22010000 		.4byte	.LASF103
 4806 15c2 22010000 		.4byte	.LASF103
 4807 15c6 2B       		.uleb128 0x2b
 4808 15c7 88080000 		.4byte	.LASF104
 4809 15cb 88080000 		.4byte	.LASF104
 4810 15cf 09       		.byte	0x9
 4811 15d0 81       		.byte	0x81
 4812 15d1 2B       		.uleb128 0x2b
 4813 15d2 CA040000 		.4byte	.LASF105
 4814 15d6 CA040000 		.4byte	.LASF105
ARM GAS  C:\Users\adris\AppData\Local\Temp\ccnf5SFB.s 			page 114


 4815 15da 09       		.byte	0x9
 4816 15db 82       		.byte	0x82
 4817 15dc 2D       		.uleb128 0x2d
 4818 15dd 8E010000 		.4byte	.LASF106
 4819 15e1 8E010000 		.4byte	.LASF106
 4820 15e5 06       		.byte	0x6
 4821 15e6 C008     		.2byte	0x8c0
 4822 15e8 2B       		.uleb128 0x2b
 4823 15e9 B7040000 		.4byte	.LASF107
 4824 15ed B7040000 		.4byte	.LASF107
 4825 15f1 02       		.byte	0x2
 4826 15f2 61       		.byte	0x61
 4827 15f3 2D       		.uleb128 0x2d
 4828 15f4 86060000 		.4byte	.LASF108
 4829 15f8 86060000 		.4byte	.LASF108
 4830 15fc 06       		.byte	0x6
 4831 15fd 4708     		.2byte	0x847
 4832 15ff 2D       		.uleb128 0x2d
 4833 1600 DB050000 		.4byte	.LASF109
 4834 1604 DB050000 		.4byte	.LASF109
 4835 1608 06       		.byte	0x6
 4836 1609 BB08     		.2byte	0x8bb
 4837 160b 2B       		.uleb128 0x2b
 4838 160c 94050000 		.4byte	.LASF110
 4839 1610 94050000 		.4byte	.LASF110
 4840 1614 02       		.byte	0x2
 4841 1615 62       		.byte	0x62
 4842 1616 2D       		.uleb128 0x2d
 4843 1617 3F020000 		.4byte	.LASF111
 4844 161b 3F020000 		.4byte	.LASF111
 4845 161f 06       		.byte	0x6
 4846 1620 8D07     		.2byte	0x78d
 4847 1622 2D       		.uleb128 0x2d
 4848 1623 ED020000 		.4byte	.LASF112
 4849 1627 ED020000 		.4byte	.LASF112
 4850 162b 06       		.byte	0x6
 4851 162c C608     		.2byte	0x8c6
 4852 162e 2D       		.uleb128 0x2d
 4853 162f 95080000 		.4byte	.LASF113
 4854 1633 95080000 		.4byte	.LASF113
 4855 1637 06       		.byte	0x6
 4856 1638 F904     		.2byte	0x4f9
 4857 163a 2D       		.uleb128 0x2d
 4858 163b A6050000 		.4byte	.LASF114
 4859 163f A6050000 		.4byte	.LASF114
 4860 1643 06       		.byte	0x6
 4861 1644 E506     		.2byte	0x6e5
 4862 1646 2D       		.uleb128 0x2d
 4863 1647 95040000 		.4byte	.LASF115
 4864 164b 95040000 		.4byte	.LASF115
 4865 164f 06       		.byte	0x6
 4866 1650 2F05     		.2byte	0x52f
 4867 1652 2D       		.uleb128 0x2d
 4868 1653 44010000 		.4byte	.LASF116
 4869 1657 44010000 		.4byte	.LASF116
 4870 165b 06       		.byte	0x6
 4871 165c 4007     		.2byte	0x740
ARM GAS  C:\Users\adris\AppData\Local\Temp\ccnf5SFB.s 			page 115


 4872 165e 00       		.byte	0
 4873              		.section	.debug_abbrev,"",%progbits
 4874              	.Ldebug_abbrev0:
 4875 0000 01       		.uleb128 0x1
 4876 0001 11       		.uleb128 0x11
 4877 0002 01       		.byte	0x1
 4878 0003 25       		.uleb128 0x25
 4879 0004 0E       		.uleb128 0xe
 4880 0005 13       		.uleb128 0x13
 4881 0006 0B       		.uleb128 0xb
 4882 0007 03       		.uleb128 0x3
 4883 0008 0E       		.uleb128 0xe
 4884 0009 1B       		.uleb128 0x1b
 4885 000a 0E       		.uleb128 0xe
 4886 000b 55       		.uleb128 0x55
 4887 000c 17       		.uleb128 0x17
 4888 000d 11       		.uleb128 0x11
 4889 000e 01       		.uleb128 0x1
 4890 000f 10       		.uleb128 0x10
 4891 0010 17       		.uleb128 0x17
 4892 0011 00       		.byte	0
 4893 0012 00       		.byte	0
 4894 0013 02       		.uleb128 0x2
 4895 0014 24       		.uleb128 0x24
 4896 0015 00       		.byte	0
 4897 0016 0B       		.uleb128 0xb
 4898 0017 0B       		.uleb128 0xb
 4899 0018 3E       		.uleb128 0x3e
 4900 0019 0B       		.uleb128 0xb
 4901 001a 03       		.uleb128 0x3
 4902 001b 0E       		.uleb128 0xe
 4903 001c 00       		.byte	0
 4904 001d 00       		.byte	0
 4905 001e 03       		.uleb128 0x3
 4906 001f 16       		.uleb128 0x16
 4907 0020 00       		.byte	0
 4908 0021 03       		.uleb128 0x3
 4909 0022 0E       		.uleb128 0xe
 4910 0023 3A       		.uleb128 0x3a
 4911 0024 0B       		.uleb128 0xb
 4912 0025 3B       		.uleb128 0x3b
 4913 0026 0B       		.uleb128 0xb
 4914 0027 49       		.uleb128 0x49
 4915 0028 13       		.uleb128 0x13
 4916 0029 00       		.byte	0
 4917 002a 00       		.byte	0
 4918 002b 04       		.uleb128 0x4
 4919 002c 24       		.uleb128 0x24
 4920 002d 00       		.byte	0
 4921 002e 0B       		.uleb128 0xb
 4922 002f 0B       		.uleb128 0xb
 4923 0030 3E       		.uleb128 0x3e
 4924 0031 0B       		.uleb128 0xb
 4925 0032 03       		.uleb128 0x3
 4926 0033 08       		.uleb128 0x8
 4927 0034 00       		.byte	0
 4928 0035 00       		.byte	0
ARM GAS  C:\Users\adris\AppData\Local\Temp\ccnf5SFB.s 			page 116


 4929 0036 05       		.uleb128 0x5
 4930 0037 0F       		.uleb128 0xf
 4931 0038 00       		.byte	0
 4932 0039 0B       		.uleb128 0xb
 4933 003a 0B       		.uleb128 0xb
 4934 003b 00       		.byte	0
 4935 003c 00       		.byte	0
 4936 003d 06       		.uleb128 0x6
 4937 003e 0F       		.uleb128 0xf
 4938 003f 00       		.byte	0
 4939 0040 0B       		.uleb128 0xb
 4940 0041 0B       		.uleb128 0xb
 4941 0042 49       		.uleb128 0x49
 4942 0043 13       		.uleb128 0x13
 4943 0044 00       		.byte	0
 4944 0045 00       		.byte	0
 4945 0046 07       		.uleb128 0x7
 4946 0047 04       		.uleb128 0x4
 4947 0048 01       		.byte	0x1
 4948 0049 0B       		.uleb128 0xb
 4949 004a 0B       		.uleb128 0xb
 4950 004b 49       		.uleb128 0x49
 4951 004c 13       		.uleb128 0x13
 4952 004d 3A       		.uleb128 0x3a
 4953 004e 0B       		.uleb128 0xb
 4954 004f 3B       		.uleb128 0x3b
 4955 0050 0B       		.uleb128 0xb
 4956 0051 01       		.uleb128 0x1
 4957 0052 13       		.uleb128 0x13
 4958 0053 00       		.byte	0
 4959 0054 00       		.byte	0
 4960 0055 08       		.uleb128 0x8
 4961 0056 28       		.uleb128 0x28
 4962 0057 00       		.byte	0
 4963 0058 03       		.uleb128 0x3
 4964 0059 0E       		.uleb128 0xe
 4965 005a 1C       		.uleb128 0x1c
 4966 005b 0B       		.uleb128 0xb
 4967 005c 00       		.byte	0
 4968 005d 00       		.byte	0
 4969 005e 09       		.uleb128 0x9
 4970 005f 13       		.uleb128 0x13
 4971 0060 01       		.byte	0x1
 4972 0061 03       		.uleb128 0x3
 4973 0062 0E       		.uleb128 0xe
 4974 0063 0B       		.uleb128 0xb
 4975 0064 0B       		.uleb128 0xb
 4976 0065 3A       		.uleb128 0x3a
 4977 0066 0B       		.uleb128 0xb
 4978 0067 3B       		.uleb128 0x3b
 4979 0068 0B       		.uleb128 0xb
 4980 0069 01       		.uleb128 0x1
 4981 006a 13       		.uleb128 0x13
 4982 006b 00       		.byte	0
 4983 006c 00       		.byte	0
 4984 006d 0A       		.uleb128 0xa
 4985 006e 0D       		.uleb128 0xd
ARM GAS  C:\Users\adris\AppData\Local\Temp\ccnf5SFB.s 			page 117


 4986 006f 00       		.byte	0
 4987 0070 03       		.uleb128 0x3
 4988 0071 0E       		.uleb128 0xe
 4989 0072 3A       		.uleb128 0x3a
 4990 0073 0B       		.uleb128 0xb
 4991 0074 3B       		.uleb128 0x3b
 4992 0075 0B       		.uleb128 0xb
 4993 0076 49       		.uleb128 0x49
 4994 0077 13       		.uleb128 0x13
 4995 0078 38       		.uleb128 0x38
 4996 0079 0B       		.uleb128 0xb
 4997 007a 00       		.byte	0
 4998 007b 00       		.byte	0
 4999 007c 0B       		.uleb128 0xb
 5000 007d 35       		.uleb128 0x35
 5001 007e 00       		.byte	0
 5002 007f 49       		.uleb128 0x49
 5003 0080 13       		.uleb128 0x13
 5004 0081 00       		.byte	0
 5005 0082 00       		.byte	0
 5006 0083 0C       		.uleb128 0xc
 5007 0084 2E       		.uleb128 0x2e
 5008 0085 01       		.byte	0x1
 5009 0086 03       		.uleb128 0x3
 5010 0087 0E       		.uleb128 0xe
 5011 0088 3A       		.uleb128 0x3a
 5012 0089 0B       		.uleb128 0xb
 5013 008a 3B       		.uleb128 0x3b
 5014 008b 0B       		.uleb128 0xb
 5015 008c 27       		.uleb128 0x27
 5016 008d 19       		.uleb128 0x19
 5017 008e 20       		.uleb128 0x20
 5018 008f 0B       		.uleb128 0xb
 5019 0090 01       		.uleb128 0x1
 5020 0091 13       		.uleb128 0x13
 5021 0092 00       		.byte	0
 5022 0093 00       		.byte	0
 5023 0094 0D       		.uleb128 0xd
 5024 0095 34       		.uleb128 0x34
 5025 0096 00       		.byte	0
 5026 0097 03       		.uleb128 0x3
 5027 0098 0E       		.uleb128 0xe
 5028 0099 3A       		.uleb128 0x3a
 5029 009a 0B       		.uleb128 0xb
 5030 009b 3B       		.uleb128 0x3b
 5031 009c 0B       		.uleb128 0xb
 5032 009d 49       		.uleb128 0x49
 5033 009e 13       		.uleb128 0x13
 5034 009f 00       		.byte	0
 5035 00a0 00       		.byte	0
 5036 00a1 0E       		.uleb128 0xe
 5037 00a2 2E       		.uleb128 0x2e
 5038 00a3 01       		.byte	0x1
 5039 00a4 03       		.uleb128 0x3
 5040 00a5 0E       		.uleb128 0xe
 5041 00a6 3A       		.uleb128 0x3a
 5042 00a7 0B       		.uleb128 0xb
ARM GAS  C:\Users\adris\AppData\Local\Temp\ccnf5SFB.s 			page 118


 5043 00a8 3B       		.uleb128 0x3b
 5044 00a9 0B       		.uleb128 0xb
 5045 00aa 27       		.uleb128 0x27
 5046 00ab 19       		.uleb128 0x19
 5047 00ac 49       		.uleb128 0x49
 5048 00ad 13       		.uleb128 0x13
 5049 00ae 20       		.uleb128 0x20
 5050 00af 0B       		.uleb128 0xb
 5051 00b0 01       		.uleb128 0x1
 5052 00b1 13       		.uleb128 0x13
 5053 00b2 00       		.byte	0
 5054 00b3 00       		.byte	0
 5055 00b4 0F       		.uleb128 0xf
 5056 00b5 05       		.uleb128 0x5
 5057 00b6 00       		.byte	0
 5058 00b7 03       		.uleb128 0x3
 5059 00b8 0E       		.uleb128 0xe
 5060 00b9 3A       		.uleb128 0x3a
 5061 00ba 0B       		.uleb128 0xb
 5062 00bb 3B       		.uleb128 0x3b
 5063 00bc 0B       		.uleb128 0xb
 5064 00bd 49       		.uleb128 0x49
 5065 00be 13       		.uleb128 0x13
 5066 00bf 00       		.byte	0
 5067 00c0 00       		.byte	0
 5068 00c1 10       		.uleb128 0x10
 5069 00c2 2E       		.uleb128 0x2e
 5070 00c3 01       		.byte	0x1
 5071 00c4 03       		.uleb128 0x3
 5072 00c5 0E       		.uleb128 0xe
 5073 00c6 3A       		.uleb128 0x3a
 5074 00c7 0B       		.uleb128 0xb
 5075 00c8 3B       		.uleb128 0x3b
 5076 00c9 05       		.uleb128 0x5
 5077 00ca 27       		.uleb128 0x27
 5078 00cb 19       		.uleb128 0x19
 5079 00cc 49       		.uleb128 0x49
 5080 00cd 13       		.uleb128 0x13
 5081 00ce 11       		.uleb128 0x11
 5082 00cf 01       		.uleb128 0x1
 5083 00d0 12       		.uleb128 0x12
 5084 00d1 06       		.uleb128 0x6
 5085 00d2 40       		.uleb128 0x40
 5086 00d3 18       		.uleb128 0x18
 5087 00d4 9742     		.uleb128 0x2117
 5088 00d6 19       		.uleb128 0x19
 5089 00d7 01       		.uleb128 0x1
 5090 00d8 13       		.uleb128 0x13
 5091 00d9 00       		.byte	0
 5092 00da 00       		.byte	0
 5093 00db 11       		.uleb128 0x11
 5094 00dc 05       		.uleb128 0x5
 5095 00dd 00       		.byte	0
 5096 00de 03       		.uleb128 0x3
 5097 00df 0E       		.uleb128 0xe
 5098 00e0 3A       		.uleb128 0x3a
 5099 00e1 0B       		.uleb128 0xb
ARM GAS  C:\Users\adris\AppData\Local\Temp\ccnf5SFB.s 			page 119


 5100 00e2 3B       		.uleb128 0x3b
 5101 00e3 05       		.uleb128 0x5
 5102 00e4 49       		.uleb128 0x49
 5103 00e5 13       		.uleb128 0x13
 5104 00e6 02       		.uleb128 0x2
 5105 00e7 17       		.uleb128 0x17
 5106 00e8 00       		.byte	0
 5107 00e9 00       		.byte	0
 5108 00ea 12       		.uleb128 0x12
 5109 00eb 34       		.uleb128 0x34
 5110 00ec 00       		.byte	0
 5111 00ed 03       		.uleb128 0x3
 5112 00ee 0E       		.uleb128 0xe
 5113 00ef 3A       		.uleb128 0x3a
 5114 00f0 0B       		.uleb128 0xb
 5115 00f1 3B       		.uleb128 0x3b
 5116 00f2 05       		.uleb128 0x5
 5117 00f3 49       		.uleb128 0x49
 5118 00f4 13       		.uleb128 0x13
 5119 00f5 02       		.uleb128 0x2
 5120 00f6 17       		.uleb128 0x17
 5121 00f7 00       		.byte	0
 5122 00f8 00       		.byte	0
 5123 00f9 13       		.uleb128 0x13
 5124 00fa 26       		.uleb128 0x26
 5125 00fb 00       		.byte	0
 5126 00fc 49       		.uleb128 0x49
 5127 00fd 13       		.uleb128 0x13
 5128 00fe 00       		.byte	0
 5129 00ff 00       		.byte	0
 5130 0100 14       		.uleb128 0x14
 5131 0101 2E       		.uleb128 0x2e
 5132 0102 01       		.byte	0x1
 5133 0103 03       		.uleb128 0x3
 5134 0104 0E       		.uleb128 0xe
 5135 0105 3A       		.uleb128 0x3a
 5136 0106 0B       		.uleb128 0xb
 5137 0107 3B       		.uleb128 0x3b
 5138 0108 05       		.uleb128 0x5
 5139 0109 27       		.uleb128 0x27
 5140 010a 19       		.uleb128 0x19
 5141 010b 11       		.uleb128 0x11
 5142 010c 01       		.uleb128 0x1
 5143 010d 12       		.uleb128 0x12
 5144 010e 06       		.uleb128 0x6
 5145 010f 40       		.uleb128 0x40
 5146 0110 18       		.uleb128 0x18
 5147 0111 9742     		.uleb128 0x2117
 5148 0113 19       		.uleb128 0x19
 5149 0114 01       		.uleb128 0x1
 5150 0115 13       		.uleb128 0x13
 5151 0116 00       		.byte	0
 5152 0117 00       		.byte	0
 5153 0118 15       		.uleb128 0x15
 5154 0119 05       		.uleb128 0x5
 5155 011a 00       		.byte	0
 5156 011b 03       		.uleb128 0x3
ARM GAS  C:\Users\adris\AppData\Local\Temp\ccnf5SFB.s 			page 120


 5157 011c 0E       		.uleb128 0xe
 5158 011d 3A       		.uleb128 0x3a
 5159 011e 0B       		.uleb128 0xb
 5160 011f 3B       		.uleb128 0x3b
 5161 0120 05       		.uleb128 0x5
 5162 0121 49       		.uleb128 0x49
 5163 0122 13       		.uleb128 0x13
 5164 0123 02       		.uleb128 0x2
 5165 0124 18       		.uleb128 0x18
 5166 0125 00       		.byte	0
 5167 0126 00       		.byte	0
 5168 0127 16       		.uleb128 0x16
 5169 0128 0B       		.uleb128 0xb
 5170 0129 01       		.byte	0x1
 5171 012a 11       		.uleb128 0x11
 5172 012b 01       		.uleb128 0x1
 5173 012c 12       		.uleb128 0x12
 5174 012d 06       		.uleb128 0x6
 5175 012e 01       		.uleb128 0x1
 5176 012f 13       		.uleb128 0x13
 5177 0130 00       		.byte	0
 5178 0131 00       		.byte	0
 5179 0132 17       		.uleb128 0x17
 5180 0133 34       		.uleb128 0x34
 5181 0134 00       		.byte	0
 5182 0135 03       		.uleb128 0x3
 5183 0136 0E       		.uleb128 0xe
 5184 0137 3A       		.uleb128 0x3a
 5185 0138 0B       		.uleb128 0xb
 5186 0139 3B       		.uleb128 0x3b
 5187 013a 05       		.uleb128 0x5
 5188 013b 49       		.uleb128 0x49
 5189 013c 13       		.uleb128 0x13
 5190 013d 1C       		.uleb128 0x1c
 5191 013e 0B       		.uleb128 0xb
 5192 013f 00       		.byte	0
 5193 0140 00       		.byte	0
 5194 0141 18       		.uleb128 0x18
 5195 0142 1D       		.uleb128 0x1d
 5196 0143 01       		.byte	0x1
 5197 0144 31       		.uleb128 0x31
 5198 0145 13       		.uleb128 0x13
 5199 0146 11       		.uleb128 0x11
 5200 0147 01       		.uleb128 0x1
 5201 0148 12       		.uleb128 0x12
 5202 0149 06       		.uleb128 0x6
 5203 014a 58       		.uleb128 0x58
 5204 014b 0B       		.uleb128 0xb
 5205 014c 59       		.uleb128 0x59
 5206 014d 05       		.uleb128 0x5
 5207 014e 01       		.uleb128 0x1
 5208 014f 13       		.uleb128 0x13
 5209 0150 00       		.byte	0
 5210 0151 00       		.byte	0
 5211 0152 19       		.uleb128 0x19
 5212 0153 0B       		.uleb128 0xb
 5213 0154 01       		.byte	0x1
ARM GAS  C:\Users\adris\AppData\Local\Temp\ccnf5SFB.s 			page 121


 5214 0155 11       		.uleb128 0x11
 5215 0156 01       		.uleb128 0x1
 5216 0157 12       		.uleb128 0x12
 5217 0158 06       		.uleb128 0x6
 5218 0159 00       		.byte	0
 5219 015a 00       		.byte	0
 5220 015b 1A       		.uleb128 0x1a
 5221 015c 34       		.uleb128 0x34
 5222 015d 00       		.byte	0
 5223 015e 31       		.uleb128 0x31
 5224 015f 13       		.uleb128 0x13
 5225 0160 00       		.byte	0
 5226 0161 00       		.byte	0
 5227 0162 1B       		.uleb128 0x1b
 5228 0163 898201   		.uleb128 0x4109
 5229 0166 01       		.byte	0x1
 5230 0167 11       		.uleb128 0x11
 5231 0168 01       		.uleb128 0x1
 5232 0169 31       		.uleb128 0x31
 5233 016a 13       		.uleb128 0x13
 5234 016b 00       		.byte	0
 5235 016c 00       		.byte	0
 5236 016d 1C       		.uleb128 0x1c
 5237 016e 8A8201   		.uleb128 0x410a
 5238 0171 00       		.byte	0
 5239 0172 02       		.uleb128 0x2
 5240 0173 18       		.uleb128 0x18
 5241 0174 9142     		.uleb128 0x2111
 5242 0176 18       		.uleb128 0x18
 5243 0177 00       		.byte	0
 5244 0178 00       		.byte	0
 5245 0179 1D       		.uleb128 0x1d
 5246 017a 34       		.uleb128 0x34
 5247 017b 00       		.byte	0
 5248 017c 03       		.uleb128 0x3
 5249 017d 0E       		.uleb128 0xe
 5250 017e 3A       		.uleb128 0x3a
 5251 017f 0B       		.uleb128 0xb
 5252 0180 3B       		.uleb128 0x3b
 5253 0181 05       		.uleb128 0x5
 5254 0182 49       		.uleb128 0x49
 5255 0183 13       		.uleb128 0x13
 5256 0184 02       		.uleb128 0x2
 5257 0185 18       		.uleb128 0x18
 5258 0186 00       		.byte	0
 5259 0187 00       		.byte	0
 5260 0188 1E       		.uleb128 0x1e
 5261 0189 898201   		.uleb128 0x4109
 5262 018c 01       		.byte	0x1
 5263 018d 11       		.uleb128 0x11
 5264 018e 01       		.uleb128 0x1
 5265 018f 31       		.uleb128 0x31
 5266 0190 13       		.uleb128 0x13
 5267 0191 01       		.uleb128 0x1
 5268 0192 13       		.uleb128 0x13
 5269 0193 00       		.byte	0
 5270 0194 00       		.byte	0
ARM GAS  C:\Users\adris\AppData\Local\Temp\ccnf5SFB.s 			page 122


 5271 0195 1F       		.uleb128 0x1f
 5272 0196 26       		.uleb128 0x26
 5273 0197 00       		.byte	0
 5274 0198 00       		.byte	0
 5275 0199 00       		.byte	0
 5276 019a 20       		.uleb128 0x20
 5277 019b 2E       		.uleb128 0x2e
 5278 019c 01       		.byte	0x1
 5279 019d 3F       		.uleb128 0x3f
 5280 019e 19       		.uleb128 0x19
 5281 019f 03       		.uleb128 0x3
 5282 01a0 0E       		.uleb128 0xe
 5283 01a1 3A       		.uleb128 0x3a
 5284 01a2 0B       		.uleb128 0xb
 5285 01a3 3B       		.uleb128 0x3b
 5286 01a4 0B       		.uleb128 0xb
 5287 01a5 27       		.uleb128 0x27
 5288 01a6 19       		.uleb128 0x19
 5289 01a7 49       		.uleb128 0x49
 5290 01a8 13       		.uleb128 0x13
 5291 01a9 11       		.uleb128 0x11
 5292 01aa 01       		.uleb128 0x1
 5293 01ab 12       		.uleb128 0x12
 5294 01ac 06       		.uleb128 0x6
 5295 01ad 40       		.uleb128 0x40
 5296 01ae 18       		.uleb128 0x18
 5297 01af 9742     		.uleb128 0x2117
 5298 01b1 19       		.uleb128 0x19
 5299 01b2 01       		.uleb128 0x1
 5300 01b3 13       		.uleb128 0x13
 5301 01b4 00       		.byte	0
 5302 01b5 00       		.byte	0
 5303 01b6 21       		.uleb128 0x21
 5304 01b7 05       		.uleb128 0x5
 5305 01b8 00       		.byte	0
 5306 01b9 03       		.uleb128 0x3
 5307 01ba 0E       		.uleb128 0xe
 5308 01bb 3A       		.uleb128 0x3a
 5309 01bc 0B       		.uleb128 0xb
 5310 01bd 3B       		.uleb128 0x3b
 5311 01be 0B       		.uleb128 0xb
 5312 01bf 49       		.uleb128 0x49
 5313 01c0 13       		.uleb128 0x13
 5314 01c1 02       		.uleb128 0x2
 5315 01c2 17       		.uleb128 0x17
 5316 01c3 00       		.byte	0
 5317 01c4 00       		.byte	0
 5318 01c5 22       		.uleb128 0x22
 5319 01c6 34       		.uleb128 0x34
 5320 01c7 00       		.byte	0
 5321 01c8 03       		.uleb128 0x3
 5322 01c9 0E       		.uleb128 0xe
 5323 01ca 3A       		.uleb128 0x3a
 5324 01cb 0B       		.uleb128 0xb
 5325 01cc 3B       		.uleb128 0x3b
 5326 01cd 0B       		.uleb128 0xb
 5327 01ce 49       		.uleb128 0x49
ARM GAS  C:\Users\adris\AppData\Local\Temp\ccnf5SFB.s 			page 123


 5328 01cf 13       		.uleb128 0x13
 5329 01d0 02       		.uleb128 0x2
 5330 01d1 17       		.uleb128 0x17
 5331 01d2 00       		.byte	0
 5332 01d3 00       		.byte	0
 5333 01d4 23       		.uleb128 0x23
 5334 01d5 1D       		.uleb128 0x1d
 5335 01d6 01       		.byte	0x1
 5336 01d7 31       		.uleb128 0x31
 5337 01d8 13       		.uleb128 0x13
 5338 01d9 11       		.uleb128 0x11
 5339 01da 01       		.uleb128 0x1
 5340 01db 12       		.uleb128 0x12
 5341 01dc 06       		.uleb128 0x6
 5342 01dd 58       		.uleb128 0x58
 5343 01de 0B       		.uleb128 0xb
 5344 01df 59       		.uleb128 0x59
 5345 01e0 0B       		.uleb128 0xb
 5346 01e1 01       		.uleb128 0x1
 5347 01e2 13       		.uleb128 0x13
 5348 01e3 00       		.byte	0
 5349 01e4 00       		.byte	0
 5350 01e5 24       		.uleb128 0x24
 5351 01e6 2E       		.uleb128 0x2e
 5352 01e7 01       		.byte	0x1
 5353 01e8 3F       		.uleb128 0x3f
 5354 01e9 19       		.uleb128 0x19
 5355 01ea 03       		.uleb128 0x3
 5356 01eb 0E       		.uleb128 0xe
 5357 01ec 3A       		.uleb128 0x3a
 5358 01ed 0B       		.uleb128 0xb
 5359 01ee 3B       		.uleb128 0x3b
 5360 01ef 05       		.uleb128 0x5
 5361 01f0 27       		.uleb128 0x27
 5362 01f1 19       		.uleb128 0x19
 5363 01f2 11       		.uleb128 0x11
 5364 01f3 01       		.uleb128 0x1
 5365 01f4 12       		.uleb128 0x12
 5366 01f5 06       		.uleb128 0x6
 5367 01f6 40       		.uleb128 0x40
 5368 01f7 18       		.uleb128 0x18
 5369 01f8 9742     		.uleb128 0x2117
 5370 01fa 19       		.uleb128 0x19
 5371 01fb 01       		.uleb128 0x1
 5372 01fc 13       		.uleb128 0x13
 5373 01fd 00       		.byte	0
 5374 01fe 00       		.byte	0
 5375 01ff 25       		.uleb128 0x25
 5376 0200 2E       		.uleb128 0x2e
 5377 0201 01       		.byte	0x1
 5378 0202 3F       		.uleb128 0x3f
 5379 0203 19       		.uleb128 0x19
 5380 0204 03       		.uleb128 0x3
 5381 0205 0E       		.uleb128 0xe
 5382 0206 3A       		.uleb128 0x3a
 5383 0207 0B       		.uleb128 0xb
 5384 0208 3B       		.uleb128 0x3b
ARM GAS  C:\Users\adris\AppData\Local\Temp\ccnf5SFB.s 			page 124


 5385 0209 05       		.uleb128 0x5
 5386 020a 27       		.uleb128 0x27
 5387 020b 19       		.uleb128 0x19
 5388 020c 49       		.uleb128 0x49
 5389 020d 13       		.uleb128 0x13
 5390 020e 11       		.uleb128 0x11
 5391 020f 01       		.uleb128 0x1
 5392 0210 12       		.uleb128 0x12
 5393 0211 06       		.uleb128 0x6
 5394 0212 40       		.uleb128 0x40
 5395 0213 18       		.uleb128 0x18
 5396 0214 9742     		.uleb128 0x2117
 5397 0216 19       		.uleb128 0x19
 5398 0217 01       		.uleb128 0x1
 5399 0218 13       		.uleb128 0x13
 5400 0219 00       		.byte	0
 5401 021a 00       		.byte	0
 5402 021b 26       		.uleb128 0x26
 5403 021c 1D       		.uleb128 0x1d
 5404 021d 01       		.byte	0x1
 5405 021e 31       		.uleb128 0x31
 5406 021f 13       		.uleb128 0x13
 5407 0220 11       		.uleb128 0x11
 5408 0221 01       		.uleb128 0x1
 5409 0222 12       		.uleb128 0x12
 5410 0223 06       		.uleb128 0x6
 5411 0224 58       		.uleb128 0x58
 5412 0225 0B       		.uleb128 0xb
 5413 0226 59       		.uleb128 0x59
 5414 0227 05       		.uleb128 0x5
 5415 0228 00       		.byte	0
 5416 0229 00       		.byte	0
 5417 022a 27       		.uleb128 0x27
 5418 022b 898201   		.uleb128 0x4109
 5419 022e 00       		.byte	0
 5420 022f 11       		.uleb128 0x11
 5421 0230 01       		.uleb128 0x1
 5422 0231 31       		.uleb128 0x31
 5423 0232 13       		.uleb128 0x13
 5424 0233 00       		.byte	0
 5425 0234 00       		.byte	0
 5426 0235 28       		.uleb128 0x28
 5427 0236 34       		.uleb128 0x34
 5428 0237 00       		.byte	0
 5429 0238 03       		.uleb128 0x3
 5430 0239 0E       		.uleb128 0xe
 5431 023a 3A       		.uleb128 0x3a
 5432 023b 0B       		.uleb128 0xb
 5433 023c 3B       		.uleb128 0x3b
 5434 023d 05       		.uleb128 0x5
 5435 023e 49       		.uleb128 0x49
 5436 023f 13       		.uleb128 0x13
 5437 0240 00       		.byte	0
 5438 0241 00       		.byte	0
 5439 0242 29       		.uleb128 0x29
 5440 0243 05       		.uleb128 0x5
 5441 0244 00       		.byte	0
ARM GAS  C:\Users\adris\AppData\Local\Temp\ccnf5SFB.s 			page 125


 5442 0245 31       		.uleb128 0x31
 5443 0246 13       		.uleb128 0x13
 5444 0247 02       		.uleb128 0x2
 5445 0248 17       		.uleb128 0x17
 5446 0249 00       		.byte	0
 5447 024a 00       		.byte	0
 5448 024b 2A       		.uleb128 0x2a
 5449 024c 34       		.uleb128 0x34
 5450 024d 00       		.byte	0
 5451 024e 03       		.uleb128 0x3
 5452 024f 0E       		.uleb128 0xe
 5453 0250 3A       		.uleb128 0x3a
 5454 0251 0B       		.uleb128 0xb
 5455 0252 3B       		.uleb128 0x3b
 5456 0253 05       		.uleb128 0x5
 5457 0254 49       		.uleb128 0x49
 5458 0255 13       		.uleb128 0x13
 5459 0256 3F       		.uleb128 0x3f
 5460 0257 19       		.uleb128 0x19
 5461 0258 3C       		.uleb128 0x3c
 5462 0259 19       		.uleb128 0x19
 5463 025a 00       		.byte	0
 5464 025b 00       		.byte	0
 5465 025c 2B       		.uleb128 0x2b
 5466 025d 2E       		.uleb128 0x2e
 5467 025e 00       		.byte	0
 5468 025f 3F       		.uleb128 0x3f
 5469 0260 19       		.uleb128 0x19
 5470 0261 3C       		.uleb128 0x3c
 5471 0262 19       		.uleb128 0x19
 5472 0263 6E       		.uleb128 0x6e
 5473 0264 0E       		.uleb128 0xe
 5474 0265 03       		.uleb128 0x3
 5475 0266 0E       		.uleb128 0xe
 5476 0267 3A       		.uleb128 0x3a
 5477 0268 0B       		.uleb128 0xb
 5478 0269 3B       		.uleb128 0x3b
 5479 026a 0B       		.uleb128 0xb
 5480 026b 00       		.byte	0
 5481 026c 00       		.byte	0
 5482 026d 2C       		.uleb128 0x2c
 5483 026e 2E       		.uleb128 0x2e
 5484 026f 00       		.byte	0
 5485 0270 3F       		.uleb128 0x3f
 5486 0271 19       		.uleb128 0x19
 5487 0272 3C       		.uleb128 0x3c
 5488 0273 19       		.uleb128 0x19
 5489 0274 6E       		.uleb128 0x6e
 5490 0275 0E       		.uleb128 0xe
 5491 0276 03       		.uleb128 0x3
 5492 0277 0E       		.uleb128 0xe
 5493 0278 00       		.byte	0
 5494 0279 00       		.byte	0
 5495 027a 2D       		.uleb128 0x2d
 5496 027b 2E       		.uleb128 0x2e
 5497 027c 00       		.byte	0
 5498 027d 3F       		.uleb128 0x3f
ARM GAS  C:\Users\adris\AppData\Local\Temp\ccnf5SFB.s 			page 126


 5499 027e 19       		.uleb128 0x19
 5500 027f 3C       		.uleb128 0x3c
 5501 0280 19       		.uleb128 0x19
 5502 0281 6E       		.uleb128 0x6e
 5503 0282 0E       		.uleb128 0xe
 5504 0283 03       		.uleb128 0x3
 5505 0284 0E       		.uleb128 0xe
 5506 0285 3A       		.uleb128 0x3a
 5507 0286 0B       		.uleb128 0xb
 5508 0287 3B       		.uleb128 0x3b
 5509 0288 05       		.uleb128 0x5
 5510 0289 00       		.byte	0
 5511 028a 00       		.byte	0
 5512 028b 00       		.byte	0
 5513              		.section	.debug_loc,"",%progbits
 5514              	.Ldebug_loc0:
 5515              	.LLST0:
 5516 0000 00000000 		.4byte	.LVL0
 5517 0004 08000000 		.4byte	.LVL2
 5518 0008 0100     		.2byte	0x1
 5519 000a 50       		.byte	0x50
 5520 000b 08000000 		.4byte	.LVL2
 5521 000f 12000000 		.4byte	.LFE154
 5522 0013 0400     		.2byte	0x4
 5523 0015 F3       		.byte	0xf3
 5524 0016 01       		.uleb128 0x1
 5525 0017 50       		.byte	0x50
 5526 0018 9F       		.byte	0x9f
 5527 0019 00000000 		.4byte	0
 5528 001d 00000000 		.4byte	0
 5529              	.LLST1:
 5530 0021 06000000 		.4byte	.LVL1
 5531 0025 0A000000 		.4byte	.LVL3
 5532 0029 0100     		.2byte	0x1
 5533 002b 53       		.byte	0x53
 5534 002c 0A000000 		.4byte	.LVL3
 5535 0030 12000000 		.4byte	.LFE154
 5536 0034 0100     		.2byte	0x1
 5537 0036 50       		.byte	0x50
 5538 0037 00000000 		.4byte	0
 5539 003b 00000000 		.4byte	0
 5540              	.LLST2:
 5541 003f 00000000 		.4byte	.LVL5
 5542 0043 0E000000 		.4byte	.LVL8
 5543 0047 0100     		.2byte	0x1
 5544 0049 50       		.byte	0x50
 5545 004a 0E000000 		.4byte	.LVL8
 5546 004e 46000000 		.4byte	.LFE155
 5547 0052 0100     		.2byte	0x1
 5548 0054 54       		.byte	0x54
 5549 0055 00000000 		.4byte	0
 5550 0059 00000000 		.4byte	0
 5551              	.LLST3:
 5552 005d 00000000 		.4byte	.LVL5
 5553 0061 0C000000 		.4byte	.LVL7
 5554 0065 0100     		.2byte	0x1
 5555 0067 51       		.byte	0x51
ARM GAS  C:\Users\adris\AppData\Local\Temp\ccnf5SFB.s 			page 127


 5556 0068 0C000000 		.4byte	.LVL7
 5557 006c 46000000 		.4byte	.LFE155
 5558 0070 0100     		.2byte	0x1
 5559 0072 55       		.byte	0x55
 5560 0073 00000000 		.4byte	0
 5561 0077 00000000 		.4byte	0
 5562              	.LLST4:
 5563 007b 00000000 		.4byte	.LVL5
 5564 007f 11000000 		.4byte	.LVL9-1
 5565 0083 0100     		.2byte	0x1
 5566 0085 52       		.byte	0x52
 5567 0086 11000000 		.4byte	.LVL9-1
 5568 008a 46000000 		.4byte	.LFE155
 5569 008e 0100     		.2byte	0x1
 5570 0090 56       		.byte	0x56
 5571 0091 00000000 		.4byte	0
 5572 0095 00000000 		.4byte	0
 5573              	.LLST5:
 5574 0099 00000000 		.4byte	.LVL5
 5575 009d 11000000 		.4byte	.LVL9-1
 5576 00a1 0100     		.2byte	0x1
 5577 00a3 53       		.byte	0x53
 5578 00a4 11000000 		.4byte	.LVL9-1
 5579 00a8 46000000 		.4byte	.LFE155
 5580 00ac 0100     		.2byte	0x1
 5581 00ae 57       		.byte	0x57
 5582 00af 00000000 		.4byte	0
 5583 00b3 00000000 		.4byte	0
 5584              	.LLST6:
 5585 00b7 00000000 		.4byte	.LVL12
 5586 00bb 48000000 		.4byte	.LVL18
 5587 00bf 0100     		.2byte	0x1
 5588 00c1 50       		.byte	0x50
 5589 00c2 48000000 		.4byte	.LVL18
 5590 00c6 8C000000 		.4byte	.LFE152
 5591 00ca 0100     		.2byte	0x1
 5592 00cc 54       		.byte	0x54
 5593 00cd 00000000 		.4byte	0
 5594 00d1 00000000 		.4byte	0
 5595              	.LLST7:
 5596 00d5 00000000 		.4byte	.LVL12
 5597 00d9 4F000000 		.4byte	.LVL19-1
 5598 00dd 0100     		.2byte	0x1
 5599 00df 51       		.byte	0x51
 5600 00e0 4F000000 		.4byte	.LVL19-1
 5601 00e4 8C000000 		.4byte	.LFE152
 5602 00e8 0100     		.2byte	0x1
 5603 00ea 55       		.byte	0x55
 5604 00eb 00000000 		.4byte	0
 5605 00ef 00000000 		.4byte	0
 5606              	.LLST8:
 5607 00f3 00000000 		.4byte	.LVL12
 5608 00f7 2C000000 		.4byte	.LVL16
 5609 00fb 0100     		.2byte	0x1
 5610 00fd 52       		.byte	0x52
 5611 00fe 2C000000 		.4byte	.LVL16
 5612 0102 8C000000 		.4byte	.LFE152
ARM GAS  C:\Users\adris\AppData\Local\Temp\ccnf5SFB.s 			page 128


 5613 0106 0100     		.2byte	0x1
 5614 0108 57       		.byte	0x57
 5615 0109 00000000 		.4byte	0
 5616 010d 00000000 		.4byte	0
 5617              	.LLST9:
 5618 0111 1C000000 		.4byte	.LVL14
 5619 0115 7C000000 		.4byte	.LVL22
 5620 0119 0100     		.2byte	0x1
 5621 011b 56       		.byte	0x56
 5622 011c 7C000000 		.4byte	.LVL22
 5623 0120 8C000000 		.4byte	.LFE152
 5624 0124 0100     		.2byte	0x1
 5625 0126 53       		.byte	0x53
 5626 0127 00000000 		.4byte	0
 5627 012b 00000000 		.4byte	0
 5628              	.LLST10:
 5629 012f 00000000 		.4byte	.LVL24
 5630 0133 33000000 		.4byte	.LVL35-1
 5631 0137 0100     		.2byte	0x1
 5632 0139 50       		.byte	0x50
 5633 013a 33000000 		.4byte	.LVL35-1
 5634 013e 38000000 		.4byte	.LVL36
 5635 0142 0100     		.2byte	0x1
 5636 0144 54       		.byte	0x54
 5637 0145 38000000 		.4byte	.LVL36
 5638 0149 3E000000 		.4byte	.LVL39
 5639 014d 0100     		.2byte	0x1
 5640 014f 50       		.byte	0x50
 5641 0150 3E000000 		.4byte	.LVL39
 5642 0154 52000000 		.4byte	.LFE144
 5643 0158 0100     		.2byte	0x1
 5644 015a 54       		.byte	0x54
 5645 015b 00000000 		.4byte	0
 5646 015f 00000000 		.4byte	0
 5647              	.LLST11:
 5648 0163 00000000 		.4byte	.LVL24
 5649 0167 30000000 		.4byte	.LVL34
 5650 016b 0100     		.2byte	0x1
 5651 016d 51       		.byte	0x51
 5652 016e 30000000 		.4byte	.LVL34
 5653 0172 38000000 		.4byte	.LVL36
 5654 0176 0100     		.2byte	0x1
 5655 0178 55       		.byte	0x55
 5656 0179 38000000 		.4byte	.LVL36
 5657 017d 3E000000 		.4byte	.LVL39
 5658 0181 0100     		.2byte	0x1
 5659 0183 51       		.byte	0x51
 5660 0184 3E000000 		.4byte	.LVL39
 5661 0188 52000000 		.4byte	.LFE144
 5662 018c 0100     		.2byte	0x1
 5663 018e 55       		.byte	0x55
 5664 018f 00000000 		.4byte	0
 5665 0193 00000000 		.4byte	0
 5666              	.LLST12:
 5667 0197 00000000 		.4byte	.LVL24
 5668 019b 0E000000 		.4byte	.LVL25
 5669 019f 0100     		.2byte	0x1
ARM GAS  C:\Users\adris\AppData\Local\Temp\ccnf5SFB.s 			page 129


 5670 01a1 52       		.byte	0x52
 5671 01a2 0E000000 		.4byte	.LVL25
 5672 01a6 20000000 		.4byte	.LVL29
 5673 01aa 0200     		.2byte	0x2
 5674 01ac 91       		.byte	0x91
 5675 01ad 6C       		.sleb128 -20
 5676 01ae 20000000 		.4byte	.LVL29
 5677 01b2 22000000 		.4byte	.LVL30
 5678 01b6 0100     		.2byte	0x1
 5679 01b8 53       		.byte	0x53
 5680 01b9 22000000 		.4byte	.LVL30
 5681 01bd 24000000 		.4byte	.LVL31
 5682 01c1 0400     		.2byte	0x4
 5683 01c3 F3       		.byte	0xf3
 5684 01c4 01       		.uleb128 0x1
 5685 01c5 52       		.byte	0x52
 5686 01c6 9F       		.byte	0x9f
 5687 01c7 24000000 		.4byte	.LVL31
 5688 01cb 38000000 		.4byte	.LVL36
 5689 01cf 0200     		.2byte	0x2
 5690 01d1 91       		.byte	0x91
 5691 01d2 6C       		.sleb128 -20
 5692 01d3 38000000 		.4byte	.LVL36
 5693 01d7 3C000000 		.4byte	.LVL38
 5694 01db 0100     		.2byte	0x1
 5695 01dd 52       		.byte	0x52
 5696 01de 3C000000 		.4byte	.LVL38
 5697 01e2 3E000000 		.4byte	.LVL39
 5698 01e6 0200     		.2byte	0x2
 5699 01e8 91       		.byte	0x91
 5700 01e9 6C       		.sleb128 -20
 5701 01ea 00000000 		.4byte	0
 5702 01ee 00000000 		.4byte	0
 5703              	.LLST13:
 5704 01f2 00000000 		.4byte	.LVL24
 5705 01f6 10000000 		.4byte	.LVL26
 5706 01fa 0100     		.2byte	0x1
 5707 01fc 53       		.byte	0x53
 5708 01fd 10000000 		.4byte	.LVL26
 5709 0201 1E000000 		.4byte	.LVL28
 5710 0205 0100     		.2byte	0x1
 5711 0207 52       		.byte	0x52
 5712 0208 1E000000 		.4byte	.LVL28
 5713 020c 24000000 		.4byte	.LVL31
 5714 0210 0400     		.2byte	0x4
 5715 0212 F3       		.byte	0xf3
 5716 0213 01       		.uleb128 0x1
 5717 0214 53       		.byte	0x53
 5718 0215 9F       		.byte	0x9f
 5719 0216 24000000 		.4byte	.LVL31
 5720 021a 2C000000 		.4byte	.LVL33
 5721 021e 0100     		.2byte	0x1
 5722 0220 52       		.byte	0x52
 5723 0221 2C000000 		.4byte	.LVL33
 5724 0225 38000000 		.4byte	.LVL36
 5725 0229 0400     		.2byte	0x4
 5726 022b F3       		.byte	0xf3
ARM GAS  C:\Users\adris\AppData\Local\Temp\ccnf5SFB.s 			page 130


 5727 022c 01       		.uleb128 0x1
 5728 022d 53       		.byte	0x53
 5729 022e 9F       		.byte	0x9f
 5730 022f 38000000 		.4byte	.LVL36
 5731 0233 3A000000 		.4byte	.LVL37
 5732 0237 0100     		.2byte	0x1
 5733 0239 53       		.byte	0x53
 5734 023a 3A000000 		.4byte	.LVL37
 5735 023e 3C000000 		.4byte	.LVL38
 5736 0242 0400     		.2byte	0x4
 5737 0244 F3       		.byte	0xf3
 5738 0245 01       		.uleb128 0x1
 5739 0246 53       		.byte	0x53
 5740 0247 9F       		.byte	0x9f
 5741 0248 3C000000 		.4byte	.LVL38
 5742 024c 3E000000 		.4byte	.LVL39
 5743 0250 0100     		.2byte	0x1
 5744 0252 52       		.byte	0x52
 5745 0253 3E000000 		.4byte	.LVL39
 5746 0257 52000000 		.4byte	.LFE144
 5747 025b 0400     		.2byte	0x4
 5748 025d F3       		.byte	0xf3
 5749 025e 01       		.uleb128 0x1
 5750 025f 53       		.byte	0x53
 5751 0260 9F       		.byte	0x9f
 5752 0261 00000000 		.4byte	0
 5753 0265 00000000 		.4byte	0
 5754              	.LLST14:
 5755 0269 16000000 		.4byte	.LVL27
 5756 026d 24000000 		.4byte	.LVL31
 5757 0271 0200     		.2byte	0x2
 5758 0273 31       		.byte	0x31
 5759 0274 9F       		.byte	0x9f
 5760 0275 2A000000 		.4byte	.LVL32
 5761 0279 38000000 		.4byte	.LVL36
 5762 027d 0200     		.2byte	0x2
 5763 027f 31       		.byte	0x31
 5764 0280 9F       		.byte	0x9f
 5765 0281 3E000000 		.4byte	.LVL39
 5766 0285 49000000 		.4byte	.LVL40-1
 5767 0289 0100     		.2byte	0x1
 5768 028b 53       		.byte	0x53
 5769 028c 4C000000 		.4byte	.LVL41
 5770 0290 4E000000 		.4byte	.LVL42
 5771 0294 0100     		.2byte	0x1
 5772 0296 53       		.byte	0x53
 5773 0297 00000000 		.4byte	0
 5774 029b 00000000 		.4byte	0
 5775              	.LLST15:
 5776 029f 4A000000 		.4byte	.LVL40
 5777 02a3 4C000000 		.4byte	.LVL41
 5778 02a7 0100     		.2byte	0x1
 5779 02a9 50       		.byte	0x50
 5780 02aa 4E000000 		.4byte	.LVL42
 5781 02ae 52000000 		.4byte	.LFE144
 5782 02b2 0100     		.2byte	0x1
 5783 02b4 50       		.byte	0x50
ARM GAS  C:\Users\adris\AppData\Local\Temp\ccnf5SFB.s 			page 131


 5784 02b5 00000000 		.4byte	0
 5785 02b9 00000000 		.4byte	0
 5786              	.LLST16:
 5787 02bd 00000000 		.4byte	.LVL43
 5788 02c1 5A000000 		.4byte	.LVL52
 5789 02c5 0100     		.2byte	0x1
 5790 02c7 50       		.byte	0x50
 5791 02c8 5A000000 		.4byte	.LVL52
 5792 02cc 90000000 		.4byte	.LVL58
 5793 02d0 0100     		.2byte	0x1
 5794 02d2 55       		.byte	0x55
 5795 02d3 90000000 		.4byte	.LVL58
 5796 02d7 96000000 		.4byte	.LFE153
 5797 02db 0400     		.2byte	0x4
 5798 02dd F3       		.byte	0xf3
 5799 02de 01       		.uleb128 0x1
 5800 02df 50       		.byte	0x50
 5801 02e0 9F       		.byte	0x9f
 5802 02e1 00000000 		.4byte	0
 5803 02e5 00000000 		.4byte	0
 5804              	.LLST17:
 5805 02e9 00000000 		.4byte	.LVL43
 5806 02ed 54000000 		.4byte	.LVL50
 5807 02f1 0100     		.2byte	0x1
 5808 02f3 51       		.byte	0x51
 5809 02f4 54000000 		.4byte	.LVL50
 5810 02f8 90000000 		.4byte	.LVL58
 5811 02fc 0100     		.2byte	0x1
 5812 02fe 56       		.byte	0x56
 5813 02ff 90000000 		.4byte	.LVL58
 5814 0303 96000000 		.4byte	.LFE153
 5815 0307 0400     		.2byte	0x4
 5816 0309 F3       		.byte	0xf3
 5817 030a 01       		.uleb128 0x1
 5818 030b 51       		.byte	0x51
 5819 030c 9F       		.byte	0x9f
 5820 030d 00000000 		.4byte	0
 5821 0311 00000000 		.4byte	0
 5822              	.LLST18:
 5823 0315 00000000 		.4byte	.LVL43
 5824 0319 56000000 		.4byte	.LVL51
 5825 031d 0100     		.2byte	0x1
 5826 031f 52       		.byte	0x52
 5827 0320 56000000 		.4byte	.LVL51
 5828 0324 90000000 		.4byte	.LVL58
 5829 0328 0100     		.2byte	0x1
 5830 032a 59       		.byte	0x59
 5831 032b 90000000 		.4byte	.LVL58
 5832 032f 96000000 		.4byte	.LFE153
 5833 0333 0400     		.2byte	0x4
 5834 0335 F3       		.byte	0xf3
 5835 0336 01       		.uleb128 0x1
 5836 0337 52       		.byte	0x52
 5837 0338 9F       		.byte	0x9f
 5838 0339 00000000 		.4byte	0
 5839 033d 00000000 		.4byte	0
 5840              	.LLST19:
ARM GAS  C:\Users\adris\AppData\Local\Temp\ccnf5SFB.s 			page 132


 5841 0341 00000000 		.4byte	.LVL43
 5842 0345 16000000 		.4byte	.LVL46
 5843 0349 0100     		.2byte	0x1
 5844 034b 53       		.byte	0x53
 5845 034c 16000000 		.4byte	.LVL46
 5846 0350 96000000 		.4byte	.LFE153
 5847 0354 0400     		.2byte	0x4
 5848 0356 F3       		.byte	0xf3
 5849 0357 01       		.uleb128 0x1
 5850 0358 53       		.byte	0x53
 5851 0359 9F       		.byte	0x9f
 5852 035a 00000000 		.4byte	0
 5853 035e 00000000 		.4byte	0
 5854              	.LLST20:
 5855 0362 1E000000 		.4byte	.LVL47
 5856 0366 90000000 		.4byte	.LVL58
 5857 036a 0100     		.2byte	0x1
 5858 036c 57       		.byte	0x57
 5859 036d 00000000 		.4byte	0
 5860 0371 00000000 		.4byte	0
 5861              	.LLST21:
 5862 0375 14000000 		.4byte	.LVL45
 5863 0379 90000000 		.4byte	.LVL58
 5864 037d 0100     		.2byte	0x1
 5865 037f 54       		.byte	0x54
 5866 0380 00000000 		.4byte	0
 5867 0384 00000000 		.4byte	0
 5868              	.LLST22:
 5869 0388 00000000 		.4byte	.LVL59
 5870 038c 1D000000 		.4byte	.LVL63-1
 5871 0390 0100     		.2byte	0x1
 5872 0392 50       		.byte	0x50
 5873 0393 1D000000 		.4byte	.LVL63-1
 5874 0397 30000000 		.4byte	.LVL65
 5875 039b 0100     		.2byte	0x1
 5876 039d 55       		.byte	0x55
 5877 039e 30000000 		.4byte	.LVL65
 5878 03a2 32000000 		.4byte	.LVL66
 5879 03a6 0100     		.2byte	0x1
 5880 03a8 50       		.byte	0x50
 5881 03a9 32000000 		.4byte	.LVL66
 5882 03ad 44000000 		.4byte	.LFE147
 5883 03b1 0100     		.2byte	0x1
 5884 03b3 55       		.byte	0x55
 5885 03b4 00000000 		.4byte	0
 5886 03b8 00000000 		.4byte	0
 5887              	.LLST23:
 5888 03bc 00000000 		.4byte	.LVL59
 5889 03c0 1A000000 		.4byte	.LVL62
 5890 03c4 0100     		.2byte	0x1
 5891 03c6 51       		.byte	0x51
 5892 03c7 1A000000 		.4byte	.LVL62
 5893 03cb 30000000 		.4byte	.LVL65
 5894 03cf 0100     		.2byte	0x1
 5895 03d1 57       		.byte	0x57
 5896 03d2 30000000 		.4byte	.LVL65
 5897 03d6 32000000 		.4byte	.LVL66
ARM GAS  C:\Users\adris\AppData\Local\Temp\ccnf5SFB.s 			page 133


 5898 03da 0100     		.2byte	0x1
 5899 03dc 51       		.byte	0x51
 5900 03dd 32000000 		.4byte	.LVL66
 5901 03e1 44000000 		.4byte	.LFE147
 5902 03e5 0100     		.2byte	0x1
 5903 03e7 57       		.byte	0x57
 5904 03e8 00000000 		.4byte	0
 5905 03ec 00000000 		.4byte	0
 5906              	.LLST24:
 5907 03f0 00000000 		.4byte	.LVL59
 5908 03f4 18000000 		.4byte	.LVL61
 5909 03f8 0100     		.2byte	0x1
 5910 03fa 52       		.byte	0x52
 5911 03fb 18000000 		.4byte	.LVL61
 5912 03ff 30000000 		.4byte	.LVL65
 5913 0403 0100     		.2byte	0x1
 5914 0405 58       		.byte	0x58
 5915 0406 30000000 		.4byte	.LVL65
 5916 040a 32000000 		.4byte	.LVL66
 5917 040e 0100     		.2byte	0x1
 5918 0410 52       		.byte	0x52
 5919 0411 32000000 		.4byte	.LVL66
 5920 0415 44000000 		.4byte	.LFE147
 5921 0419 0100     		.2byte	0x1
 5922 041b 58       		.byte	0x58
 5923 041c 00000000 		.4byte	0
 5924 0420 00000000 		.4byte	0
 5925              	.LLST25:
 5926 0424 00000000 		.4byte	.LVL59
 5927 0428 1D000000 		.4byte	.LVL63-1
 5928 042c 0100     		.2byte	0x1
 5929 042e 53       		.byte	0x53
 5930 042f 1D000000 		.4byte	.LVL63-1
 5931 0433 30000000 		.4byte	.LVL65
 5932 0437 0100     		.2byte	0x1
 5933 0439 54       		.byte	0x54
 5934 043a 30000000 		.4byte	.LVL65
 5935 043e 32000000 		.4byte	.LVL66
 5936 0442 0100     		.2byte	0x1
 5937 0444 53       		.byte	0x53
 5938 0445 32000000 		.4byte	.LVL66
 5939 0449 44000000 		.4byte	.LFE147
 5940 044d 0100     		.2byte	0x1
 5941 044f 54       		.byte	0x54
 5942 0450 00000000 		.4byte	0
 5943 0454 00000000 		.4byte	0
 5944              	.LLST26:
 5945 0458 16000000 		.4byte	.LVL60
 5946 045c 30000000 		.4byte	.LVL65
 5947 0460 0100     		.2byte	0x1
 5948 0462 59       		.byte	0x59
 5949 0463 00000000 		.4byte	0
 5950 0467 00000000 		.4byte	0
 5951              	.LLST27:
 5952 046b 00000000 		.4byte	.LVL68
 5953 046f 3A000000 		.4byte	.LVL72
 5954 0473 0100     		.2byte	0x1
ARM GAS  C:\Users\adris\AppData\Local\Temp\ccnf5SFB.s 			page 134


 5955 0475 50       		.byte	0x50
 5956 0476 3A000000 		.4byte	.LVL72
 5957 047a 58000000 		.4byte	.LFE136
 5958 047e 0100     		.2byte	0x1
 5959 0480 56       		.byte	0x56
 5960 0481 00000000 		.4byte	0
 5961 0485 00000000 		.4byte	0
 5962              	.LLST28:
 5963 0489 00000000 		.4byte	.LVL68
 5964 048d 38000000 		.4byte	.LVL71
 5965 0491 0100     		.2byte	0x1
 5966 0493 51       		.byte	0x51
 5967 0494 38000000 		.4byte	.LVL71
 5968 0498 58000000 		.4byte	.LFE136
 5969 049c 0100     		.2byte	0x1
 5970 049e 54       		.byte	0x54
 5971 049f 00000000 		.4byte	0
 5972 04a3 00000000 		.4byte	0
 5973              	.LLST29:
 5974 04a7 00000000 		.4byte	.LVL68
 5975 04ab 3F000000 		.4byte	.LVL73-1
 5976 04af 0100     		.2byte	0x1
 5977 04b1 52       		.byte	0x52
 5978 04b2 3F000000 		.4byte	.LVL73-1
 5979 04b6 58000000 		.4byte	.LFE136
 5980 04ba 0100     		.2byte	0x1
 5981 04bc 57       		.byte	0x57
 5982 04bd 00000000 		.4byte	0
 5983 04c1 00000000 		.4byte	0
 5984              	.LLST30:
 5985 04c5 40000000 		.4byte	.LVL73
 5986 04c9 51000000 		.4byte	.LVL74-1
 5987 04cd 0100     		.2byte	0x1
 5988 04cf 50       		.byte	0x50
 5989 04d0 51000000 		.4byte	.LVL74-1
 5990 04d4 58000000 		.4byte	.LFE136
 5991 04d8 0100     		.2byte	0x1
 5992 04da 55       		.byte	0x55
 5993 04db 00000000 		.4byte	0
 5994 04df 00000000 		.4byte	0
 5995              	.LLST31:
 5996 04e3 00000000 		.4byte	.LVL75
 5997 04e7 21000000 		.4byte	.LVL78-1
 5998 04eb 0100     		.2byte	0x1
 5999 04ed 50       		.byte	0x50
 6000 04ee 21000000 		.4byte	.LVL78-1
 6001 04f2 24000000 		.4byte	.LVL79
 6002 04f6 0400     		.2byte	0x4
 6003 04f8 F3       		.byte	0xf3
 6004 04f9 01       		.uleb128 0x1
 6005 04fa 50       		.byte	0x50
 6006 04fb 9F       		.byte	0x9f
 6007 04fc 24000000 		.4byte	.LVL79
 6008 0500 2B000000 		.4byte	.LVL80-1
 6009 0504 0100     		.2byte	0x1
 6010 0506 50       		.byte	0x50
 6011 0507 2B000000 		.4byte	.LVL80-1
ARM GAS  C:\Users\adris\AppData\Local\Temp\ccnf5SFB.s 			page 135


 6012 050b 2E000000 		.4byte	.LFE137
 6013 050f 0400     		.2byte	0x4
 6014 0511 F3       		.byte	0xf3
 6015 0512 01       		.uleb128 0x1
 6016 0513 50       		.byte	0x50
 6017 0514 9F       		.byte	0x9f
 6018 0515 00000000 		.4byte	0
 6019 0519 00000000 		.4byte	0
 6020              	.LLST32:
 6021 051d 02000000 		.4byte	.LVL76
 6022 0521 21000000 		.4byte	.LVL78-1
 6023 0525 0100     		.2byte	0x1
 6024 0527 50       		.byte	0x50
 6025 0528 21000000 		.4byte	.LVL78-1
 6026 052c 24000000 		.4byte	.LVL79
 6027 0530 0400     		.2byte	0x4
 6028 0532 F3       		.byte	0xf3
 6029 0533 01       		.uleb128 0x1
 6030 0534 50       		.byte	0x50
 6031 0535 9F       		.byte	0x9f
 6032 0536 24000000 		.4byte	.LVL79
 6033 053a 2B000000 		.4byte	.LVL80-1
 6034 053e 0100     		.2byte	0x1
 6035 0540 50       		.byte	0x50
 6036 0541 2B000000 		.4byte	.LVL80-1
 6037 0545 2E000000 		.4byte	.LFE137
 6038 0549 0400     		.2byte	0x4
 6039 054b F3       		.byte	0xf3
 6040 054c 01       		.uleb128 0x1
 6041 054d 50       		.byte	0x50
 6042 054e 9F       		.byte	0x9f
 6043 054f 00000000 		.4byte	0
 6044 0553 00000000 		.4byte	0
 6045              	.LLST33:
 6046 0557 00000000 		.4byte	.LVL81
 6047 055b 2E000000 		.4byte	.LVL84
 6048 055f 0100     		.2byte	0x1
 6049 0561 50       		.byte	0x50
 6050 0562 2E000000 		.4byte	.LVL84
 6051 0566 30000000 		.4byte	.LVL85
 6052 056a 0100     		.2byte	0x1
 6053 056c 54       		.byte	0x54
 6054 056d 30000000 		.4byte	.LVL85
 6055 0571 32000000 		.4byte	.LVL86
 6056 0575 0100     		.2byte	0x1
 6057 0577 50       		.byte	0x50
 6058 0578 32000000 		.4byte	.LVL86
 6059 057c 46000000 		.4byte	.LVL89
 6060 0580 0100     		.2byte	0x1
 6061 0582 54       		.byte	0x54
 6062 0583 46000000 		.4byte	.LVL89
 6063 0587 48000000 		.4byte	.LVL90
 6064 058b 0100     		.2byte	0x1
 6065 058d 50       		.byte	0x50
 6066 058e 48000000 		.4byte	.LVL90
 6067 0592 4A000000 		.4byte	.LVL91
 6068 0596 0100     		.2byte	0x1
ARM GAS  C:\Users\adris\AppData\Local\Temp\ccnf5SFB.s 			page 136


 6069 0598 54       		.byte	0x54
 6070 0599 4A000000 		.4byte	.LVL91
 6071 059d 4C000000 		.4byte	.LVL92
 6072 05a1 0100     		.2byte	0x1
 6073 05a3 50       		.byte	0x50
 6074 05a4 4C000000 		.4byte	.LVL92
 6075 05a8 50000000 		.4byte	.LFE138
 6076 05ac 0100     		.2byte	0x1
 6077 05ae 54       		.byte	0x54
 6078 05af 00000000 		.4byte	0
 6079 05b3 00000000 		.4byte	0
 6080              	.LLST35:
 6081 05b7 00000000 		.4byte	.LVL81
 6082 05bb 40000000 		.4byte	.LVL88
 6083 05bf 0200     		.2byte	0x2
 6084 05c1 30       		.byte	0x30
 6085 05c2 9F       		.byte	0x9f
 6086 05c3 40000000 		.4byte	.LVL88
 6087 05c7 46000000 		.4byte	.LVL89
 6088 05cb 0200     		.2byte	0x2
 6089 05cd 31       		.byte	0x31
 6090 05ce 9F       		.byte	0x9f
 6091 05cf 46000000 		.4byte	.LVL89
 6092 05d3 4C000000 		.4byte	.LVL92
 6093 05d7 0200     		.2byte	0x2
 6094 05d9 30       		.byte	0x30
 6095 05da 9F       		.byte	0x9f
 6096 05db 4C000000 		.4byte	.LVL92
 6097 05df 50000000 		.4byte	.LFE138
 6098 05e3 0100     		.2byte	0x1
 6099 05e5 50       		.byte	0x50
 6100 05e6 00000000 		.4byte	0
 6101 05ea 00000000 		.4byte	0
 6102              	.LLST36:
 6103 05ee 32000000 		.4byte	.LVL86
 6104 05f2 3C000000 		.4byte	.LVL87
 6105 05f6 0100     		.2byte	0x1
 6106 05f8 50       		.byte	0x50
 6107 05f9 3C000000 		.4byte	.LVL87
 6108 05fd 3F000000 		.4byte	.LVL88-1
 6109 0601 0200     		.2byte	0x2
 6110 0603 7D       		.byte	0x7d
 6111 0604 00       		.sleb128 0
 6112 0605 00000000 		.4byte	0
 6113 0609 00000000 		.4byte	0
 6114              	.LLST37:
 6115 060d 00000000 		.4byte	.LVL93
 6116 0611 24000000 		.4byte	.LVL97
 6117 0615 0100     		.2byte	0x1
 6118 0617 50       		.byte	0x50
 6119 0618 24000000 		.4byte	.LVL97
 6120 061c 26000000 		.4byte	.LVL98
 6121 0620 0100     		.2byte	0x1
 6122 0622 53       		.byte	0x53
 6123 0623 26000000 		.4byte	.LVL98
 6124 0627 28000000 		.4byte	.LVL99
 6125 062b 0100     		.2byte	0x1
ARM GAS  C:\Users\adris\AppData\Local\Temp\ccnf5SFB.s 			page 137


 6126 062d 50       		.byte	0x50
 6127 062e 28000000 		.4byte	.LVL99
 6128 0632 2A000000 		.4byte	.LFE139
 6129 0636 0100     		.2byte	0x1
 6130 0638 53       		.byte	0x53
 6131 0639 00000000 		.4byte	0
 6132 063d 00000000 		.4byte	0
 6133              	.LLST38:
 6134 0641 00000000 		.4byte	.LVL93
 6135 0645 1A000000 		.4byte	.LVL95
 6136 0649 0100     		.2byte	0x1
 6137 064b 51       		.byte	0x51
 6138 064c 1A000000 		.4byte	.LVL95
 6139 0650 2A000000 		.4byte	.LFE139
 6140 0654 0100     		.2byte	0x1
 6141 0656 51       		.byte	0x51
 6142 0657 00000000 		.4byte	0
 6143 065b 00000000 		.4byte	0
 6144              	.LLST40:
 6145 065f 22000000 		.4byte	.LVL96
 6146 0663 26000000 		.4byte	.LVL98
 6147 0667 0200     		.2byte	0x2
 6148 0669 31       		.byte	0x31
 6149 066a 9F       		.byte	0x9f
 6150 066b 28000000 		.4byte	.LVL99
 6151 066f 2A000000 		.4byte	.LFE139
 6152 0673 0100     		.2byte	0x1
 6153 0675 50       		.byte	0x50
 6154 0676 00000000 		.4byte	0
 6155 067a 00000000 		.4byte	0
 6156              	.LLST41:
 6157 067e 00000000 		.4byte	.LVL100
 6158 0682 1C000000 		.4byte	.LVL103
 6159 0686 0100     		.2byte	0x1
 6160 0688 50       		.byte	0x50
 6161 0689 1C000000 		.4byte	.LVL103
 6162 068d 28000000 		.4byte	.LFE140
 6163 0691 0400     		.2byte	0x4
 6164 0693 F3       		.byte	0xf3
 6165 0694 01       		.uleb128 0x1
 6166 0695 50       		.byte	0x50
 6167 0696 9F       		.byte	0x9f
 6168 0697 00000000 		.4byte	0
 6169 069b 00000000 		.4byte	0
 6170              	.LLST42:
 6171 069f 00000000 		.4byte	.LVL100
 6172 06a3 1C000000 		.4byte	.LVL103
 6173 06a7 0100     		.2byte	0x1
 6174 06a9 50       		.byte	0x50
 6175 06aa 1C000000 		.4byte	.LVL103
 6176 06ae 28000000 		.4byte	.LFE140
 6177 06b2 0400     		.2byte	0x4
 6178 06b4 F3       		.byte	0xf3
 6179 06b5 01       		.uleb128 0x1
 6180 06b6 50       		.byte	0x50
 6181 06b7 9F       		.byte	0x9f
 6182 06b8 00000000 		.4byte	0
ARM GAS  C:\Users\adris\AppData\Local\Temp\ccnf5SFB.s 			page 138


 6183 06bc 00000000 		.4byte	0
 6184              	.LLST43:
 6185 06c0 1A000000 		.4byte	.LVL102
 6186 06c4 1E000000 		.4byte	.LVL104
 6187 06c8 0100     		.2byte	0x1
 6188 06ca 53       		.byte	0x53
 6189 06cb 1E000000 		.4byte	.LVL104
 6190 06cf 28000000 		.4byte	.LFE140
 6191 06d3 0100     		.2byte	0x1
 6192 06d5 50       		.byte	0x50
 6193 06d6 00000000 		.4byte	0
 6194 06da 00000000 		.4byte	0
 6195              	.LLST44:
 6196 06de 00000000 		.4byte	.LVL107
 6197 06e2 19000000 		.4byte	.LVL110-1
 6198 06e6 0100     		.2byte	0x1
 6199 06e8 50       		.byte	0x50
 6200 06e9 19000000 		.4byte	.LVL110-1
 6201 06ed 1C000000 		.4byte	.LFE141
 6202 06f1 0400     		.2byte	0x4
 6203 06f3 F3       		.byte	0xf3
 6204 06f4 01       		.uleb128 0x1
 6205 06f5 50       		.byte	0x50
 6206 06f6 9F       		.byte	0x9f
 6207 06f7 00000000 		.4byte	0
 6208 06fb 00000000 		.4byte	0
 6209              	.LLST45:
 6210 06ff 02000000 		.4byte	.LVL108
 6211 0703 19000000 		.4byte	.LVL110-1
 6212 0707 0100     		.2byte	0x1
 6213 0709 50       		.byte	0x50
 6214 070a 19000000 		.4byte	.LVL110-1
 6215 070e 1C000000 		.4byte	.LFE141
 6216 0712 0400     		.2byte	0x4
 6217 0714 F3       		.byte	0xf3
 6218 0715 01       		.uleb128 0x1
 6219 0716 50       		.byte	0x50
 6220 0717 9F       		.byte	0x9f
 6221 0718 00000000 		.4byte	0
 6222 071c 00000000 		.4byte	0
 6223              	.LLST46:
 6224 0720 00000000 		.4byte	.LVL111
 6225 0724 4C000000 		.4byte	.LVL121
 6226 0728 0100     		.2byte	0x1
 6227 072a 50       		.byte	0x50
 6228 072b 4C000000 		.4byte	.LVL121
 6229 072f B2000000 		.4byte	.LVL135
 6230 0733 0100     		.2byte	0x1
 6231 0735 54       		.byte	0x54
 6232 0736 B2000000 		.4byte	.LVL135
 6233 073a B4000000 		.4byte	.LVL136
 6234 073e 0100     		.2byte	0x1
 6235 0740 50       		.byte	0x50
 6236 0741 B4000000 		.4byte	.LVL136
 6237 0745 02010000 		.4byte	.LFE142
 6238 0749 0100     		.2byte	0x1
 6239 074b 54       		.byte	0x54
ARM GAS  C:\Users\adris\AppData\Local\Temp\ccnf5SFB.s 			page 139


 6240 074c 00000000 		.4byte	0
 6241 0750 00000000 		.4byte	0
 6242              	.LLST47:
 6243 0754 00000000 		.4byte	.LVL111
 6244 0758 4F000000 		.4byte	.LVL122-1
 6245 075c 0100     		.2byte	0x1
 6246 075e 51       		.byte	0x51
 6247 075f 4F000000 		.4byte	.LVL122-1
 6248 0763 B2000000 		.4byte	.LVL135
 6249 0767 0100     		.2byte	0x1
 6250 0769 57       		.byte	0x57
 6251 076a B2000000 		.4byte	.LVL135
 6252 076e B4000000 		.4byte	.LVL136
 6253 0772 0100     		.2byte	0x1
 6254 0774 51       		.byte	0x51
 6255 0775 B4000000 		.4byte	.LVL136
 6256 0779 02010000 		.4byte	.LFE142
 6257 077d 0100     		.2byte	0x1
 6258 077f 57       		.byte	0x57
 6259 0780 00000000 		.4byte	0
 6260 0784 00000000 		.4byte	0
 6261              	.LLST48:
 6262 0788 00000000 		.4byte	.LVL111
 6263 078c 4F000000 		.4byte	.LVL122-1
 6264 0790 0100     		.2byte	0x1
 6265 0792 52       		.byte	0x52
 6266 0793 4F000000 		.4byte	.LVL122-1
 6267 0797 B2000000 		.4byte	.LVL135
 6268 079b 0100     		.2byte	0x1
 6269 079d 56       		.byte	0x56
 6270 079e B2000000 		.4byte	.LVL135
 6271 07a2 B4000000 		.4byte	.LVL136
 6272 07a6 0100     		.2byte	0x1
 6273 07a8 52       		.byte	0x52
 6274 07a9 B4000000 		.4byte	.LVL136
 6275 07ad 02010000 		.4byte	.LFE142
 6276 07b1 0100     		.2byte	0x1
 6277 07b3 56       		.byte	0x56
 6278 07b4 00000000 		.4byte	0
 6279 07b8 00000000 		.4byte	0
 6280              	.LLST49:
 6281 07bc 00000000 		.4byte	.LVL111
 6282 07c0 1A000000 		.4byte	.LVL113
 6283 07c4 0100     		.2byte	0x1
 6284 07c6 53       		.byte	0x53
 6285 07c7 1A000000 		.4byte	.LVL113
 6286 07cb 1C000000 		.4byte	.LVL114
 6287 07cf 0200     		.2byte	0x2
 6288 07d1 91       		.byte	0x91
 6289 07d2 54       		.sleb128 -44
 6290 07d3 1C000000 		.4byte	.LVL114
 6291 07d7 30000000 		.4byte	.LVL115
 6292 07db 0100     		.2byte	0x1
 6293 07dd 53       		.byte	0x53
 6294 07de 30000000 		.4byte	.LVL115
 6295 07e2 32000000 		.4byte	.LVL116
 6296 07e6 0200     		.2byte	0x2
ARM GAS  C:\Users\adris\AppData\Local\Temp\ccnf5SFB.s 			page 140


 6297 07e8 91       		.byte	0x91
 6298 07e9 54       		.sleb128 -44
 6299 07ea 32000000 		.4byte	.LVL116
 6300 07ee 34000000 		.4byte	.LVL117
 6301 07f2 0100     		.2byte	0x1
 6302 07f4 53       		.byte	0x53
 6303 07f5 34000000 		.4byte	.LVL117
 6304 07f9 02010000 		.4byte	.LFE142
 6305 07fd 0200     		.2byte	0x2
 6306 07ff 91       		.byte	0x91
 6307 0800 54       		.sleb128 -44
 6308 0801 00000000 		.4byte	0
 6309 0805 00000000 		.4byte	0
 6310              	.LLST50:
 6311 0809 08000000 		.4byte	.LVL112
 6312 080d 4C000000 		.4byte	.LVL121
 6313 0811 0100     		.2byte	0x1
 6314 0813 50       		.byte	0x50
 6315 0814 4C000000 		.4byte	.LVL121
 6316 0818 B2000000 		.4byte	.LVL135
 6317 081c 0100     		.2byte	0x1
 6318 081e 54       		.byte	0x54
 6319 081f B2000000 		.4byte	.LVL135
 6320 0823 B4000000 		.4byte	.LVL136
 6321 0827 0100     		.2byte	0x1
 6322 0829 50       		.byte	0x50
 6323 082a B4000000 		.4byte	.LVL136
 6324 082e 02010000 		.4byte	.LFE142
 6325 0832 0100     		.2byte	0x1
 6326 0834 54       		.byte	0x54
 6327 0835 00000000 		.4byte	0
 6328 0839 00000000 		.4byte	0
 6329              	.LLST51:
 6330 083d CE000000 		.4byte	.LVL139
 6331 0841 D4000000 		.4byte	.LVL141
 6332 0845 0100     		.2byte	0x1
 6333 0847 50       		.byte	0x50
 6334 0848 D4000000 		.4byte	.LVL141
 6335 084c 02010000 		.4byte	.LFE142
 6336 0850 0100     		.2byte	0x1
 6337 0852 55       		.byte	0x55
 6338 0853 00000000 		.4byte	0
 6339 0857 00000000 		.4byte	0
 6340              	.LLST52:
 6341 085b 08000000 		.4byte	.LVL112
 6342 085f 50000000 		.4byte	.LVL122
 6343 0863 0200     		.2byte	0x2
 6344 0865 30       		.byte	0x30
 6345 0866 9F       		.byte	0x9f
 6346 0867 5C000000 		.4byte	.LVL125
 6347 086b 62000000 		.4byte	.LVL126
 6348 086f 0100     		.2byte	0x1
 6349 0871 50       		.byte	0x50
 6350 0872 62000000 		.4byte	.LVL126
 6351 0876 AC000000 		.4byte	.LVL133
 6352 087a 0100     		.2byte	0x1
 6353 087c 55       		.byte	0x55
ARM GAS  C:\Users\adris\AppData\Local\Temp\ccnf5SFB.s 			page 141


 6354 087d AC000000 		.4byte	.LVL133
 6355 0881 AF000000 		.4byte	.LVL134-1
 6356 0885 0100     		.2byte	0x1
 6357 0887 50       		.byte	0x50
 6358 0888 AF000000 		.4byte	.LVL134-1
 6359 088c B2000000 		.4byte	.LVL135
 6360 0890 0100     		.2byte	0x1
 6361 0892 55       		.byte	0x55
 6362 0893 B2000000 		.4byte	.LVL135
 6363 0897 B4000000 		.4byte	.LVL136
 6364 089b 0200     		.2byte	0x2
 6365 089d 30       		.byte	0x30
 6366 089e 9F       		.byte	0x9f
 6367 089f B4000000 		.4byte	.LVL136
 6368 08a3 D0000000 		.4byte	.LVL140
 6369 08a7 0100     		.2byte	0x1
 6370 08a9 55       		.byte	0x55
 6371 08aa 00000000 		.4byte	0
 6372 08ae 00000000 		.4byte	0
 6373              	.LLST53:
 6374 08b2 08000000 		.4byte	.LVL112
 6375 08b6 3E000000 		.4byte	.LVL118
 6376 08ba 0100     		.2byte	0x1
 6377 08bc 52       		.byte	0x52
 6378 08bd 3E000000 		.4byte	.LVL118
 6379 08c1 40000000 		.4byte	.LVL119
 6380 08c5 0100     		.2byte	0x1
 6381 08c7 58       		.byte	0x58
 6382 08c8 40000000 		.4byte	.LVL119
 6383 08cc 42000000 		.4byte	.LVL120
 6384 08d0 0100     		.2byte	0x1
 6385 08d2 52       		.byte	0x52
 6386 08d3 42000000 		.4byte	.LVL120
 6387 08d7 02010000 		.4byte	.LFE142
 6388 08db 0100     		.2byte	0x1
 6389 08dd 58       		.byte	0x58
 6390 08de 00000000 		.4byte	0
 6391 08e2 00000000 		.4byte	0
 6392              	.LLST54:
 6393 08e6 00000000 		.4byte	.LVL146
 6394 08ea 49000000 		.4byte	.LVL155-1
 6395 08ee 0100     		.2byte	0x1
 6396 08f0 50       		.byte	0x50
 6397 08f1 49000000 		.4byte	.LVL155-1
 6398 08f5 A0000000 		.4byte	.LFE143
 6399 08f9 0100     		.2byte	0x1
 6400 08fb 54       		.byte	0x54
 6401 08fc 00000000 		.4byte	0
 6402 0900 00000000 		.4byte	0
 6403              	.LLST55:
 6404 0904 00000000 		.4byte	.LVL146
 6405 0908 32000000 		.4byte	.LVL151
 6406 090c 0100     		.2byte	0x1
 6407 090e 51       		.byte	0x51
 6408 090f 32000000 		.4byte	.LVL151
 6409 0913 7E000000 		.4byte	.LVL161
 6410 0917 0100     		.2byte	0x1
ARM GAS  C:\Users\adris\AppData\Local\Temp\ccnf5SFB.s 			page 142


 6411 0919 56       		.byte	0x56
 6412 091a 7E000000 		.4byte	.LVL161
 6413 091e A0000000 		.4byte	.LFE143
 6414 0922 0400     		.2byte	0x4
 6415 0924 F3       		.byte	0xf3
 6416 0925 01       		.uleb128 0x1
 6417 0926 51       		.byte	0x51
 6418 0927 9F       		.byte	0x9f
 6419 0928 00000000 		.4byte	0
 6420 092c 00000000 		.4byte	0
 6421              	.LLST56:
 6422 0930 00000000 		.4byte	.LVL146
 6423 0934 49000000 		.4byte	.LVL155-1
 6424 0938 0100     		.2byte	0x1
 6425 093a 52       		.byte	0x52
 6426 093b 49000000 		.4byte	.LVL155-1
 6427 093f 5C000000 		.4byte	.LVL158
 6428 0943 0100     		.2byte	0x1
 6429 0945 55       		.byte	0x55
 6430 0946 5C000000 		.4byte	.LVL158
 6431 094a A0000000 		.4byte	.LFE143
 6432 094e 0400     		.2byte	0x4
 6433 0950 F3       		.byte	0xf3
 6434 0951 01       		.uleb128 0x1
 6435 0952 52       		.byte	0x52
 6436 0953 9F       		.byte	0x9f
 6437 0954 00000000 		.4byte	0
 6438 0958 00000000 		.4byte	0
 6439              	.LLST57:
 6440 095c 00000000 		.4byte	.LVL146
 6441 0960 12000000 		.4byte	.LVL147
 6442 0964 0100     		.2byte	0x1
 6443 0966 53       		.byte	0x53
 6444 0967 12000000 		.4byte	.LVL147
 6445 096b 14000000 		.4byte	.LVL148
 6446 096f 0400     		.2byte	0x4
 6447 0971 F3       		.byte	0xf3
 6448 0972 01       		.uleb128 0x1
 6449 0973 53       		.byte	0x53
 6450 0974 9F       		.byte	0x9f
 6451 0975 14000000 		.4byte	.LVL148
 6452 0979 2E000000 		.4byte	.LVL149
 6453 097d 0100     		.2byte	0x1
 6454 097f 53       		.byte	0x53
 6455 0980 2E000000 		.4byte	.LVL149
 6456 0984 30000000 		.4byte	.LVL150
 6457 0988 0400     		.2byte	0x4
 6458 098a F3       		.byte	0xf3
 6459 098b 01       		.uleb128 0x1
 6460 098c 53       		.byte	0x53
 6461 098d 9F       		.byte	0x9f
 6462 098e 30000000 		.4byte	.LVL150
 6463 0992 49000000 		.4byte	.LVL155-1
 6464 0996 0100     		.2byte	0x1
 6465 0998 53       		.byte	0x53
 6466 0999 49000000 		.4byte	.LVL155-1
 6467 099d A0000000 		.4byte	.LFE143
ARM GAS  C:\Users\adris\AppData\Local\Temp\ccnf5SFB.s 			page 143


 6468 09a1 0100     		.2byte	0x1
 6469 09a3 57       		.byte	0x57
 6470 09a4 00000000 		.4byte	0
 6471 09a8 00000000 		.4byte	0
 6472              	.LLST59:
 6473 09ac 5A000000 		.4byte	.LVL157
 6474 09b0 60000000 		.4byte	.LVL159
 6475 09b4 0100     		.2byte	0x1
 6476 09b6 50       		.byte	0x50
 6477 09b7 60000000 		.4byte	.LVL159
 6478 09bb A0000000 		.4byte	.LFE143
 6479 09bf 0100     		.2byte	0x1
 6480 09c1 55       		.byte	0x55
 6481 09c2 00000000 		.4byte	0
 6482 09c6 00000000 		.4byte	0
 6483              	.LLST60:
 6484 09ca 4A000000 		.4byte	.LVL155
 6485 09ce 56000000 		.4byte	.LVL156
 6486 09d2 0100     		.2byte	0x1
 6487 09d4 50       		.byte	0x50
 6488 09d5 56000000 		.4byte	.LVL156
 6489 09d9 59000000 		.4byte	.LVL157-1
 6490 09dd 0100     		.2byte	0x1
 6491 09df 53       		.byte	0x53
 6492 09e0 00000000 		.4byte	0
 6493 09e4 00000000 		.4byte	0
 6494              	.LLST61:
 6495 09e8 00000000 		.4byte	.LVL146
 6496 09ec 3C000000 		.4byte	.LVL152
 6497 09f0 0100     		.2byte	0x1
 6498 09f2 52       		.byte	0x52
 6499 09f3 3C000000 		.4byte	.LVL152
 6500 09f7 3E000000 		.4byte	.LVL153
 6501 09fb 0100     		.2byte	0x1
 6502 09fd 58       		.byte	0x58
 6503 09fe 3E000000 		.4byte	.LVL153
 6504 0a02 40000000 		.4byte	.LVL154
 6505 0a06 0100     		.2byte	0x1
 6506 0a08 52       		.byte	0x52
 6507 0a09 40000000 		.4byte	.LVL154
 6508 0a0d A0000000 		.4byte	.LFE143
 6509 0a11 0100     		.2byte	0x1
 6510 0a13 58       		.byte	0x58
 6511 0a14 00000000 		.4byte	0
 6512 0a18 00000000 		.4byte	0
 6513              	.LLST62:
 6514 0a1c 94000000 		.4byte	.LVL163
 6515 0a20 98000000 		.4byte	.LVL164
 6516 0a24 0100     		.2byte	0x1
 6517 0a26 56       		.byte	0x56
 6518 0a27 00000000 		.4byte	0
 6519 0a2b 00000000 		.4byte	0
 6520              	.LLST63:
 6521 0a2f 00000000 		.4byte	.LVL165
 6522 0a33 49000000 		.4byte	.LVL172-1
 6523 0a37 0100     		.2byte	0x1
 6524 0a39 50       		.byte	0x50
ARM GAS  C:\Users\adris\AppData\Local\Temp\ccnf5SFB.s 			page 144


 6525 0a3a 49000000 		.4byte	.LVL172-1
 6526 0a3e 9C000000 		.4byte	.LVL183
 6527 0a42 0100     		.2byte	0x1
 6528 0a44 54       		.byte	0x54
 6529 0a45 9C000000 		.4byte	.LVL183
 6530 0a49 9F000000 		.4byte	.LVL184-1
 6531 0a4d 0100     		.2byte	0x1
 6532 0a4f 50       		.byte	0x50
 6533 0a50 9F000000 		.4byte	.LVL184-1
 6534 0a54 E0000000 		.4byte	.LFE145
 6535 0a58 0100     		.2byte	0x1
 6536 0a5a 54       		.byte	0x54
 6537 0a5b 00000000 		.4byte	0
 6538 0a5f 00000000 		.4byte	0
 6539              	.LLST64:
 6540 0a63 00000000 		.4byte	.LVL165
 6541 0a67 32000000 		.4byte	.LVL170
 6542 0a6b 0100     		.2byte	0x1
 6543 0a6d 51       		.byte	0x51
 6544 0a6e 32000000 		.4byte	.LVL170
 6545 0a72 E0000000 		.4byte	.LFE145
 6546 0a76 0100     		.2byte	0x1
 6547 0a78 58       		.byte	0x58
 6548 0a79 00000000 		.4byte	0
 6549 0a7d 00000000 		.4byte	0
 6550              	.LLST65:
 6551 0a81 00000000 		.4byte	.LVL165
 6552 0a85 49000000 		.4byte	.LVL172-1
 6553 0a89 0100     		.2byte	0x1
 6554 0a8b 52       		.byte	0x52
 6555 0a8c 49000000 		.4byte	.LVL172-1
 6556 0a90 9C000000 		.4byte	.LVL183
 6557 0a94 0100     		.2byte	0x1
 6558 0a96 59       		.byte	0x59
 6559 0a97 9C000000 		.4byte	.LVL183
 6560 0a9b 9F000000 		.4byte	.LVL184-1
 6561 0a9f 0100     		.2byte	0x1
 6562 0aa1 52       		.byte	0x52
 6563 0aa2 9F000000 		.4byte	.LVL184-1
 6564 0aa6 E0000000 		.4byte	.LFE145
 6565 0aaa 0100     		.2byte	0x1
 6566 0aac 59       		.byte	0x59
 6567 0aad 00000000 		.4byte	0
 6568 0ab1 00000000 		.4byte	0
 6569              	.LLST66:
 6570 0ab5 00000000 		.4byte	.LVL165
 6571 0ab9 12000000 		.4byte	.LVL166
 6572 0abd 0100     		.2byte	0x1
 6573 0abf 53       		.byte	0x53
 6574 0ac0 12000000 		.4byte	.LVL166
 6575 0ac4 14000000 		.4byte	.LVL167
 6576 0ac8 0400     		.2byte	0x4
 6577 0aca F3       		.byte	0xf3
 6578 0acb 01       		.uleb128 0x1
 6579 0acc 53       		.byte	0x53
 6580 0acd 9F       		.byte	0x9f
 6581 0ace 14000000 		.4byte	.LVL167
ARM GAS  C:\Users\adris\AppData\Local\Temp\ccnf5SFB.s 			page 145


 6582 0ad2 2E000000 		.4byte	.LVL168
 6583 0ad6 0100     		.2byte	0x1
 6584 0ad8 53       		.byte	0x53
 6585 0ad9 2E000000 		.4byte	.LVL168
 6586 0add 30000000 		.4byte	.LVL169
 6587 0ae1 0400     		.2byte	0x4
 6588 0ae3 F3       		.byte	0xf3
 6589 0ae4 01       		.uleb128 0x1
 6590 0ae5 53       		.byte	0x53
 6591 0ae6 9F       		.byte	0x9f
 6592 0ae7 30000000 		.4byte	.LVL169
 6593 0aeb 49000000 		.4byte	.LVL172-1
 6594 0aef 0100     		.2byte	0x1
 6595 0af1 53       		.byte	0x53
 6596 0af2 49000000 		.4byte	.LVL172-1
 6597 0af6 9C000000 		.4byte	.LVL183
 6598 0afa 0100     		.2byte	0x1
 6599 0afc 57       		.byte	0x57
 6600 0afd 9C000000 		.4byte	.LVL183
 6601 0b01 9F000000 		.4byte	.LVL184-1
 6602 0b05 0100     		.2byte	0x1
 6603 0b07 53       		.byte	0x53
 6604 0b08 9F000000 		.4byte	.LVL184-1
 6605 0b0c E0000000 		.4byte	.LFE145
 6606 0b10 0100     		.2byte	0x1
 6607 0b12 57       		.byte	0x57
 6608 0b13 00000000 		.4byte	0
 6609 0b17 00000000 		.4byte	0
 6610              	.LLST68:
 6611 0b1b 00000000 		.4byte	.LVL165
 6612 0b1f B4000000 		.4byte	.LVL186
 6613 0b23 0200     		.2byte	0x2
 6614 0b25 30       		.byte	0x30
 6615 0b26 9F       		.byte	0x9f
 6616 0b27 B4000000 		.4byte	.LVL186
 6617 0b2b BB000000 		.4byte	.LVL188-1
 6618 0b2f 0100     		.2byte	0x1
 6619 0b31 50       		.byte	0x50
 6620 0b32 BB000000 		.4byte	.LVL188-1
 6621 0b36 D6000000 		.4byte	.LVL191
 6622 0b3a 0100     		.2byte	0x1
 6623 0b3c 55       		.byte	0x55
 6624 0b3d D6000000 		.4byte	.LVL191
 6625 0b41 D8000000 		.4byte	.LVL192
 6626 0b45 0200     		.2byte	0x2
 6627 0b47 30       		.byte	0x30
 6628 0b48 9F       		.byte	0x9f
 6629 0b49 D8000000 		.4byte	.LVL192
 6630 0b4d E0000000 		.4byte	.LFE145
 6631 0b51 0100     		.2byte	0x1
 6632 0b53 55       		.byte	0x55
 6633 0b54 00000000 		.4byte	0
 6634 0b58 00000000 		.4byte	0
 6635              	.LLST69:
 6636 0b5c 52000000 		.4byte	.LVL174
 6637 0b60 58000000 		.4byte	.LVL175
 6638 0b64 0100     		.2byte	0x1
ARM GAS  C:\Users\adris\AppData\Local\Temp\ccnf5SFB.s 			page 146


 6639 0b66 50       		.byte	0x50
 6640 0b67 58000000 		.4byte	.LVL175
 6641 0b6b 9A000000 		.4byte	.LVL182
 6642 0b6f 0100     		.2byte	0x1
 6643 0b71 55       		.byte	0x55
 6644 0b72 9A000000 		.4byte	.LVL182
 6645 0b76 9C000000 		.4byte	.LVL183
 6646 0b7a 0100     		.2byte	0x1
 6647 0b7c 50       		.byte	0x50
 6648 0b7d A2000000 		.4byte	.LVL185
 6649 0b81 B6000000 		.4byte	.LVL187
 6650 0b85 0100     		.2byte	0x1
 6651 0b87 55       		.byte	0x55
 6652 0b88 D6000000 		.4byte	.LVL191
 6653 0b8c D8000000 		.4byte	.LVL192
 6654 0b90 0100     		.2byte	0x1
 6655 0b92 55       		.byte	0x55
 6656 0b93 00000000 		.4byte	0
 6657 0b97 00000000 		.4byte	0
 6658              	.LLST70:
 6659 0b9b 00000000 		.4byte	.LVL193
 6660 0b9f 47000000 		.4byte	.LVL200-1
 6661 0ba3 0100     		.2byte	0x1
 6662 0ba5 50       		.byte	0x50
 6663 0ba6 47000000 		.4byte	.LVL200-1
 6664 0baa 9A000000 		.4byte	.LFE146
 6665 0bae 0100     		.2byte	0x1
 6666 0bb0 54       		.byte	0x54
 6667 0bb1 00000000 		.4byte	0
 6668 0bb5 00000000 		.4byte	0
 6669              	.LLST71:
 6670 0bb9 00000000 		.4byte	.LVL193
 6671 0bbd 32000000 		.4byte	.LVL198
 6672 0bc1 0100     		.2byte	0x1
 6673 0bc3 51       		.byte	0x51
 6674 0bc4 32000000 		.4byte	.LVL198
 6675 0bc8 5C000000 		.4byte	.LVL204
 6676 0bcc 0100     		.2byte	0x1
 6677 0bce 55       		.byte	0x55
 6678 0bcf 5C000000 		.4byte	.LVL204
 6679 0bd3 90000000 		.4byte	.LVL209
 6680 0bd7 0400     		.2byte	0x4
 6681 0bd9 F3       		.byte	0xf3
 6682 0bda 01       		.uleb128 0x1
 6683 0bdb 51       		.byte	0x51
 6684 0bdc 9F       		.byte	0x9f
 6685 0bdd 90000000 		.4byte	.LVL209
 6686 0be1 92000000 		.4byte	.LVL210
 6687 0be5 0100     		.2byte	0x1
 6688 0be7 55       		.byte	0x55
 6689 0be8 92000000 		.4byte	.LVL210
 6690 0bec 9A000000 		.4byte	.LFE146
 6691 0bf0 0400     		.2byte	0x4
 6692 0bf2 F3       		.byte	0xf3
 6693 0bf3 01       		.uleb128 0x1
 6694 0bf4 51       		.byte	0x51
 6695 0bf5 9F       		.byte	0x9f
ARM GAS  C:\Users\adris\AppData\Local\Temp\ccnf5SFB.s 			page 147


 6696 0bf6 00000000 		.4byte	0
 6697 0bfa 00000000 		.4byte	0
 6698              	.LLST72:
 6699 0bfe 00000000 		.4byte	.LVL193
 6700 0c02 47000000 		.4byte	.LVL200-1
 6701 0c06 0100     		.2byte	0x1
 6702 0c08 52       		.byte	0x52
 6703 0c09 47000000 		.4byte	.LVL200-1
 6704 0c0d 72000000 		.4byte	.LVL205
 6705 0c11 0100     		.2byte	0x1
 6706 0c13 56       		.byte	0x56
 6707 0c14 72000000 		.4byte	.LVL205
 6708 0c18 90000000 		.4byte	.LVL209
 6709 0c1c 0400     		.2byte	0x4
 6710 0c1e F3       		.byte	0xf3
 6711 0c1f 01       		.uleb128 0x1
 6712 0c20 52       		.byte	0x52
 6713 0c21 9F       		.byte	0x9f
 6714 0c22 90000000 		.4byte	.LVL209
 6715 0c26 92000000 		.4byte	.LVL210
 6716 0c2a 0100     		.2byte	0x1
 6717 0c2c 56       		.byte	0x56
 6718 0c2d 92000000 		.4byte	.LVL210
 6719 0c31 9A000000 		.4byte	.LFE146
 6720 0c35 0400     		.2byte	0x4
 6721 0c37 F3       		.byte	0xf3
 6722 0c38 01       		.uleb128 0x1
 6723 0c39 52       		.byte	0x52
 6724 0c3a 9F       		.byte	0x9f
 6725 0c3b 00000000 		.4byte	0
 6726 0c3f 00000000 		.4byte	0
 6727              	.LLST73:
 6728 0c43 00000000 		.4byte	.LVL193
 6729 0c47 12000000 		.4byte	.LVL194
 6730 0c4b 0100     		.2byte	0x1
 6731 0c4d 53       		.byte	0x53
 6732 0c4e 12000000 		.4byte	.LVL194
 6733 0c52 14000000 		.4byte	.LVL195
 6734 0c56 0400     		.2byte	0x4
 6735 0c58 F3       		.byte	0xf3
 6736 0c59 01       		.uleb128 0x1
 6737 0c5a 53       		.byte	0x53
 6738 0c5b 9F       		.byte	0x9f
 6739 0c5c 14000000 		.4byte	.LVL195
 6740 0c60 2E000000 		.4byte	.LVL196
 6741 0c64 0100     		.2byte	0x1
 6742 0c66 53       		.byte	0x53
 6743 0c67 2E000000 		.4byte	.LVL196
 6744 0c6b 30000000 		.4byte	.LVL197
 6745 0c6f 0400     		.2byte	0x4
 6746 0c71 F3       		.byte	0xf3
 6747 0c72 01       		.uleb128 0x1
 6748 0c73 53       		.byte	0x53
 6749 0c74 9F       		.byte	0x9f
 6750 0c75 30000000 		.4byte	.LVL197
 6751 0c79 47000000 		.4byte	.LVL200-1
 6752 0c7d 0100     		.2byte	0x1
ARM GAS  C:\Users\adris\AppData\Local\Temp\ccnf5SFB.s 			page 148


 6753 0c7f 53       		.byte	0x53
 6754 0c80 47000000 		.4byte	.LVL200-1
 6755 0c84 9A000000 		.4byte	.LFE146
 6756 0c88 0100     		.2byte	0x1
 6757 0c8a 58       		.byte	0x58
 6758 0c8b 00000000 		.4byte	0
 6759 0c8f 00000000 		.4byte	0
 6760              	.LLST75:
 6761 0c93 00000000 		.4byte	.LVL193
 6762 0c97 5A000000 		.4byte	.LVL203
 6763 0c9b 0200     		.2byte	0x2
 6764 0c9d 30       		.byte	0x30
 6765 0c9e 9F       		.byte	0x9f
 6766 0c9f 5A000000 		.4byte	.LVL203
 6767 0ca3 78000000 		.4byte	.LVL206
 6768 0ca7 0100     		.2byte	0x1
 6769 0ca9 50       		.byte	0x50
 6770 0caa 78000000 		.4byte	.LVL206
 6771 0cae 90000000 		.4byte	.LVL209
 6772 0cb2 0100     		.2byte	0x1
 6773 0cb4 55       		.byte	0x55
 6774 0cb5 90000000 		.4byte	.LVL209
 6775 0cb9 92000000 		.4byte	.LVL210
 6776 0cbd 0200     		.2byte	0x2
 6777 0cbf 30       		.byte	0x30
 6778 0cc0 9F       		.byte	0x9f
 6779 0cc1 92000000 		.4byte	.LVL210
 6780 0cc5 9A000000 		.4byte	.LFE146
 6781 0cc9 0100     		.2byte	0x1
 6782 0ccb 55       		.byte	0x55
 6783 0ccc 00000000 		.4byte	0
 6784 0cd0 00000000 		.4byte	0
 6785              	.LLST76:
 6786 0cd4 4A000000 		.4byte	.LVL201
 6787 0cd8 56000000 		.4byte	.LVL202
 6788 0cdc 0100     		.2byte	0x1
 6789 0cde 50       		.byte	0x50
 6790 0cdf 56000000 		.4byte	.LVL202
 6791 0ce3 59000000 		.4byte	.LVL203-1
 6792 0ce7 0100     		.2byte	0x1
 6793 0ce9 53       		.byte	0x53
 6794 0cea 90000000 		.4byte	.LVL209
 6795 0cee 92000000 		.4byte	.LVL210
 6796 0cf2 0100     		.2byte	0x1
 6797 0cf4 50       		.byte	0x50
 6798 0cf5 00000000 		.4byte	0
 6799 0cf9 00000000 		.4byte	0
 6800              	.LLST77:
 6801 0cfd 8A000000 		.4byte	.LVL208
 6802 0d01 90000000 		.4byte	.LVL209
 6803 0d05 0100     		.2byte	0x1
 6804 0d07 56       		.byte	0x56
 6805 0d08 00000000 		.4byte	0
 6806 0d0c 00000000 		.4byte	0
 6807              	.LLST78:
 6808 0d10 00000000 		.4byte	.LVL211
 6809 0d14 1E000000 		.4byte	.LVL214
ARM GAS  C:\Users\adris\AppData\Local\Temp\ccnf5SFB.s 			page 149


 6810 0d18 0100     		.2byte	0x1
 6811 0d1a 50       		.byte	0x50
 6812 0d1b 1E000000 		.4byte	.LVL214
 6813 0d1f 20000000 		.4byte	.LVL215
 6814 0d23 0400     		.2byte	0x4
 6815 0d25 F3       		.byte	0xf3
 6816 0d26 01       		.uleb128 0x1
 6817 0d27 50       		.byte	0x50
 6818 0d28 9F       		.byte	0x9f
 6819 0d29 20000000 		.4byte	.LVL215
 6820 0d2d 22000000 		.4byte	.LVL216
 6821 0d31 0100     		.2byte	0x1
 6822 0d33 50       		.byte	0x50
 6823 0d34 22000000 		.4byte	.LVL216
 6824 0d38 24000000 		.4byte	.LFE148
 6825 0d3c 0400     		.2byte	0x4
 6826 0d3e F3       		.byte	0xf3
 6827 0d3f 01       		.uleb128 0x1
 6828 0d40 50       		.byte	0x50
 6829 0d41 9F       		.byte	0x9f
 6830 0d42 00000000 		.4byte	0
 6831 0d46 00000000 		.4byte	0
 6832              	.LLST79:
 6833 0d4a 00000000 		.4byte	.LVL211
 6834 0d4e 1E000000 		.4byte	.LVL214
 6835 0d52 0100     		.2byte	0x1
 6836 0d54 50       		.byte	0x50
 6837 0d55 1E000000 		.4byte	.LVL214
 6838 0d59 20000000 		.4byte	.LVL215
 6839 0d5d 0400     		.2byte	0x4
 6840 0d5f F3       		.byte	0xf3
 6841 0d60 01       		.uleb128 0x1
 6842 0d61 50       		.byte	0x50
 6843 0d62 9F       		.byte	0x9f
 6844 0d63 20000000 		.4byte	.LVL215
 6845 0d67 22000000 		.4byte	.LVL216
 6846 0d6b 0100     		.2byte	0x1
 6847 0d6d 50       		.byte	0x50
 6848 0d6e 22000000 		.4byte	.LVL216
 6849 0d72 24000000 		.4byte	.LFE148
 6850 0d76 0400     		.2byte	0x4
 6851 0d78 F3       		.byte	0xf3
 6852 0d79 01       		.uleb128 0x1
 6853 0d7a 50       		.byte	0x50
 6854 0d7b 9F       		.byte	0x9f
 6855 0d7c 00000000 		.4byte	0
 6856 0d80 00000000 		.4byte	0
 6857              	.LLST80:
 6858 0d84 00000000 		.4byte	.LVL217
 6859 0d88 28000000 		.4byte	.LVL219
 6860 0d8c 0100     		.2byte	0x1
 6861 0d8e 50       		.byte	0x50
 6862 0d8f 28000000 		.4byte	.LVL219
 6863 0d93 2B000000 		.4byte	.LVL220-1
 6864 0d97 0100     		.2byte	0x1
 6865 0d99 53       		.byte	0x53
 6866 0d9a 2B000000 		.4byte	.LVL220-1
ARM GAS  C:\Users\adris\AppData\Local\Temp\ccnf5SFB.s 			page 150


 6867 0d9e 38000000 		.4byte	.LFE149
 6868 0da2 0400     		.2byte	0x4
 6869 0da4 F3       		.byte	0xf3
 6870 0da5 01       		.uleb128 0x1
 6871 0da6 50       		.byte	0x50
 6872 0da7 9F       		.byte	0x9f
 6873 0da8 00000000 		.4byte	0
 6874 0dac 00000000 		.4byte	0
 6875              	.LLST81:
 6876 0db0 00000000 		.4byte	.LVL217
 6877 0db4 28000000 		.4byte	.LVL219
 6878 0db8 0100     		.2byte	0x1
 6879 0dba 50       		.byte	0x50
 6880 0dbb 28000000 		.4byte	.LVL219
 6881 0dbf 2B000000 		.4byte	.LVL220-1
 6882 0dc3 0100     		.2byte	0x1
 6883 0dc5 53       		.byte	0x53
 6884 0dc6 2B000000 		.4byte	.LVL220-1
 6885 0dca 38000000 		.4byte	.LFE149
 6886 0dce 0400     		.2byte	0x4
 6887 0dd0 F3       		.byte	0xf3
 6888 0dd1 01       		.uleb128 0x1
 6889 0dd2 50       		.byte	0x50
 6890 0dd3 9F       		.byte	0x9f
 6891 0dd4 00000000 		.4byte	0
 6892 0dd8 00000000 		.4byte	0
 6893              	.LLST82:
 6894 0ddc 00000000 		.4byte	.LVL223
 6895 0de0 34000000 		.4byte	.LVL225
 6896 0de4 0100     		.2byte	0x1
 6897 0de6 50       		.byte	0x50
 6898 0de7 34000000 		.4byte	.LVL225
 6899 0deb 48000000 		.4byte	.LVL229
 6900 0def 0100     		.2byte	0x1
 6901 0df1 54       		.byte	0x54
 6902 0df2 48000000 		.4byte	.LVL229
 6903 0df6 4A000000 		.4byte	.LVL230
 6904 0dfa 0100     		.2byte	0x1
 6905 0dfc 50       		.byte	0x50
 6906 0dfd 4A000000 		.4byte	.LVL230
 6907 0e01 52000000 		.4byte	.LFE150
 6908 0e05 0100     		.2byte	0x1
 6909 0e07 54       		.byte	0x54
 6910 0e08 00000000 		.4byte	0
 6911 0e0c 00000000 		.4byte	0
 6912              	.LLST83:
 6913 0e10 00000000 		.4byte	.LVL223
 6914 0e14 3C000000 		.4byte	.LVL226
 6915 0e18 0100     		.2byte	0x1
 6916 0e1a 51       		.byte	0x51
 6917 0e1b 3C000000 		.4byte	.LVL226
 6918 0e1f 3F000000 		.4byte	.LVL227-1
 6919 0e23 0200     		.2byte	0x2
 6920 0e25 7D       		.byte	0x7d
 6921 0e26 00       		.sleb128 0
 6922 0e27 3F000000 		.4byte	.LVL227-1
 6923 0e2b 48000000 		.4byte	.LVL229
ARM GAS  C:\Users\adris\AppData\Local\Temp\ccnf5SFB.s 			page 151


 6924 0e2f 0400     		.2byte	0x4
 6925 0e31 F3       		.byte	0xf3
 6926 0e32 01       		.uleb128 0x1
 6927 0e33 51       		.byte	0x51
 6928 0e34 9F       		.byte	0x9f
 6929 0e35 48000000 		.4byte	.LVL229
 6930 0e39 4A000000 		.4byte	.LVL230
 6931 0e3d 0100     		.2byte	0x1
 6932 0e3f 51       		.byte	0x51
 6933 0e40 4A000000 		.4byte	.LVL230
 6934 0e44 52000000 		.4byte	.LFE150
 6935 0e48 0400     		.2byte	0x4
 6936 0e4a F3       		.byte	0xf3
 6937 0e4b 01       		.uleb128 0x1
 6938 0e4c 51       		.byte	0x51
 6939 0e4d 9F       		.byte	0x9f
 6940 0e4e 00000000 		.4byte	0
 6941 0e52 00000000 		.4byte	0
 6942              	.LLST85:
 6943 0e56 44000000 		.4byte	.LVL228
 6944 0e5a 48000000 		.4byte	.LVL229
 6945 0e5e 0200     		.2byte	0x2
 6946 0e60 31       		.byte	0x31
 6947 0e61 9F       		.byte	0x9f
 6948 0e62 4A000000 		.4byte	.LVL230
 6949 0e66 52000000 		.4byte	.LFE150
 6950 0e6a 0100     		.2byte	0x1
 6951 0e6c 50       		.byte	0x50
 6952 0e6d 00000000 		.4byte	0
 6953 0e71 00000000 		.4byte	0
 6954              	.LLST86:
 6955 0e75 4A000000 		.4byte	.LVL230
 6956 0e79 4E000000 		.4byte	.LVL231
 6957 0e7d 0100     		.2byte	0x1
 6958 0e7f 55       		.byte	0x55
 6959 0e80 00000000 		.4byte	0
 6960 0e84 00000000 		.4byte	0
 6961              	.LLST87:
 6962 0e88 00000000 		.4byte	.LVL232
 6963 0e8c 34000000 		.4byte	.LVL234
 6964 0e90 0100     		.2byte	0x1
 6965 0e92 50       		.byte	0x50
 6966 0e93 34000000 		.4byte	.LVL234
 6967 0e97 48000000 		.4byte	.LVL238
 6968 0e9b 0100     		.2byte	0x1
 6969 0e9d 54       		.byte	0x54
 6970 0e9e 48000000 		.4byte	.LVL238
 6971 0ea2 4A000000 		.4byte	.LVL239
 6972 0ea6 0100     		.2byte	0x1
 6973 0ea8 50       		.byte	0x50
 6974 0ea9 4A000000 		.4byte	.LVL239
 6975 0ead 52000000 		.4byte	.LFE151
 6976 0eb1 0100     		.2byte	0x1
 6977 0eb3 54       		.byte	0x54
 6978 0eb4 00000000 		.4byte	0
 6979 0eb8 00000000 		.4byte	0
 6980              	.LLST88:
ARM GAS  C:\Users\adris\AppData\Local\Temp\ccnf5SFB.s 			page 152


 6981 0ebc 00000000 		.4byte	.LVL232
 6982 0ec0 3C000000 		.4byte	.LVL235
 6983 0ec4 0100     		.2byte	0x1
 6984 0ec6 51       		.byte	0x51
 6985 0ec7 3C000000 		.4byte	.LVL235
 6986 0ecb 3F000000 		.4byte	.LVL236-1
 6987 0ecf 0200     		.2byte	0x2
 6988 0ed1 7D       		.byte	0x7d
 6989 0ed2 00       		.sleb128 0
 6990 0ed3 3F000000 		.4byte	.LVL236-1
 6991 0ed7 48000000 		.4byte	.LVL238
 6992 0edb 0400     		.2byte	0x4
 6993 0edd F3       		.byte	0xf3
 6994 0ede 01       		.uleb128 0x1
 6995 0edf 51       		.byte	0x51
 6996 0ee0 9F       		.byte	0x9f
 6997 0ee1 48000000 		.4byte	.LVL238
 6998 0ee5 4A000000 		.4byte	.LVL239
 6999 0ee9 0100     		.2byte	0x1
 7000 0eeb 51       		.byte	0x51
 7001 0eec 4A000000 		.4byte	.LVL239
 7002 0ef0 52000000 		.4byte	.LFE151
 7003 0ef4 0400     		.2byte	0x4
 7004 0ef6 F3       		.byte	0xf3
 7005 0ef7 01       		.uleb128 0x1
 7006 0ef8 51       		.byte	0x51
 7007 0ef9 9F       		.byte	0x9f
 7008 0efa 00000000 		.4byte	0
 7009 0efe 00000000 		.4byte	0
 7010              	.LLST90:
 7011 0f02 44000000 		.4byte	.LVL237
 7012 0f06 48000000 		.4byte	.LVL238
 7013 0f0a 0200     		.2byte	0x2
 7014 0f0c 31       		.byte	0x31
 7015 0f0d 9F       		.byte	0x9f
 7016 0f0e 4A000000 		.4byte	.LVL239
 7017 0f12 52000000 		.4byte	.LFE151
 7018 0f16 0100     		.2byte	0x1
 7019 0f18 50       		.byte	0x50
 7020 0f19 00000000 		.4byte	0
 7021 0f1d 00000000 		.4byte	0
 7022              	.LLST91:
 7023 0f21 4A000000 		.4byte	.LVL239
 7024 0f25 4E000000 		.4byte	.LVL240
 7025 0f29 0100     		.2byte	0x1
 7026 0f2b 55       		.byte	0x55
 7027 0f2c 00000000 		.4byte	0
 7028 0f30 00000000 		.4byte	0
 7029              	.LLST92:
 7030 0f34 00000000 		.4byte	.LVL241
 7031 0f38 02000000 		.4byte	.LVL242
 7032 0f3c 0100     		.2byte	0x1
 7033 0f3e 50       		.byte	0x50
 7034 0f3f 02000000 		.4byte	.LVL242
 7035 0f43 04000000 		.4byte	.LFE156
 7036 0f47 0400     		.2byte	0x4
 7037 0f49 F3       		.byte	0xf3
ARM GAS  C:\Users\adris\AppData\Local\Temp\ccnf5SFB.s 			page 153


 7038 0f4a 01       		.uleb128 0x1
 7039 0f4b 50       		.byte	0x50
 7040 0f4c 9F       		.byte	0x9f
 7041 0f4d 00000000 		.4byte	0
 7042 0f51 00000000 		.4byte	0
 7043              	.LLST93:
 7044 0f55 00000000 		.4byte	.LVL244
 7045 0f59 02000000 		.4byte	.LVL245
 7046 0f5d 0100     		.2byte	0x1
 7047 0f5f 50       		.byte	0x50
 7048 0f60 02000000 		.4byte	.LVL245
 7049 0f64 08000000 		.4byte	.LFE158
 7050 0f68 0400     		.2byte	0x4
 7051 0f6a F3       		.byte	0xf3
 7052 0f6b 01       		.uleb128 0x1
 7053 0f6c 50       		.byte	0x50
 7054 0f6d 9F       		.byte	0x9f
 7055 0f6e 00000000 		.4byte	0
 7056 0f72 00000000 		.4byte	0
 7057              		.section	.debug_aranges,"",%progbits
 7058 0000 CC000000 		.4byte	0xcc
 7059 0004 0200     		.2byte	0x2
 7060 0006 00000000 		.4byte	.Ldebug_info0
 7061 000a 04       		.byte	0x4
 7062 000b 00       		.byte	0
 7063 000c 0000     		.2byte	0
 7064 000e 0000     		.2byte	0
 7065 0010 00000000 		.4byte	.LFB154
 7066 0014 12000000 		.4byte	.LFE154-.LFB154
 7067 0018 00000000 		.4byte	.LFB155
 7068 001c 46000000 		.4byte	.LFE155-.LFB155
 7069 0020 00000000 		.4byte	.LFB152
 7070 0024 8C000000 		.4byte	.LFE152-.LFB152
 7071 0028 00000000 		.4byte	.LFB144
 7072 002c 52000000 		.4byte	.LFE144-.LFB144
 7073 0030 00000000 		.4byte	.LFB153
 7074 0034 96000000 		.4byte	.LFE153-.LFB153
 7075 0038 00000000 		.4byte	.LFB147
 7076 003c 44000000 		.4byte	.LFE147-.LFB147
 7077 0040 00000000 		.4byte	.LFB136
 7078 0044 58000000 		.4byte	.LFE136-.LFB136
 7079 0048 00000000 		.4byte	.LFB137
 7080 004c 2E000000 		.4byte	.LFE137-.LFB137
 7081 0050 00000000 		.4byte	.LFB138
 7082 0054 50000000 		.4byte	.LFE138-.LFB138
 7083 0058 00000000 		.4byte	.LFB139
 7084 005c 2A000000 		.4byte	.LFE139-.LFB139
 7085 0060 00000000 		.4byte	.LFB140
 7086 0064 28000000 		.4byte	.LFE140-.LFB140
 7087 0068 00000000 		.4byte	.LFB141
 7088 006c 1C000000 		.4byte	.LFE141-.LFB141
 7089 0070 00000000 		.4byte	.LFB142
 7090 0074 02010000 		.4byte	.LFE142-.LFB142
 7091 0078 00000000 		.4byte	.LFB143
 7092 007c A0000000 		.4byte	.LFE143-.LFB143
 7093 0080 00000000 		.4byte	.LFB145
 7094 0084 E0000000 		.4byte	.LFE145-.LFB145
ARM GAS  C:\Users\adris\AppData\Local\Temp\ccnf5SFB.s 			page 154


 7095 0088 00000000 		.4byte	.LFB146
 7096 008c 9A000000 		.4byte	.LFE146-.LFB146
 7097 0090 00000000 		.4byte	.LFB148
 7098 0094 24000000 		.4byte	.LFE148-.LFB148
 7099 0098 00000000 		.4byte	.LFB149
 7100 009c 38000000 		.4byte	.LFE149-.LFB149
 7101 00a0 00000000 		.4byte	.LFB150
 7102 00a4 52000000 		.4byte	.LFE150-.LFB150
 7103 00a8 00000000 		.4byte	.LFB151
 7104 00ac 52000000 		.4byte	.LFE151-.LFB151
 7105 00b0 00000000 		.4byte	.LFB156
 7106 00b4 04000000 		.4byte	.LFE156-.LFB156
 7107 00b8 00000000 		.4byte	.LFB157
 7108 00bc 04000000 		.4byte	.LFE157-.LFB157
 7109 00c0 00000000 		.4byte	.LFB158
 7110 00c4 08000000 		.4byte	.LFE158-.LFB158
 7111 00c8 00000000 		.4byte	0
 7112 00cc 00000000 		.4byte	0
 7113              		.section	.debug_ranges,"",%progbits
 7114              	.Ldebug_ranges0:
 7115 0000 00000000 		.4byte	.LFB154
 7116 0004 12000000 		.4byte	.LFE154
 7117 0008 00000000 		.4byte	.LFB155
 7118 000c 46000000 		.4byte	.LFE155
 7119 0010 00000000 		.4byte	.LFB152
 7120 0014 8C000000 		.4byte	.LFE152
 7121 0018 00000000 		.4byte	.LFB144
 7122 001c 52000000 		.4byte	.LFE144
 7123 0020 00000000 		.4byte	.LFB153
 7124 0024 96000000 		.4byte	.LFE153
 7125 0028 00000000 		.4byte	.LFB147
 7126 002c 44000000 		.4byte	.LFE147
 7127 0030 00000000 		.4byte	.LFB136
 7128 0034 58000000 		.4byte	.LFE136
 7129 0038 00000000 		.4byte	.LFB137
 7130 003c 2E000000 		.4byte	.LFE137
 7131 0040 00000000 		.4byte	.LFB138
 7132 0044 50000000 		.4byte	.LFE138
 7133 0048 00000000 		.4byte	.LFB139
 7134 004c 2A000000 		.4byte	.LFE139
 7135 0050 00000000 		.4byte	.LFB140
 7136 0054 28000000 		.4byte	.LFE140
 7137 0058 00000000 		.4byte	.LFB141
 7138 005c 1C000000 		.4byte	.LFE141
 7139 0060 00000000 		.4byte	.LFB142
 7140 0064 02010000 		.4byte	.LFE142
 7141 0068 00000000 		.4byte	.LFB143
 7142 006c A0000000 		.4byte	.LFE143
 7143 0070 00000000 		.4byte	.LFB145
 7144 0074 E0000000 		.4byte	.LFE145
 7145 0078 00000000 		.4byte	.LFB146
 7146 007c 9A000000 		.4byte	.LFE146
 7147 0080 00000000 		.4byte	.LFB148
 7148 0084 24000000 		.4byte	.LFE148
 7149 0088 00000000 		.4byte	.LFB149
 7150 008c 38000000 		.4byte	.LFE149
 7151 0090 00000000 		.4byte	.LFB150
ARM GAS  C:\Users\adris\AppData\Local\Temp\ccnf5SFB.s 			page 155


 7152 0094 52000000 		.4byte	.LFE150
 7153 0098 00000000 		.4byte	.LFB151
 7154 009c 52000000 		.4byte	.LFE151
 7155 00a0 00000000 		.4byte	.LFB156
 7156 00a4 04000000 		.4byte	.LFE156
 7157 00a8 00000000 		.4byte	.LFB157
 7158 00ac 04000000 		.4byte	.LFE157
 7159 00b0 00000000 		.4byte	.LFB158
 7160 00b4 08000000 		.4byte	.LFE158
 7161 00b8 00000000 		.4byte	0
 7162 00bc 00000000 		.4byte	0
 7163              		.section	.debug_line,"",%progbits
 7164              	.Ldebug_line0:
 7165 0000 8A070000 		.section	.debug_str,"MS",%progbits,1
 7165      02004903 
 7165      00000201 
 7165      FB0E0D00 
 7165      01010101 
 7166              	.LASF65:
 7167 0000 7853686F 		.ascii	"xShouldWrite\000"
 7167      756C6457 
 7167      72697465 
 7167      00
 7168              	.LASF73:
 7169 000d 78427566 		.ascii	"xBufferLengthBytes\000"
 7169      6665724C 
 7169      656E6774 
 7169      68427974 
 7169      657300
 7170              	.LASF25:
 7171 0020 654E6F41 		.ascii	"eNoAction\000"
 7171      6374696F 
 7171      6E00
 7172              	.LASF80:
 7173 002a 78537472 		.ascii	"xStreamBufferGenericCreate\000"
 7173      65616D42 
 7173      75666665 
 7173      7247656E 
 7173      65726963 
 7174              	.LASF53:
 7175 0045 78436F75 		.ascii	"xCount\000"
 7175      6E7400
 7176              	.LASF99:
 7177 004c 76537472 		.ascii	"vStreamBufferDelete\000"
 7177      65616D42 
 7177      75666665 
 7177      7244656C 
 7177      65746500 
 7178              	.LASF34:
 7179 0060 7854494D 		.ascii	"xTIME_OUT\000"
 7179      455F4F55 
 7179      5400
 7180              	.LASF92:
 7181 006a 78537472 		.ascii	"xStreamBufferReceive\000"
 7181      65616D42 
 7181      75666665 
 7181      72526563 
ARM GAS  C:\Users\adris\AppData\Local\Temp\ccnf5SFB.s 			page 156


 7181      65697665 
 7182              	.LASF61:
 7183 007f 70765478 		.ascii	"pvTxData\000"
 7183      44617461 
 7183      00
 7184              	.LASF32:
 7185 0088 54696D65 		.ascii	"TimeOut_t\000"
 7185      4F75745F 
 7185      7400
 7186              	.LASF2:
 7187 0092 73686F72 		.ascii	"short int\000"
 7187      7420696E 
 7187      7400
 7188              	.LASF15:
 7189 009c 73697A65 		.ascii	"size_t\000"
 7189      5F7400
 7190              	.LASF17:
 7191 00a3 73697A65 		.ascii	"sizetype\000"
 7191      74797065 
 7191      00
 7192              	.LASF67:
 7193 00ac 70727652 		.ascii	"prvReadBytesFromBuffer\000"
 7193      65616442 
 7193      79746573 
 7193      46726F6D 
 7193      42756666 
 7194              	.LASF24:
 7195 00c3 5461736B 		.ascii	"TaskHandle_t\000"
 7195      48616E64 
 7195      6C655F74 
 7195      00
 7196              	.LASF97:
 7197 00d0 78537472 		.ascii	"xStreamBufferReceiveCompletedFromISR\000"
 7197      65616D42 
 7197      75666665 
 7197      72526563 
 7197      65697665 
 7198              	.LASF69:
 7199 00f5 78427974 		.ascii	"xBytesAvailable\000"
 7199      65734176 
 7199      61696C61 
 7199      626C6500 
 7200              	.LASF77:
 7201 0105 784E6578 		.ascii	"xNextMessageLength\000"
 7201      744D6573 
 7201      73616765 
 7201      4C656E67 
 7201      746800
 7202              	.LASF58:
 7203 0118 784E6578 		.ascii	"xNextHead\000"
 7203      74486561 
 7203      6400
 7204              	.LASF103:
 7205 0122 6D656D63 		.ascii	"memcpy\000"
 7205      707900
 7206              	.LASF62:
 7207 0129 78446174 		.ascii	"xDataLengthBytes\000"
ARM GAS  C:\Users\adris\AppData\Local\Temp\ccnf5SFB.s 			page 157


 7207      614C656E 
 7207      67746842 
 7207      79746573 
 7207      00
 7208              	.LASF42:
 7209 013a 70756342 		.ascii	"pucBuffer\000"
 7209      75666665 
 7209      7200
 7210              	.LASF116:
 7211 0144 78546173 		.ascii	"xTaskGenericNotifyFromISR\000"
 7211      6B47656E 
 7211      65726963 
 7211      4E6F7469 
 7211      66794672 
 7212              	.LASF59:
 7213 015e 78466972 		.ascii	"xFirstLength\000"
 7213      73744C65 
 7213      6E677468 
 7213      00
 7214              	.LASF29:
 7215 016b 65536574 		.ascii	"eSetValueWithoutOverwrite\000"
 7215      56616C75 
 7215      65576974 
 7215      686F7574 
 7215      4F766572 
 7216              	.LASF88:
 7217 0185 7854696D 		.ascii	"xTimeOut\000"
 7217      654F7574 
 7217      00
 7218              	.LASF106:
 7219 018e 76546173 		.ascii	"vTaskSetTimeOutState\000"
 7219      6B536574 
 7219      54696D65 
 7219      4F757453 
 7219      74617465 
 7220              	.LASF55:
 7221 01a3 70727642 		.ascii	"prvBytesInBuffer\000"
 7221      79746573 
 7221      496E4275 
 7221      66666572 
 7221      00
 7222              	.LASF12:
 7223 01b4 75696E74 		.ascii	"uint8_t\000"
 7223      385F7400 
 7224              	.LASF71:
 7225 01bc 70727652 		.ascii	"prvReadMessageFromBuffer\000"
 7225      6561644D 
 7225      65737361 
 7225      67654672 
 7225      6F6D4275 
 7226              	.LASF76:
 7227 01d5 78526563 		.ascii	"xReceivedLength\000"
 7227      65697665 
 7227      644C656E 
 7227      67746800 
 7228              	.LASF120:
 7229 01e5 756C506F 		.ascii	"ulPortRaiseBASEPRI\000"
ARM GAS  C:\Users\adris\AppData\Local\Temp\ccnf5SFB.s 			page 158


 7229      72745261 
 7229      69736542 
 7229      41534550 
 7229      524900
 7230              	.LASF81:
 7231 01f8 78537472 		.ascii	"xStreamBufferReset\000"
 7231      65616D42 
 7231      75666665 
 7231      72526573 
 7231      657400
 7232              	.LASF28:
 7233 020b 65536574 		.ascii	"eSetValueWithOverwrite\000"
 7233      56616C75 
 7233      65576974 
 7233      684F7665 
 7233      72777269 
 7234              	.LASF26:
 7235 0222 65536574 		.ascii	"eSetBits\000"
 7235      42697473 
 7235      00
 7236              	.LASF79:
 7237 022b 78537472 		.ascii	"xStreamBuffer\000"
 7237      65616D42 
 7237      75666665 
 7237      7200
 7238              	.LASF19:
 7239 0239 666C6F61 		.ascii	"float\000"
 7239      7400
 7240              	.LASF111:
 7241 023f 78546173 		.ascii	"xTaskNotifyWait\000"
 7241      6B4E6F74 
 7241      69667957 
 7241      61697400 
 7242              	.LASF87:
 7243 024f 78546963 		.ascii	"xTicksToWait\000"
 7243      6B73546F 
 7243      57616974 
 7243      00
 7244              	.LASF9:
 7245 025c 6C6F6E67 		.ascii	"long long int\000"
 7245      206C6F6E 
 7245      6720696E 
 7245      7400
 7246              	.LASF64:
 7247 026a 78526571 		.ascii	"xRequiredSpace\000"
 7247      75697265 
 7247      64537061 
 7247      636500
 7248              	.LASF93:
 7249 0279 78537472 		.ascii	"xStreamBufferReceiveFromISR\000"
 7249      65616D42 
 7249      75666665 
 7249      72526563 
 7249      65697665 
 7250              	.LASF102:
 7251 0295 6D656D73 		.ascii	"memset\000"
 7251      657400
ARM GAS  C:\Users\adris\AppData\Local\Temp\ccnf5SFB.s 			page 159


 7252              	.LASF54:
 7253 029c 78577269 		.ascii	"xWriteValue\000"
 7253      74655661 
 7253      6C756500 
 7254              	.LASF6:
 7255 02a8 6C6F6E67 		.ascii	"long int\000"
 7255      20696E74 
 7255      00
 7256              	.LASF83:
 7257 02b1 78547269 		.ascii	"xTriggerLevel\000"
 7257      67676572 
 7257      4C657665 
 7257      6C00
 7258              	.LASF45:
 7259 02bf 53747265 		.ascii	"StreamBuffer_t\000"
 7259      616D4275 
 7259      66666572 
 7259      5F7400
 7260              	.LASF94:
 7261 02ce 78537472 		.ascii	"xStreamBufferIsEmpty\000"
 7261      65616D42 
 7261      75666665 
 7261      72497345 
 7261      6D707479 
 7262              	.LASF4:
 7263 02e3 5F5F7569 		.ascii	"__uint8_t\000"
 7263      6E74385F 
 7263      7400
 7264              	.LASF112:
 7265 02ed 78546173 		.ascii	"xTaskCheckForTimeOut\000"
 7265      6B436865 
 7265      636B466F 
 7265      7254696D 
 7265      654F7574 
 7266              	.LASF78:
 7267 0302 70756341 		.ascii	"pucAllocatedMemory\000"
 7267      6C6C6F63 
 7267      61746564 
 7267      4D656D6F 
 7267      727900
 7268              	.LASF50:
 7269 0315 70785374 		.ascii	"pxStreamBuffer\000"
 7269      7265616D 
 7269      42756666 
 7269      657200
 7270              	.LASF60:
 7271 0324 70727657 		.ascii	"prvWriteMessageToBuffer\000"
 7271      72697465 
 7271      4D657373 
 7271      61676554 
 7271      6F427566 
 7272              	.LASF90:
 7273 033c 70784869 		.ascii	"pxHigherPriorityTaskWoken\000"
 7273      67686572 
 7273      5072696F 
 7273      72697479 
 7273      5461736B 
ARM GAS  C:\Users\adris\AppData\Local\Temp\ccnf5SFB.s 			page 160


 7274              	.LASF72:
 7275 0356 70765278 		.ascii	"pvRxData\000"
 7275      44617461 
 7275      00
 7276              	.LASF16:
 7277 035f 6C6F6E67 		.ascii	"long double\000"
 7277      20646F75 
 7277      626C6500 
 7278              	.LASF38:
 7279 036b 784C656E 		.ascii	"xLength\000"
 7279      67746800 
 7280              	.LASF1:
 7281 0373 756E7369 		.ascii	"unsigned char\000"
 7281      676E6564 
 7281      20636861 
 7281      7200
 7282              	.LASF31:
 7283 0381 7854696D 		.ascii	"xTimeOnEntering\000"
 7283      654F6E45 
 7283      6E746572 
 7283      696E6700 
 7284              	.LASF51:
 7285 0391 78427566 		.ascii	"xBufferSizeBytes\000"
 7285      66657253 
 7285      697A6542 
 7285      79746573 
 7285      00
 7286              	.LASF47:
 7287 03a2 756C4F72 		.ascii	"ulOriginalBASEPRI\000"
 7287      6967696E 
 7287      616C4241 
 7287      53455052 
 7287      4900
 7288              	.LASF82:
 7289 03b4 78537472 		.ascii	"xStreamBufferSetTriggerLevel\000"
 7289      65616D42 
 7289      75666665 
 7289      72536574 
 7289      54726967 
 7290              	.LASF40:
 7291 03d1 78546173 		.ascii	"xTaskWaitingToReceive\000"
 7291      6B576169 
 7291      74696E67 
 7291      546F5265 
 7291      63656976 
 7292              	.LASF0:
 7293 03e7 7369676E 		.ascii	"signed char\000"
 7293      65642063 
 7293      68617200 
 7294              	.LASF84:
 7295 03f3 78537472 		.ascii	"xStreamBufferSpacesAvailable\000"
 7295      65616D42 
 7295      75666665 
 7295      72537061 
 7295      63657341 
 7296              	.LASF10:
 7297 0410 6C6F6E67 		.ascii	"long long unsigned int\000"
ARM GAS  C:\Users\adris\AppData\Local\Temp\ccnf5SFB.s 			page 161


 7297      206C6F6E 
 7297      6720756E 
 7297      7369676E 
 7297      65642069 
 7298              	.LASF30:
 7299 0427 784F7665 		.ascii	"xOverflowCount\000"
 7299      72666C6F 
 7299      77436F75 
 7299      6E7400
 7300              	.LASF14:
 7301 0436 75696E74 		.ascii	"uint32_t\000"
 7301      33325F74 
 7301      00
 7302              	.LASF89:
 7303 043f 78537472 		.ascii	"xStreamBufferSendFromISR\000"
 7303      65616D42 
 7303      75666665 
 7303      7253656E 
 7303      6446726F 
 7304              	.LASF11:
 7305 0458 756E7369 		.ascii	"unsigned int\000"
 7305      676E6564 
 7305      20696E74 
 7305      00
 7306              	.LASF21:
 7307 0465 42617365 		.ascii	"BaseType_t\000"
 7307      54797065 
 7307      5F7400
 7308              	.LASF43:
 7309 0470 7563466C 		.ascii	"ucFlags\000"
 7309      61677300 
 7310              	.LASF86:
 7311 0478 78537472 		.ascii	"xStreamBufferSend\000"
 7311      65616D42 
 7311      75666665 
 7311      7253656E 
 7311      6400
 7312              	.LASF23:
 7313 048a 5469636B 		.ascii	"TickType_t\000"
 7313      54797065 
 7313      5F7400
 7314              	.LASF115:
 7315 0495 78546173 		.ascii	"xTaskResumeAll\000"
 7315      6B526573 
 7315      756D6541 
 7315      6C6C00
 7316              	.LASF3:
 7317 04a4 73686F72 		.ascii	"short unsigned int\000"
 7317      7420756E 
 7317      7369676E 
 7317      65642069 
 7317      6E7400
 7318              	.LASF107:
 7319 04b7 76506F72 		.ascii	"vPortEnterCritical\000"
 7319      74456E74 
 7319      65724372 
 7319      69746963 
ARM GAS  C:\Users\adris\AppData\Local\Temp\ccnf5SFB.s 			page 162


 7319      616C00
 7320              	.LASF105:
 7321 04ca 76506F72 		.ascii	"vPortFree\000"
 7321      74467265 
 7321      6500
 7322              	.LASF49:
 7323 04d4 76506F72 		.ascii	"vPortSetBASEPRI\000"
 7323      74536574 
 7323      42415345 
 7323      50524900 
 7324              	.LASF36:
 7325 04e4 78546169 		.ascii	"xTail\000"
 7325      6C00
 7326              	.LASF118:
 7327 04ea 47656E65 		.ascii	"Generated_Source\\PSoC6\\pdl\\rtos\\FreeRTOS\\10.0."
 7327      72617465 
 7327      645F536F 
 7327      75726365 
 7327      5C50536F 
 7328 0518 315C536F 		.ascii	"1\\Source\\stream_buffer.c\000"
 7328      75726365 
 7328      5C737472 
 7328      65616D5F 
 7328      62756666 
 7329              	.LASF101:
 7330 0531 75635374 		.ascii	"ucStreamBufferGetStreamBufferType\000"
 7330      7265616D 
 7330      42756666 
 7330      65724765 
 7330      74537472 
 7331              	.LASF13:
 7332 0553 696E7433 		.ascii	"int32_t\000"
 7332      325F7400 
 7333              	.LASF52:
 7334 055b 7849734D 		.ascii	"xIsMessageBuffer\000"
 7334      65737361 
 7334      67654275 
 7334      66666572 
 7334      00
 7335              	.LASF44:
 7336 056c 75785374 		.ascii	"uxStreamBufferNumber\000"
 7336      7265616D 
 7336      42756666 
 7336      65724E75 
 7336      6D626572 
 7337              	.LASF22:
 7338 0581 55426173 		.ascii	"UBaseType_t\000"
 7338      65547970 
 7338      655F7400 
 7339              	.LASF63:
 7340 058d 78537061 		.ascii	"xSpace\000"
 7340      636500
 7341              	.LASF110:
 7342 0594 76506F72 		.ascii	"vPortExitCritical\000"
 7342      74457869 
 7342      74437269 
 7342      74696361 
ARM GAS  C:\Users\adris\AppData\Local\Temp\ccnf5SFB.s 			page 163


 7342      6C00
 7343              	.LASF114:
 7344 05a6 78546173 		.ascii	"xTaskGenericNotify\000"
 7344      6B47656E 
 7344      65726963 
 7344      4E6F7469 
 7344      667900
 7345              	.LASF39:
 7346 05b9 78547269 		.ascii	"xTriggerLevelBytes\000"
 7346      67676572 
 7346      4C657665 
 7346      6C427974 
 7346      657300
 7347              	.LASF35:
 7348 05cc 78535452 		.ascii	"xSTREAM_BUFFER\000"
 7348      45414D5F 
 7348      42554646 
 7348      455200
 7349              	.LASF109:
 7350 05db 78546173 		.ascii	"xTaskGetCurrentTaskHandle\000"
 7350      6B476574 
 7350      43757272 
 7350      656E7454 
 7350      61736B48 
 7351              	.LASF68:
 7352 05f5 784D6178 		.ascii	"xMaxCount\000"
 7352      436F756E 
 7352      7400
 7353              	.LASF8:
 7354 05ff 6C6F6E67 		.ascii	"long unsigned int\000"
 7354      20756E73 
 7354      69676E65 
 7354      6420696E 
 7354      7400
 7355              	.LASF74:
 7356 0611 78427974 		.ascii	"xBytesToStoreMessageLength\000"
 7356      6573546F 
 7356      53746F72 
 7356      654D6573 
 7356      73616765 
 7357              	.LASF20:
 7358 062c 646F7562 		.ascii	"double\000"
 7358      6C6500
 7359              	.LASF56:
 7360 0633 70727657 		.ascii	"prvWriteBytesToBuffer\000"
 7360      72697465 
 7360      42797465 
 7360      73546F42 
 7360      75666665 
 7361              	.LASF121:
 7362 0649 756C4E65 		.ascii	"ulNewMaskValue\000"
 7362      774D6173 
 7362      6B56616C 
 7362      756500
 7363              	.LASF100:
 7364 0658 76537472 		.ascii	"vStreamBufferSetStreamBufferNumber\000"
 7364      65616D42 
ARM GAS  C:\Users\adris\AppData\Local\Temp\ccnf5SFB.s 			page 164


 7364      75666665 
 7364      72536574 
 7364      53747265 
 7365              	.LASF7:
 7366 067b 5F5F7569 		.ascii	"__uint32_t\000"
 7366      6E743332 
 7366      5F7400
 7367              	.LASF108:
 7368 0686 78546173 		.ascii	"xTaskNotifyStateClear\000"
 7368      6B4E6F74 
 7368      69667953 
 7368      74617465 
 7368      436C6561 
 7369              	.LASF5:
 7370 069c 5F5F696E 		.ascii	"__int32_t\000"
 7370      7433325F 
 7370      7400
 7371              	.LASF41:
 7372 06a6 78546173 		.ascii	"xTaskWaitingToSend\000"
 7372      6B576169 
 7372      74696E67 
 7372      546F5365 
 7372      6E6400
 7373              	.LASF33:
 7374 06b9 53747265 		.ascii	"StreamBufferHandle_t\000"
 7374      616D4275 
 7374      66666572 
 7374      48616E64 
 7374      6C655F74 
 7375              	.LASF27:
 7376 06ce 65496E63 		.ascii	"eIncrement\000"
 7376      72656D65 
 7376      6E7400
 7377              	.LASF91:
 7378 06d9 75785361 		.ascii	"uxSavedInterruptStatus\000"
 7378      76656449 
 7378      6E746572 
 7378      72757074 
 7378      53746174 
 7379              	.LASF95:
 7380 06f0 78537472 		.ascii	"xStreamBufferIsFull\000"
 7380      65616D42 
 7380      75666665 
 7380      72497346 
 7380      756C6C00 
 7381              	.LASF66:
 7382 0704 78526574 		.ascii	"xReturn\000"
 7382      75726E00 
 7383              	.LASF96:
 7384 070c 78537472 		.ascii	"xStreamBufferSendCompletedFromISR\000"
 7384      65616D42 
 7384      75666665 
 7384      7253656E 
 7384      64436F6D 
 7385              	.LASF70:
 7386 072e 784E6578 		.ascii	"xNextTail\000"
 7386      74546169 
ARM GAS  C:\Users\adris\AppData\Local\Temp\ccnf5SFB.s 			page 165


 7386      6C00
 7387              	.LASF117:
 7388 0738 474E5520 		.ascii	"GNU C11 5.4.1 20160609 (release) [ARM/embedded-5-br"
 7388      43313120 
 7388      352E342E 
 7388      31203230 
 7388      31363036 
 7389 076b 616E6368 		.ascii	"anch revision 237715] -mcpu=cortex-m4 -mfloat-abi=s"
 7389      20726576 
 7389      6973696F 
 7389      6E203233 
 7389      37373135 
 7390 079e 6F667466 		.ascii	"oftfp -mfpu=fpv4-sp-d16 -mthumb -g -Og -ffunction-s"
 7390      70202D6D 
 7390      6670753D 
 7390      66707634 
 7390      2D73702D 
 7391 07d1 65637469 		.ascii	"ections -ffat-lto-objects\000"
 7391      6F6E7320 
 7391      2D666661 
 7391      742D6C74 
 7391      6F2D6F62 
 7392              	.LASF37:
 7393 07eb 78486561 		.ascii	"xHead\000"
 7393      6400
 7394              	.LASF48:
 7395 07f1 76506F72 		.ascii	"vPortRaiseBASEPRI\000"
 7395      74526169 
 7395      73654241 
 7395      53455052 
 7395      4900
 7396              	.LASF98:
 7397 0803 75785374 		.ascii	"uxStreamBufferGetStreamBufferNumber\000"
 7397      7265616D 
 7397      42756666 
 7397      65724765 
 7397      74537472 
 7398              	.LASF75:
 7399 0827 784F7269 		.ascii	"xOriginalTail\000"
 7399      67696E61 
 7399      6C546169 
 7399      6C00
 7400              	.LASF123:
 7401 0835 49544D5F 		.ascii	"ITM_RxBuffer\000"
 7401      52784275 
 7401      66666572 
 7401      00
 7402              	.LASF122:
 7403 0842 70727649 		.ascii	"prvInitialiseNewStreamBuffer\000"
 7403      6E697469 
 7403      616C6973 
 7403      654E6577 
 7403      53747265 
 7404              	.LASF18:
 7405 085f 63686172 		.ascii	"char\000"
 7405      00
 7406              	.LASF85:
ARM GAS  C:\Users\adris\AppData\Local\Temp\ccnf5SFB.s 			page 166


 7407 0864 78537472 		.ascii	"xStreamBufferBytesAvailable\000"
 7407      65616D42 
 7407      75666665 
 7407      72427974 
 7407      65734176 
 7408              	.LASF57:
 7409 0880 70756344 		.ascii	"pucData\000"
 7409      61746100 
 7410              	.LASF104:
 7411 0888 7076506F 		.ascii	"pvPortMalloc\000"
 7411      72744D61 
 7411      6C6C6F63 
 7411      00
 7412              	.LASF113:
 7413 0895 76546173 		.ascii	"vTaskSuspendAll\000"
 7413      6B537573 
 7413      70656E64 
 7413      416C6C00 
 7414              	.LASF119:
 7415 08a5 433A5C55 		.ascii	"C:\\Users\\adris\\OneDrive\\Documentos\\GitHub\\Tra"
 7415      73657273 
 7415      5C616472 
 7415      69735C4F 
 7415      6E654472 
 7416 08d2 62616A6F 		.ascii	"bajo_micros\\Trabajo_micros\\Trabajo_micros_workspa"
 7416      5F6D6963 
 7416      726F735C 
 7416      54726162 
 7416      616A6F5F 
 7417 0903 63655C54 		.ascii	"ce\\Trabajo_v02_Sist_Meca.cydsn\000"
 7417      72616261 
 7417      6A6F5F76 
 7417      30325F53 
 7417      6973745F 
 7418              	.LASF46:
 7419 0922 756C4E65 		.ascii	"ulNewBASEPRI\000"
 7419      77424153 
 7419      45505249 
 7419      00
 7420              		.ident	"GCC: (GNU Tools for ARM Embedded Processors) 5.4.1 20160609 (release) [ARM/embedded-5-bran
